
C:\Users\dax\AppData\Local\Temp\arduino_build_552028/K197Display.ino.elf:     file format elf32-avr


Disassembly of section .text:

00000200 <__vectors>:
__vector_default():
../../../../crt1/gcrt1.S:61
     200:	0c 94 6c 2b 	jmp	0x56d8	; 0x56d8 <__ctors_end>
../../../../crt1/gcrt1.S:67
     204:	0c 94 94 2b 	jmp	0x5728	; 0x5728 <__bad_interrupt>
../../../../crt1/gcrt1.S:68
     208:	0c 94 94 2b 	jmp	0x5728	; 0x5728 <__bad_interrupt>
../../../../crt1/gcrt1.S:69
     20c:	0c 94 94 2b 	jmp	0x5728	; 0x5728 <__bad_interrupt>
../../../../crt1/gcrt1.S:70
     210:	0c 94 94 2b 	jmp	0x5728	; 0x5728 <__bad_interrupt>
../../../../crt1/gcrt1.S:71
     214:	0c 94 94 2b 	jmp	0x5728	; 0x5728 <__bad_interrupt>
../../../../crt1/gcrt1.S:72
     218:	0c 94 94 2b 	jmp	0x5728	; 0x5728 <__bad_interrupt>
../../../../crt1/gcrt1.S:73
     21c:	0c 94 24 4a 	jmp	0x9448	; 0x9448 <__vector_7>
../../../../crt1/gcrt1.S:74
     220:	0c 94 94 2b 	jmp	0x5728	; 0x5728 <__bad_interrupt>
../../../../crt1/gcrt1.S:75
     224:	0c 94 cd 4a 	jmp	0x959a	; 0x959a <__vector_9>
../../../../crt1/gcrt1.S:76
     228:	0c 94 94 2b 	jmp	0x5728	; 0x5728 <__bad_interrupt>
../../../../crt1/gcrt1.S:77
     22c:	0c 94 bc 4a 	jmp	0x9578	; 0x9578 <__vector_11>
../../../../crt1/gcrt1.S:78
     230:	0c 94 94 2b 	jmp	0x5728	; 0x5728 <__bad_interrupt>
../../../../crt1/gcrt1.S:79
     234:	0c 94 94 2b 	jmp	0x5728	; 0x5728 <__bad_interrupt>
../../../../crt1/gcrt1.S:80
     238:	0c 94 94 2b 	jmp	0x5728	; 0x5728 <__bad_interrupt>
../../../../crt1/gcrt1.S:81
     23c:	0c 94 94 2b 	jmp	0x5728	; 0x5728 <__bad_interrupt>
../../../../crt1/gcrt1.S:82
     240:	0c 94 94 2b 	jmp	0x5728	; 0x5728 <__bad_interrupt>
../../../../crt1/gcrt1.S:83
     244:	0c 94 94 2b 	jmp	0x5728	; 0x5728 <__bad_interrupt>
../../../../crt1/gcrt1.S:84
     248:	0c 94 8a 49 	jmp	0x9314	; 0x9314 <__vector_18>
../../../../crt1/gcrt1.S:85
     24c:	0c 94 94 2b 	jmp	0x5728	; 0x5728 <__bad_interrupt>
../../../../crt1/gcrt1.S:86
     250:	0c 94 94 2b 	jmp	0x5728	; 0x5728 <__bad_interrupt>
../../../../crt1/gcrt1.S:87
     254:	0c 94 f4 48 	jmp	0x91e8	; 0x91e8 <__vector_21>
../../../../crt1/gcrt1.S:88
     258:	0c 94 ef 48 	jmp	0x91de	; 0x91de <__vector_22>
../../../../crt1/gcrt1.S:89
     25c:	0c 94 f9 48 	jmp	0x91f2	; 0x91f2 <__vector_23>
../../../../crt1/gcrt1.S:90
     260:	0c 94 94 2b 	jmp	0x5728	; 0x5728 <__bad_interrupt>
../../../../crt1/gcrt1.S:91
     264:	0c 94 94 2b 	jmp	0x5728	; 0x5728 <__bad_interrupt>
../../../../crt1/gcrt1.S:92
     268:	0c 94 94 2b 	jmp	0x5728	; 0x5728 <__bad_interrupt>
../../../../crt1/gcrt1.S:93
     26c:	0c 94 94 2b 	jmp	0x5728	; 0x5728 <__bad_interrupt>
../../../../crt1/gcrt1.S:94
     270:	0c 94 94 2b 	jmp	0x5728	; 0x5728 <__bad_interrupt>
../../../../crt1/gcrt1.S:95
     274:	0c 94 94 2b 	jmp	0x5728	; 0x5728 <__bad_interrupt>
../../../../crt1/gcrt1.S:96
     278:	0c 94 ac 4a 	jmp	0x9558	; 0x9558 <__vector_30>
../../../../crt1/gcrt1.S:97
     27c:	0c 94 62 49 	jmp	0x92c4	; 0x92c4 <__vector_31>
../../../../crt1/gcrt1.S:98
     280:	0c 94 94 2b 	jmp	0x5728	; 0x5728 <__bad_interrupt>
../../../../crt1/gcrt1.S:99
     284:	0c 94 94 2b 	jmp	0x5728	; 0x5728 <__bad_interrupt>
../../../../crt1/gcrt1.S:100
     288:	0c 94 94 2b 	jmp	0x5728	; 0x5728 <__bad_interrupt>
../../../../crt1/gcrt1.S:101
     28c:	0c 94 94 2b 	jmp	0x5728	; 0x5728 <__bad_interrupt>
../../../../crt1/gcrt1.S:102
     290:	0c 94 94 2b 	jmp	0x5728	; 0x5728 <__bad_interrupt>
../../../../crt1/gcrt1.S:103
     294:	0c 94 7e 4a 	jmp	0x94fc	; 0x94fc <__vector_37>
../../../../crt1/gcrt1.S:104
     298:	0c 94 94 2b 	jmp	0x5728	; 0x5728 <__bad_interrupt>
../../../../crt1/gcrt1.S:105
     29c:	0c 94 94 2b 	jmp	0x5728	; 0x5728 <__bad_interrupt>
../../../../crt1/gcrt1.S:106
     2a0:	0c 94 94 2b 	jmp	0x5728	; 0x5728 <__bad_interrupt>
../../../../crt1/gcrt1.S:107
     2a4:	0c 94 94 2b 	jmp	0x5728	; 0x5728 <__bad_interrupt>

000002a8 <__trampolines_end>:
__trampolines_end():
     2a8:	4e 41       	sbci	r20, 0x1E	; 30
     2aa:	4e 49       	Address 0x000002aa is out of bounds.
.word	0xffff	; ????

000002ab <pstr_inity>:
     2ab:	49 4e 49 54 59                                      INITY

000002b0 <pstr_inf>:
     2b0:	49 4e 46                                            INF

000002b3 <pwr_m10>:
     2b3:	cd cc cc 3d 0a d7 23 3c 17 b7 d1 38 77 cc 2b 32     ...=..#<...8w.+2
     2c3:	95 95 e6 24 1f b1 4f 0a                             ...$..O.

000002cb <pwr_p10>:
     2cb:	00 00 20 41 00 00 c8 42 00 40 1c 46 20 bc be 4c     .. A...B.@.F ..L
     2db:	ca 1b 0e 5a ae c5 9d 74 00 40 7a 10 f3 5a 00 a0     ...Z...t.@z..Z..
     2eb:	72 4e 18 09 00 10 a5 d4 e8 00 00 e8 76 48 17 00     rN..........vH..
     2fb:	00 e4 0b 54 02 00 00 ca 9a 3b 00 00 00 e1 f5 05     ...T.....;......
     30b:	00 00 80 96 98 00 00 00 40 42 0f 00 00 00 a0 86     ........@B......
     31b:	01 00 00 00 10 27 00 00 00 00 e8 03 00 00 00 00     .....'..........
     32b:	64 00 00 00 00 00 0a 00 00 00 00 00 01 00 00 00     d...............
     33b:	00 00 2c 76 d8 88 dc 67 4f 08 23 df c1 df ae 59     ..,v...gO.#....Y
     34b:	e1 b1 b7 96 e5 e3 e4 53 c6 3a e6 51 99 76 96 e8     .......S.:.Q.v..
     35b:	e6 c2 84 26 eb 89 8c 9b 62 ed 40 7c 6f fc ef bc     ...&....b.@|o...
     36b:	9c 9f 40 f2 ba a5 6f a5 f4 90 05 5a 2a f7 5c 93     ..@...o....Z*.\.
     37b:	6b 6c f9 67 6d c1 1b fc e0 e4 0d 47 fe f5 20 e6     kl.gm......G.. .
     38b:	b5 00 d0 ed 90 2e 03 00 94 35 77 05 00 80 84 1e     .........5w.....
     39b:	08 00 00 20 4e 0a 00 00 00 c8 0c 33 33 33 33 0f     ... N......3333.
     3ab:	98 6e 12 83 11 41 ef 8d 21 14 89 3b e6 55 16 cf     .n...A..!..;.U..
     3bb:	fe e6 db 18 d1 84 4b 38 1b f7 7c 1d 90 1d a4 bb     ......K8..|.....
     3cb:	e4 24 20 32 84 72 5e 22 81 00 c9 f1 24 ec a1 e5     .$ 2.r^"....$...
     3db:	3d 27                                               ='

000003dd <__c.2216>:
     3dd:	45 46 47 65 66 67 00                                EFGefg.

000003e4 <__c.2210>:
     3e4:	20 2b 2d 2e 30 31 32 33 34 35 36 37 38 39 68 00      +-.0123456789h.

000003f4 <printPrompt()::__c>:
     3f4:	3e 20 00                                            > .

000003f7 <printPrompt()::__c>:
     3f7:	20 4d 61 78 20 6c 6f 6f 70 20 74 69 6d 65 20 28      Max loop time (
     407:	75 73 29 3a 20 00                                   us): .

0000040d <printHelp()::__c>:
     40d:	20 63 6f 6e 74 72 61 73 74 20 6e 20 3d 3d 3e 20      contrast n ==> 
     41d:	73 65 74 20 64 69 73 70 6c 61 79 20 63 6f 6e 74     set display cont
     42d:	72 61 73 74 20 5b 30 2d 32 35 35 5d 00              rast [0-255].

0000043a <printHelp()::__c>:
     43a:	20 6c 6f 67 20 3d 3d 3e 20 74 6f 67 67 6c 65 20      log ==> toggle 
     44a:	64 61 74 61 20 6c 6f 67 67 69 6e 67 00              data logging.

00000457 <printHelp()::__c>:
     457:	20 6d 73 67 20 3d 3d 3e 20 74 6f 67 67 6c 65 20      msg ==> toggle 
     467:	70 72 69 6e 74 6f 75 74 20 6f 66 20 64 61 74 61     printout of data
     477:	20 74 6f 2f 66 72 6f 6d 20 6d 61 69 6e 20 62 6f      to/from main bo
     487:	61 72 64 00                                         ard.

0000048b <printHelp()::__c>:
     48b:	20 76 6f 6c 74 20 3d 3d 3e 20 63 68 65 63 6b 20      volt ==> check 
     49b:	76 6f 6c 74 61 67 65 73 20 26 20 74 65 6d 70 65     voltages & tempe
     4ab:	72 61 74 75 72 65 00                                rature.

000004b2 <printHelp()::__c>:
     4b2:	20 6a 6d 70 30 20 3d 3d 3e 20 6a 75 6d 70 20 74      jmp0 ==> jump t
     4c2:	6f 20 30 20 28 64 69 72 74 79 20 72 65 73 65 74     o 0 (dirty reset
     4d2:	29 00                                               ).

000004d4 <printHelp()::__c>:
     4d4:	20 73 77 72 20 20 3d 3d 3e 20 74 72 69 67 65 72      swr  ==> triger
     4e4:	20 73 6f 66 74 77 61 72 65 20 72 65 73 65 74 00      software reset.

000004f4 <printHelp()::__c>:
     4f4:	20 77 64 74 20 20 3d 3d 3e 20 74 72 69 67 67 65      wdt  ==> trigge
     504:	72 20 77 61 74 63 68 64 6f 67 20 72 65 73 65 74     r watchdog reset
	...

00000515 <printHelp()::__c>:
     515:	20 3f 20 2d 20 70 72 69 6e 74 20 74 68 69 73 20      ? - print this 
     525:	68 65 6c 70 20 74 65 78 74 00                       help text.

0000052f <UImanager::handleUIEvent(K197UIeventsource, K197UIeventType)::__c>:
     52f:	4d 61 78 20 6c 6f 6f 70 20 28 75 73 29 3a 20 00     Max loop (us): .

0000053f <logU2U()::__c>:
     53f:	20 3b 00                                             ;.

00000542 <UImanager::setup()::__c>:
     542:	53 50 49 20 70 69 6e 20 6d 61 70 70 69 6e 67 20     SPI pin mapping 
     552:	66 61 69 6c 65 64 21 00                             failed!.

0000055a <dxUtilClass::printResetFlags()::__c>:
     55a:	50 6f 77 65 72 20 6f 6e 20 72 65 73 65 74 00        Power on reset.

00000569 <dxUtilClass::printResetFlags()::__c>:
     569:	42 72 6f 77 6e 6f 75 74 20 52 65 73 65 74 00        Brownout Reset.

00000578 <dxUtilClass::printResetFlags()::__c>:
     578:	48 57 20 52 65 73 65 74 00                          HW Reset.

00000581 <dxUtilClass::printResetFlags()::__c>:
     581:	53 57 20 72 65 73 65 74 00                          SW reset.

0000058a <dxUtilClass::printResetFlags()::__c>:
     58a:	57 44 54 20 72 65 73 65 74 00                       WDT reset.

00000594 <dxUtilClass::printResetFlags()::__c>:
     594:	55 50 44 49 20 72 65 73 65 74 20 28 75 70 6c 6f     UPDI reset (uplo
     5a4:	61 64 29 00                                         ad).

000005a8 <dxUtilClass::pollMVIOstatus()::__c>:
     5a8:	4d 56 49 4f 20 6e 6f 74 20 6f 6b 21 00              MVIO not ok!.

000005b5 <dxUtilClass::pollMVIOstatus()::__c>:
     5b5:	4d 56 49 4f 20 6f 6b 00                             MVIO ok.

000005bd <setup::__c>:
     5bd:	42 54 20 69 73 20 6f 66 66 00                       BT is off.

000005c7 <setup::__c>:
     5c7:	42 54 20 69 73 20 6f 6e 00                          BT is on.

000005d0 <setup::__c>:
     5d0:	2c 20 00                                            , .

000005d3 <setup::__c>:
     5d3:	4b 31 39 37 44 69 73 70 6c 61 79 00                 K197Display.

000005df <setup::__c>:
     5df:	4b 31 39 37 44 69 73 70 6c 61 79 20 72 75 6e 6e     K197Display runn
     5ef:	69 6e 67 20 6f 6e 20 64 78 43 6f 72 65 00           ing on dxCore.

000005fd <printError(char const*)::__c>:
     5fd:	49 6e 76 61 6c 69 64 20 63 6f 6d 6d 61 6e 64 3a     Invalid command:
     60d:	20 00                                                .

0000060f <cmdContrast()::__c>:
     60f:	43 6f 6e 74 72 61 73 74 3a 20 3c 6e 6f 20 63 68     Contrast: <no ch
     61f:	61 6e 67 65 3e 00                                   ange>.

00000625 <cmdContrast()::__c>:
     625:	43 6f 6e 74 72 61 73 74 3d 00                       Contrast=.

0000062f <_ZZ12handleSerialvE3__c__11_>:
     62f:	20 00                                                .

00000631 <_ZZ12handleSerialvE3__c__10_>:
     631:	63 6f 6e 74 72 61 73 74 00                          contrast.

0000063a <handleSerial()::__c>:
     63a:	6c 6f 67 00                                         log.

0000063e <handleSerial()::__c>:
     63e:	6d 73 67 00                                         msg.

00000642 <handleSerial()::__c>:
     642:	2c 20 00                                            , .

00000645 <handleSerial()::__c>:
     645:	76 6f 6c 74 00                                      volt.

0000064a <handleSerial()::__c>:
     64a:	54 65 73 74 69 6e 67 20 64 69 72 74 79 20 72 65     Testing dirty re
     65a:	73 65 74 00                                         set.

0000065e <handleSerial()::__c>:
     65e:	6a 6d 70 30 00                                      jmp0.

00000663 <handleSerial()::__c>:
     663:	54 65 73 74 69 6e 67 20 53 57 20 72 65 73 65 74     Testing SW reset
	...

00000674 <handleSerial()::__c>:
     674:	73 77 72 00                                         swr.

00000678 <handleSerial()::__c>:
     678:	54 65 73 74 69 6e 67 20 77 61 74 63 68 64 6f 67     Testing watchdog
     688:	20 72 65 73 65 74 00                                 reset.

0000068f <handleSerial()::__c>:
     68f:	77 64 74 00                                         wdt.

00000693 <handleSerial()::__c>:
     693:	3f 00                                               ?.

00000695 <K197device::getNewReading(unsigned char*)::__c>:
     695:	20 43 41 4c 20 66 6f 75 6e 64 21 00                  CAL found!.

000006a1 <K197device::getNewReading(unsigned char*)::__c>:
     6a1:	20 43 41 4c 00                                       CAL.

000006a6 <K197device::getNewReading(unsigned char*)::__c>:
     6a6:	30 4c 00                                            0L.

000006a9 <seg2char>:
     6a9:	20 27 69 49 5e 2a 2a 54 2d 2a 72 66 2a 2a 2a 46      'iI^**T-*rf***F
     6b9:	5f 2a 65 4c 2a 2a 2a 43 3d 2a 63 74 58 2a 67 45     _*eL***C=*ctX*gE
     6c9:	27 22 2a 2a 3f 2a 2a 2a 2a 2a 2f 2a 2a 2a 2a 50     '"**?*****/****P
     6d9:	2a 2a 2a 2a 2a 4d 2a 2a 2a 59 2a 40 2a 51 32 52     *****M***Y*@*Q2R
     6e9:	69 2a 2a 2a 2a 2a 2a 2a 2a 5c 6e 68 2a 2a 2a 4b     i********\nh***K
     6f9:	6a 2a 75 2a 20 2a 57 47 61 2a 6f 62 2a 35 2a 36     j*u* *WGa*ob*5*6
     709:	31 2a 2a 2a 37 37 37 4e 2a 34 2a 48 2a 39 2a 41     1***777N*4*H*9*A
     719:	4a 56 4a 55 44 2a 2a 30 2a 79 64 26 33 39 61 38     JVJUD**0*yd&39a8

00000729 <K197device::getNewReading(unsigned char*)::__c>:
     729:	57 61 72 6e 69 6e 67 2c 20 4b 31 39 37 20 64 75     Warning, K197 du
     739:	70 6c 2e 20 44 50 00                                pl. DP.

00000740 <K197device::getNewReading(unsigned char*)::__c>:
     740:	57 61 72 6e 69 6e 67 2c 20 4b 31 39 37 20 6e 3d     Warning, K197 n=
	...

00000751 <SPIdevice::debugPrintData(unsigned char*, unsigned char)::__c>:
     751:	30 78 00                                            0x.

00000754 <K197device::debugPrint()::__c>:
     754:	20 2b 20 4f 76 2e 52 61 6e 67 65 00                  + Ov.Range.

00000760 <K197device::debugPrint()::__c>:
     760:	20 30 78 00                                          0x.

00000764 <K197device::debugPrint()::__c>:
     764:	2c 20 28 00                                         , (.

00000768 <_ZZN9UImanager18updateNormalScreenEvE3__c__18_>:
     768:	20 20 20 20 20 20 20 20 20 20 00                              .

00000773 <_ZZN9UImanager18updateNormalScreenEvE3__c__17_>:
     773:	20 20 20 00                                            .

00000777 <_ZZN9UImanager18updateNormalScreenEvE3__c__16_>:
     777:	52 4d 54 00                                         RMT.

0000077b <_ZZN9UImanager18updateNormalScreenEvE3__c__15_>:
     77b:	20 20 20 00                                            .

0000077f <_ZZN9UImanager18updateNormalScreenEvE3__c__14_>:
     77f:	43 61 6c 00                                         Cal.

00000783 <_ZZN9UImanager18updateNormalScreenEvE3__c__13_>:
     783:	20 20 20 20 00                                          .

00000788 <_ZZN9UImanager18updateNormalScreenEvE3__c__12_>:
     788:	52 43 4c 20 00                                      RCL .

0000078d <_ZZN9UImanager18updateNormalScreenEvE3__c__11_>:
     78d:	20 20 20 20 00                                          .

00000792 <_ZZN9UImanager18updateNormalScreenEvE3__c__10_>:
     792:	53 54 4f 20 00                                      STO .

00000797 <UImanager::updateNormalScreen()::__c>:
     797:	48 4f 4c 44 00                                      HOLD.

0000079c <UImanager::updateNormalScreen()::__c>:
     79c:	20 20 00                                              .

0000079f <UImanager::updateNormalScreen()::__c>:
     79f:	64 42 00                                            dB.

000007a2 <UImanager::updateNormalScreen()::__c>:
     7a2:	20 20 20 00                                            .

000007a6 <UImanager::updateNormalScreen()::__c>:
     7a6:	52 45 4c 00                                         REL.

000007aa <UImanager::updateNormalScreen()::__c>:
     7aa:	20 20 20 00                                            .

000007ae <UImanager::updateNormalScreen()::__c>:
     7ae:	42 41 54 00                                         BAT.

000007b2 <UImanager::updateNormalScreen()::__c>:
     7b2:	20 20 20 20 00                                          .

000007b7 <UImanager::updateNormalScreen()::__c>:
     7b7:	41 55 54 4f 00                                      AUTO.

000007bc <UImanager::updateNormalScreen()::__c>:
     7bc:	20 20 00                                              .

000007bf <UImanager::updateNormalScreen()::__c>:
     7bf:	41 43 00                                            AC.

000007c2 <UImanager::updateMinMaxScreen()::__c>:
     7c2:	20 20 20 20 00                                          .

000007c7 <UImanager::updateMinMaxScreen()::__c>:
     7c7:	48 4f 4c 44 00                                      HOLD.

000007cc <UImanager::updateMinMaxScreen()::__c>:
     7cc:	20 20 20 20 20 20 20 20 20 20 00                              .

000007d7 <UImanager::updateMinMaxScreen()::__c>:
     7d7:	4d 69 6e 20 00                                      Min .

000007dc <UImanager::updateMinMaxScreen()::__c>:
     7dc:	41 76 67 20 00                                      Avg .

000007e1 <UImanager::updateMinMaxScreen()::__c>:
     7e1:	4d 61 78 20 00                                      Max .

000007e6 <UImanager::updateMinMaxScreen()::__c>:
     7e6:	20 20 20 00                                            .

000007ea <UImanager::updateMinMaxScreen()::__c>:
     7ea:	52 45 4c 00                                         REL.

000007ee <UImanager::updateMinMaxScreen()::__c>:
     7ee:	20 20 00                                              .

000007f1 <UImanager::updateMinMaxScreen()::__c>:
     7f1:	41 43 00                                            AC.

000007f4 <_ZZN9UImanager17updateSplitScreenEvE3__c__14_>:
     7f4:	20 20 20 20 20 20 00                                      .

000007fb <_ZZN9UImanager17updateSplitScreenEvE3__c__13_>:
     7fb:	52 4d 54 20 20 20 00                                RMT   .

00000802 <_ZZN9UImanager17updateSplitScreenEvE3__c__12_>:
     802:	20 20 20 20 00                                          .

00000807 <_ZZN9UImanager17updateSplitScreenEvE3__c__11_>:
     807:	52 43 4c 20 00                                      RCL .

0000080c <_ZZN9UImanager17updateSplitScreenEvE3__c__10_>:
     80c:	20 20 20 20 00                                          .

00000811 <UImanager::updateSplitScreen()::__c>:
     811:	53 54 4f 20 00                                      STO .

00000816 <UImanager::updateSplitScreen()::__c>:
     816:	20 20 20 20 20 20 00                                      .

0000081d <UImanager::updateSplitScreen()::__c>:
     81d:	20 41 43 20 20 20 00                                 AC   .

00000824 <UImanager::updateSplitScreen()::__c>:
     824:	20 20 20 20 20 20 00                                      .

0000082b <UImanager::updateSplitScreen()::__c>:
     82b:	43 61 6c 20 20 20 00                                Cal   .

00000832 <UImanager::updateSplitScreen()::__c>:
     832:	20 20 20 20 00                                          .

00000837 <UImanager::updateSplitScreen()::__c>:
     837:	52 45 4c 20 00                                      REL .

0000083c <UImanager::updateSplitScreen()::__c>:
     83c:	20 20 20 20 00                                          .

00000841 <UImanager::updateSplitScreen()::__c>:
     841:	42 41 54 20 00                                      BAT .

00000846 <UImanager::updateSplitScreen()::__c>:
     846:	20 20 20 20 20 00                                        .

0000084c <UImanager::updateSplitScreen()::__c>:
     84c:	41 55 54 4f 20 00                                   AUTO .

00000852 <UImanager::logData()::__c>:
     852:	3b 20 00                                            ; .

00000855 <UImanager::logData()::__c>:
     855:	3b 20 00                                            ; .

00000858 <UImanager::logData()::__c>:
     858:	3b 20 00                                            ; .

0000085b <UImanager::logData()::__c>:
     85b:	3b 20 00                                            ; .

0000085e <UImanager::logData()::__c>:
     85e:	20 41 43 00                                          AC.

00000862 <UImanager::logData()::__c>:
     862:	20 6d 73 3b 20 00                                    ms; .

00000868 <BTmanager::checkPresence()::__c>:
     868:	42 54 20 74 75 72 6e 65 64 20 6f 6e 00              BT turned on.

00000875 <BTmanager::checkPresence()::__c>:
     875:	42 54 20 74 75 72 6e 65 64 20 6f 66 66 00           BT turned off.

00000883 <UImanager::updateBtStatus()::__c>:
     883:	20 20 20 00                                            .

00000887 <UImanager::updateBtStatus()::__c>:
     887:	3c 2d 3e 00                                         <->.

0000088b <UImanager::updateBtStatus()::__c>:
     88b:	3c 3d 3e 00                                         <=>.

0000088f <UImanager::updateBtStatus()::__c>:
     88f:	20 20 20 00                                            .

00000893 <UImanager::updateBtStatus()::__c>:
     893:	62 74 20 00                                         bt .

00000897 <k197ButtonCluster::checkNew()::__c>:
     897:	46 49 46 4f 20 46 75 6c 6c 00                       FIFO Full.

000008a1 <loop::__c>:
     8a1:	63 6c 65 61 72 65 64 00                             cleared.

000008a9 <loop::__c>:
     8a9:	44 45 54 45 43 54 45 44 00                          DETECTED.

000008b2 <loop::__c>:
     8b2:	43 6f 6c 6c 69 73 69 6f 6e 20 00                    Collision .

000008bd <loop::__c>:
     8bd:	72 61 77 3a 20 00                                   raw: .

000008c3 <loop::__c>:
     8c3:	3a 20 00                                            : .

000008c6 <loop::__c>:
     8c6:	53 50 49 20 70 61 63 6b 65 74 20 2d 20 4e 3d 00     SPI packet - N=.

000008d6 <K197device::getUnit(bool)::__c>:
     8d6:	20 20 00                                              .

000008d9 <K197device::getUnit(bool)::__c>:
     8d9:	64 42 00                                            dB.

000008dc <K197device::getUnit(bool)::__c>:
     8dc:	20 41 00                                             A.

000008df <K197device::getUnit(bool)::__c>:
     8df:	6d 41 00                                            mA.

000008e2 <K197device::getUnit(bool)::__c>:
     8e2:	c2 b5 41 00                                         ..A.

000008e6 <K197device::getUnit(bool)::__c>:
     8e6:	20 e2 84 a6 00                                       ....

000008eb <K197device::getUnit(bool)::__c>:
     8eb:	6b e2 84 a6 00                                      k....

000008f0 <K197device::getUnit(bool)::__c>:
     8f0:	4d e2 84 a6 00                                      M....

000008f5 <K197device::getUnit(bool)::__c>:
     8f5:	20 56 00                                             V.

000008f8 <K197device::getUnit(bool)::__c>:
     8f8:	6d 56 00                                            mV.

000008fb <K197device::getUnit(bool)::__c>:
     8fb:	c2 b0 43 00                                         ..C.

000008ff <dxUtilClass::checkVoltages(bool)::__c>:
     8ff:	56 00                                               V.

00000901 <dxUtilClass::checkVoltages(bool)::__c>:
     901:	56 2c 20 00                                         V, .

00000905 <dxUtilClass::checkTemperature(bool)::__c>:
     905:	20 43 00                                             C.

00000908 <dxUtilClass::checkTemperature(bool)::__c>:
     908:	54 3d 00                                            T=.

0000090b <dxUtilClass::reportStack(bool)::__c>:
     90b:	53 74 61 63 6b 3d 00                                Stack=.

00000912 <buttonPinIn>:
     912:	11 13 14 15                                         ....

00000916 <_usart0_pins>:
     916:	00 00 02 01 04 06 03 00 03                          .........

0000091f <__class_logStatSamples::__class_logStatSamples()::__c>:
     91f:	4e 75 6d 2e 20 53 61 6d 70 6c 65 73 00              Num. Samples.

0000092c <__txt_logSeparator1>:
     92c:	3c 20 53 74 61 74 69 73 74 69 63 73 20 3e 00        < Statistics >.

0000093b <__txt_logStat>:
     93b:	49 6e 63 6c 75 64 65 20 53 74 61 74 69 73 74 69     Include Statisti
     94b:	63 73 00                                            cs.

0000094e <__txt_logTamb>:
     94e:	49 6e 63 6c 75 64 65 20 54 61 6d 62 00              Include Tamb.

0000095b <__txt_logTimestamp>:
     95b:	4c 6f 67 20 74 69 6d 65 73 74 61 6d 70 00           Log timestamp.

00000969 <__txt_logSplitUnit>:
     969:	53 70 6c 69 74 20 75 6e 69 74 00                    Split unit.

00000974 <__txt_logSkip>:
     974:	53 61 6d 70 6c 65 73 20 74 6f 20 73 6b 69 70 00     Samples to skip.

00000984 <__txt_logEnable>:
     984:	45 6e 61 62 6c 65 64 00                             Enabled.

0000098c <__txt_logSeparator0>:
     98c:	3c 20 42 54 20 44 61 74 61 6c 6f 67 67 69 6e 67     < BT Datalogging
     99c:	20 3e 00                                             >.

0000099f <__class_openLog::__class_openLog()::__c>:
     99f:	53 68 6f 77 20 6c 6f 67 00                          Show log.

000009a8 <__txt_reloadSettings>:
     9a8:	52 65 6c 6f 61 64 20 73 65 74 74 69 6e 67 73 00     Reload settings.

000009b8 <__txt_saveSettings>:
     9b8:	53 61 76 65 20 73 65 74 74 69 6e 67 73 00           Save settings.

000009c6 <__class_contrastCtrl::__class_contrastCtrl()::__c>:
     9c6:	43 6f 6e 74 72 61 73 74 00                          Contrast.

000009cf <__txt_bluetoothMenu>:
     9cf:	42 6c 75 65 74 6f 6f 74 68 00                       Bluetooth.

000009d9 <__txt_btDatalog>:
     9d9:	44 61 74 61 20 6c 6f 67 67 69 6e 67 20 3e 3e 3e     Data logging >>>
	...

000009ea <__txt_reassignStoRcl>:
     9ea:	52 65 61 73 73 69 67 6e 20 53 54 4f 2f 52 43 4c     Reassign STO/RCL
	...

000009fb <__txt_additionalModes>:
     9fb:	45 78 74 72 61 20 4d 6f 64 65 73 00                 Extra Modes.

00000a07 <__txt_mainSeparator0>:
     a07:	3c 20 4f 70 74 69 6f 6e 73 20 3e 00                 < Options >.

00000a13 <__class_exitMenu::__class_exitMenu()::__c>:
     a13:	45 78 69 74 00                                      Exit.

00000a18 <__txt_closeMenu>:
     a18:	3c 20 42 61 63 6b 00                                < Back.

00000a1f <u8g2_font_inr30_mr>:
     a1f:	5f 02 05 03 05 06 01 04 06 19 28 00 f8 1e f8 1f     _.........(.....
     a2f:	f8 05 c1 0c bc 12 ca 20 0b 19 0d f9 c7 ff ff ff     ....... ........
     a3f:	1f 02 21 18 19 0d f9 07 32 b5 68 af b2 3a 76 ff     ..!.....2.h..:v.
     a4f:	ef 63 84 a8 4d 8f d2 c7 97 01 22 24 19 0d f9 07     .c..M....."$....
     a5f:	21 46 dc 94 71 53 c6 4d 19 37 65 dc 94 71 53 c6     !F..qS.M.7e..qS.
     a6f:	4d 19 37 65 dc 94 71 53 e6 e3 ff ff cb 00 23 4d     M.7e..qS......#M
     a7f:	19 0d f9 47 75 ca b8 29 e3 a6 8c 13 23 4f ca b8     ...Gu..)....#O..
     a8f:	29 e3 a6 4c 3a 70 c0 ca 81 03 a6 a6 8c 9b 32 4e     )..L:p........2N
     a9f:	8c 3c 29 e3 a6 8c 9b 32 6e ca b8 29 93 0e 1c b0     .<)....2n..)....
     aaf:	72 e0 80 29 31 f2 c4 c8 93 32 6e ca b8 29 e3 a6     r..)1....2n..)..
     abf:	8c 9b 32 6e ca b8 29 f2 f1 93 00 24 51 19 0d f9     ..2n..)....$Q...
     acf:	87 32 76 55 83 07 a8 1d 38 45 62 44 a5 19 43 24     .2vU....8EbD..C$
     adf:	d1 98 12 69 c8 3c 1a f3 68 0c 24 31 b0 c2 c4 03     ...i.<..h.$1....
     aef:	21 0f 88 3c 20 f2 80 c0 09 f6 66 d0 1b 42 6e 08     !..< .....f..Bn.
     aff:	b9 29 e3 86 10 8a 32 84 ce 90 19 74 6a 8c 28 74     .)....2....tj.(t
     b0f:	e0 80 ac 03 f5 0e 04 1d bb 3e 9e 01 25 51 19 0d     .........>..%Q..
     b1f:	f9 47 92 d4 9c 3b 73 0e 48 99 33 83 ca 9c 21 0b     .G...;s.H.3...!.
     b2f:	0d 59 68 c8 8c 49 24 68 8c 3a 20 62 d8 8d 69 44     .Yh..I$h.: b..iD
     b3f:	a6 8e 9d 3a 76 ea d8 a9 43 c8 cd 30 36 e3 40 2c     ...:v...C..06.@,
     b4f:	19 24 28 cd 18 32 68 c8 42 43 d6 99 32 64 ce 94     .$(..2h.BC..2d..
     b5f:	21 63 e6 50 98 33 c8 ce 28 fa f8 26 00 26 4d 19     !c.P.3..(..&.&M.
     b6f:	0d f9 47 d5 e4 81 80 07 c6 11 a1 36 66 da 98 69     ..G........6f..i
     b7f:	63 a6 8d 99 46 65 dc 10 72 24 08 4e 20 69 b2 e6     c...Fe..r$.N i..
     b8f:	45 0a f4 68 8c 89 43 84 ca 32 34 a6 d0 21 31 85     E..h..C..24..!1.
     b9f:	d0 99 49 76 28 d5 a1 54 87 d0 9d 22 15 06 1d 28     ..Iv(..T..."...(
     baf:	41 e8 c0 90 51 85 e2 e3 93 00 27 0f 19 0d f9 07     A...Q.....'.....
     bbf:	23 76 ff 7d fc ff 7f 1d 00 28 2a 19 0d f9 87 25     #v.}.....(*....%
     bcf:	96 a6 c9 9a 8d b2 3a 95 ea 54 aa 63 a7 72 75 ec     ......:..T.c.ru.
     bdf:	b2 54 39 3b 96 2a d9 b1 54 c9 b2 5a 95 6c d5 56     .T9;.*..T..Z.l.V
     bef:	e9 86 01 29 24 19 0d b9 8f 4b b5 aa d5 aa 64 b9     ...)$....K....d.
     bff:	4a 96 2a d9 b1 54 c9 ee 5f 65 75 2a d5 a9 44 a9     J.*..T.._eu*..D.
     c0f:	12 e5 66 a3 54 65 02 2a 2f 19 0d f9 c7 87 a9 32     ..f.Te.*/......2
     c1f:	3b 56 9e 18 75 88 08 21 73 42 c4 a1 03 e7 0e c4     ;V..u..!sB......
     c2f:	24 6a 72 c4 c4 11 03 87 8c 1b 33 8c 0c 29 42 c3     $jr.......3..)B.
     c3f:	22 c9 c7 7f 16 00 2b 1a 19 0d f9 c7 f3 63 f7 73     ".....+......c.s
     c4f:	07 0e 94 39 70 a0 cc 81 03 e5 c6 ee ef e3 bf 0d     ...9p...........
     c5f:	2c 17 19 0d f9 c7 ff ff 37 a6 d6 34 da ec b2 62     ,.......7..4...b
     c6f:	a7 8e 9d 3a 37 1e 00 2d 16 19 0d f9 c7 ff 0b 07     ...:7..-........
     c7f:	0e 0c 3a 70 60 d0 81 03 f3 f1 ff 4f 00 2e 10 19     ..:p`......O....
     c8f:	0d f9 c7 ff ff 37 88 da 74 94 3e be 0c 2f 2e 19     .....7..t.>../..
     c9f:	0d f9 07 16 77 ec 54 aa 53 a9 4e a5 3a 95 ea d8     ....w.T.S.N.:...
     caf:	a9 63 a7 52 9d 4a 75 2a d5 a9 54 c7 4e 1d 3b 95     .c.R.Ju*..T.N.;.
     cbf:	ea 54 aa 53 a9 4e a5 1b 1f cf 01 30 4e 19 0d f9     .T.S.N.....0N...
     ccf:	47 b7 e4 01 79 07 a8 15 21 36 67 16 a1 49 94 26     G...y...!6g..I.&
     cdf:	11 2a 34 a9 d0 20 3b 74 26 90 21 33 82 cc 1c 19     .*4.. ;t&.!3....
     cef:	64 16 19 33 65 99 21 63 c6 90 98 33 86 c4 18 16     d..3e.!c...3....
     cff:	e6 d0 31 44 a7 d2 a0 4a 83 28 31 34 8b 0c ad 22     ..1D...J.(14..."
     d0f:	d4 0e d0 3b 20 b2 3e 3e 0c 31 17 19 0d f9 47 78     ...; .>>.1....Gx
     d1f:	68 c9 83 07 04 92 18 18 65 ec fe ff 7f 1f 5f 06     h.......e....._.
     d2f:	32 2f 19 0d f9 47 d6 e2 81 71 07 6c 91 a9 44 88     2/...G...q.l..D.
     d3f:	94 28 aa cc 4e 65 75 2a 51 46 6b 12 e5 ab 53 89     .(..Neu*QFk...S.
     d4f:	52 9d 7a e0 c0 a0 03 07 06 1d 38 30 1f 9f 04 33     R.z.......80...3
     d5f:	32 19 0d f9 47 d5 e2 81 71 07 8c 8d a1 16 88 ec     2...G...q.......
     d6f:	ae 12 a5 59 f0 40 c4 03 11 0f 48 2d 4b 76 2c 55     ...Y.@....H-Kv,U
     d7f:	b2 53 99 0a b5 10 29 2a b5 0e 5c 3b 30 d1 3e be     .S....)*..\;0.>.
     d8f:	0c 34 38 19 0d f9 47 7c 2a a3 35 6d 4a 18 39 61     .48...G|*.5mJ.9a
     d9f:	e2 88 89 32 06 ce 98 37 64 9e 94 71 53 a6 8d 99     ...2...7d..qS...
     daf:	26 67 d8 9c 59 83 66 0d 1a 75 e0 40 99 03 07 ca     &g..Y.f..u.@....
     dbf:	1c 38 50 72 ec 7e 1f 5f 05 35 33 19 0d f9 47 f2     .8Pr.~._.53...G.
     dcf:	c0 81 50 07 0e 84 3a 70 20 d4 d8 7d a2 de 01 63     ..P...:p ..}...c
     ddf:	07 6e 15 31 35 88 56 28 aa 64 f7 a9 50 94 44 11     .n.15.V(.d..P.D.
     def:	62 a9 4c a9 03 d7 0e 4c b4 8f 0f 03 36 43 19 0d     b.L....L....6C..
     dff:	f9 47 d8 e2 81 71 07 6c 55 99 45 28 d8 54 aa 63     .G...q.lU.E(.T.c
     e0f:	a7 b2 51 6d c4 01 59 13 0e 90 3a 52 a9 0e 25 86     ..Qm..Y...:R..%.
     e1f:	48 0d 9a 35 68 d6 20 52 83 48 4d 1a 35 69 d4 24     H..5h. R.HM.5i.$
     e2f:	42 a4 c8 d0 2a 52 ec 40 b9 03 13 ed e3 bb 00 37     B...*R.@.......7
     e3f:	2d 19 0d f9 47 f1 c0 01 49 07 0e 48 3a 70 40 ea     -...G...I..H:p@.
     e4f:	54 aa 63 a7 52 9d 4a 75 ec 54 aa 63 a7 52 9d ca     T.c.R.Ju.T.c.R..
     e5f:	ea 54 56 a7 b2 3a 95 d5 f9 f8 3a 00 38 46 19 0d     .TV..:....:.8F..
     e6f:	f9 47 d6 e2 81 71 07 8a 15 a9 35 88 12 21 4a 93     .G...q....5..!J.
     e7f:	28 8d 9a 44 88 12 a1 59 64 88 d5 20 77 60 e0 45     (..D...Yd.. w`.E
     e8f:	0a e5 a6 10 9b 43 6a 12 a5 51 83 48 d1 19 36 67     .....Cj..Q.H..6g
     e9f:	d8 1c 52 74 48 11 62 a9 4c a9 03 d7 0e 4c b4 8f     ..RtH.b.L....L..
     eaf:	0f 03 39 41 19 0d f9 47 d6 e4 01 71 07 aa 11 a9     ..9A...G...q....
     ebf:	45 67 d6 20 4a 94 26 51 5a 8a d0 28 42 a4 06 51     Eg. J.&QZ..(B..Q
     ecf:	a2 34 89 9d 52 44 4e 1d a0 30 eb 80 88 71 34 a8     .4..RDN..0...q4.
     edf:	b2 3a 76 2a d5 61 81 68 51 21 76 a0 dc 81 89 f6     .:v*.a.hQ!v.....
     eef:	f1 65 00 3a 15 19 0d f9 c7 bf 4f d4 a6 a3 f4 f1     .e.:......O.....
     eff:	77 89 da 74 94 3e be 0c 3b 1c 19 0d f9 c7 bf 4f     w..t.>..;......O
     f0f:	d4 a6 a3 f4 f1 77 89 da 74 95 d5 b1 53 c7 8a 1d     .....w..t...S...
     f1f:	2b 1f 10 00 3c 1e 19 0d f9 c7 d9 b0 43 6b 5a f4     +...<.......CkZ.
     f2f:	27 6b 52 25 5b d5 d5 aa ae 56 75 95 ec e0 f8 f8     'kR%[....Vu.....
     f3f:	2b 00 3d 21 19 0d f9 c7 5f 3f 70 a0 cc 81 03 65     +.=!...._?p....e
     f4f:	0e 1c a8 8f a7 0f 1c 28 73 e0 40 99 03 07 ea e3     .......(s.@.....
     f5f:	ff 05 00 3e 1d 19 0d f9 c7 71 b9 54 fd d1 a3 56     ...>.....q.T...V
     f6f:	8b d6 2c 69 d1 c9 92 16 9d b4 49 55 3e fe 45 00     ..,i......IU>.E.
     f7f:	3f 27 19 0d f9 87 61 f1 c0 b8 03 c5 8a 94 22 44     ?'....a......."D
     f8f:	69 12 a9 58 63 b7 ca 28 af 4e 65 75 ec fa 58 9f     i..Xc..(.Neu..X.
     f9f:	5a b4 d5 f9 f8 32 00 40 51 19 0d f9 47 d7 e2 81     Z....2.@Q...G...
     faf:	71 07 6c 91 a9 44 69 10 ad 39 c3 c6 0c 3a 10 66     q.l..Di..9...:.f
     fbf:	cc 81 31 62 0e 50 99 52 64 ca 10 32 53 86 cc 99     ..1b.P.Rd..2S...
     fcf:	32 64 ce 94 21 73 a6 0c 99 33 65 08 15 2a 43 6a     2d..!s...3e..*Cj
     fdf:	54 99 72 a0 cc 94 0b 63 e6 0c 23 3b 96 d9 3a c2     T.r....c..#;..:.
     fef:	0e 58 3b 50 d0 3e 3e 0b 41 44 19 0d f9 07 1f 38     .X;P.>>.AD.....8
     fff:	dd b1 63 89 b6 39 61 e4 84 91 13 26 ce 18 38 63     ..c..9a....&..8c
    100f:	e0 0c 72 53 c6 4d 19 37 66 d8 9c 61 73 68 1d 38     ..rS.M.7f..ash.8
    101f:	75 e0 40 a8 03 07 24 4d 22 44 6a d0 2c 3a c3 c6     u.@...$M"Dj.,:..
    102f:	4c a3 32 8d ca b8 21 f3 e8 e3 83 00 42 51 19 0d     L.2...!.....BQ..
    103f:	f9 47 f0 80 b1 03 07 42 1d 38 20 69 52 a1 51 84     .G.....B.8 iR.Q.
    104f:	66 d1 99 45 67 d8 9c 59 74 66 d1 19 45 68 12 a5     f..Eg..Ytf..Eh..
    105f:	03 07 42 1d b8 75 e0 80 a4 49 85 66 d1 19 36 67     ..B..u...I.f..6g
    106f:	18 99 61 64 a6 8d 19 46 66 18 99 61 64 66 d1 19     ..ad...Ff..adf..
    107f:	55 e7 c0 81 41 07 0e 84 3a 60 1f df 05 43 2e 19     U...A...:`...C..
    108f:	0d f9 47 d7 e2 81 69 07 4e 59 a9 44 88 29 32 c4     ..G...i.NY.D.)2.
    109f:	e4 50 9d ca ab 63 97 a5 ca d9 b1 54 c9 d2 92 c4     .P...c.....T....
    10af:	90 95 52 07 ae 1d 98 68 1f df 05 44 4d 19 0d f9     ..R....h...DM...
    10bf:	47 f0 00 b9 03 b7 0e 1c 08 35 a8 d2 24 4a a3 08     G........5..$J..
    10cf:	cd a2 33 8b ce b0 39 c3 e6 0c 23 33 8c cc 30 32     ..3...9...#3..02
    10df:	d3 c6 4c 1b 33 6d cc 30 32 c3 c8 0c 23 33 6c ce     ..L.3m.02...#3l.
    10ef:	b0 39 b3 e8 cc 1a 34 8a d0 24 4a 73 2c 1d 38 10     .9....4..$Js,.8.
    10ff:	ea 80 b1 03 f4 f1 65 00 45 2e 19 0d f9 47 f0 c0     ......e.E....G..
    110f:	01 3a 07 0e d0 39 70 80 ce d8 fd d9 03 07 42 1d     .:...9p.......B.
    111f:	38 10 ea c0 81 50 63 f7 9f 3d 70 80 ce 81 03 74     8....Pc..=p....t
    112f:	0e 1c a0 8f 4f 02 46 21 19 0d f9 47 f1 c0 81 41     ....O.F!...G...A
    113f:	07 0e 0c 3a 70 60 d0 d8 fd d9 03 b7 0e dc 3a 70     ...:p`........:p
    114f:	6b ec fe df c7 2f 00 47 42 19 0d f9 47 f7 e0 01     k..../.GB...G...
    115f:	62 07 4e 95 a9 c4 0e a9 39 c4 02 51 1d 3b 95 d5     b.N.....9..Q.;..
    116f:	b1 0b 1d 90 32 e8 80 14 3a 07 a4 50 9b 42 6d 0a     ....2...:..P.Bm.
    117f:	b5 31 d3 c6 10 1b 43 6c 0e ad 41 94 08 59 b1 74     .1....Cl..A..Y.t
    118f:	e0 40 b0 03 04 ef e3 b3 00 48 4e 19 0d f9 47 90     .@.......HN...G.
    119f:	d6 9c 61 73 86 cd 19 36 67 d8 9c 61 73 86 cd 19     ..as...6g..as...
    11af:	36 67 d8 9c 61 73 86 cd 19 36 e7 c0 01 3a 07 0e     6g..as...6...:..
    11bf:	d0 39 70 80 ce b0 39 c3 e6 0c 9b 33 6c ce b0 39     .9p...9....3l..9
    11cf:	c3 e6 0c 9b 33 6c ce b0 39 c3 e6 0c 9b 33 6c ce     ....3l..9....3l.
    11df:	b0 39 c3 e6 e3 93 00 49 1f 19 0d f9 47 f2 c0 ad     .9.....I....G...
    11ef:	03 b7 0e 1c 1c bb ff ff 0f 1e 38 10 ea c0 81 50     ..........8....P
    11ff:	07 0e c4 c7 47 01 4a 22 19 0d f9 47 f5 80 b1 03     ....G.J"...G....
    120f:	c6 0e 98 1c bb ff 7f 95 b1 40 b4 e4 10 23 52 ec     .........@...#R.
    121f:	40 b9 03 13 ed e3 db 00 4b 4b 19 0d f9 47 8f 16     @.......KK...G..
    122f:	99 59 74 46 11 9a 44 69 10 a9 39 b4 e6 0c 1b 43     .YtF..Di..9....C
    123f:	6c 0a b5 21 e4 66 d0 1b 41 70 02 c5 03 02 0f cc     l..!.f..Ap......
    124f:	ab 40 8f 06 b9 29 d4 a6 50 1b 43 6c 0e ad 41 a4     .@...)..P.Cl..A.
    125f:	06 91 9a 44 69 14 a1 51 84 66 d1 19 46 66 58 7d     ...Di..Q.f..FfX}
    126f:	7c 11 00 4c 1a 19 0d f9 47 90 ea d8 fd ff ff d9     |..L....G.......
    127f:	03 07 e8 1c 38 40 e7 c0 01 fa f8 24 00 4d 5c 19     ....8@.....$.M\.
    128f:	0d f9 47 6f da 18 62 63 68 91 29 45 a6 14 19 43     ..Go..bch.)E...C
    129f:	65 0c 95 99 30 c6 cc 84 31 12 c6 4c 98 32 61 cc     e...0...1..L.2a.
    12af:	88 21 22 c6 8c 98 31 62 cc 8c 11 32 c6 cc 98 30     .!"...1b...2...0
    12bf:	63 cc 90 22 63 86 14 19 33 65 99 29 cb 8c 09 b3     c.."c...3e.)....
    12cf:	da 98 69 63 a6 8d 99 36 66 da 98 69 63 a6 8d 99     ..ic...6f..ic...
    12df:	36 66 da 98 69 f3 f1 49 00 4e 59 19 0d f9 47 90     6f..i..I.NY...G.
    12ef:	16 19 5a 73 4a cd 29 35 c7 d2 1c 4b 73 26 0c 9a     ..ZsJ.)5...Ks&..
    12ff:	33 61 d0 9c 11 73 96 20 33 67 c6 98 39 33 a8 cc     3a...s. 3g..93..
    130f:	19 32 65 ce 10 22 73 a6 0c 99 33 85 c6 9c 31 33     .2e.."s...3...13
    131f:	e6 8c 21 31 67 89 39 83 26 cc 19 34 61 ce 24 3b     ..!1g.9.&..4a.$;
    132f:	93 ec 8c aa 33 aa ce 2c 3a b3 e8 0c 9b 33 6c 3e     ....3..,:....3l>
    133f:	3e 09 4f 46 19 0d f9 47 d6 e2 81 71 07 6c 55 a9     >.OF...G...q.lU.
    134f:	44 88 12 3b b4 e6 0c 23 33 8c 0a b5 29 d4 a6 50     D..;...#3...)..P
    135f:	9b 32 6e ca b8 29 e3 a6 8c 9b 42 6d 0a b5 29 d4     .2n..)....Bm..).
    136f:	a6 50 1b 33 8c 0c 2d 32 b4 06 51 62 87 54 95 5a     .P.3..-2..Qb.T.Z
    137f:	07 cc 1d 10 59 1f 1f 06 50 36 19 0d f9 47 f0 80     ....Y...P6...G..
    138f:	b1 03 07 42 1d 38 20 69 52 a1 59 74 66 d1 19 36     ...B.8 iR.Ytf..6
    139f:	67 d8 9c 61 73 86 cd 99 45 67 16 9d 49 85 0e 1c     g..as...Eg..I...
    13af:	90 74 e0 40 a8 03 c6 c6 ee ff 3e 7e 02 00 51 50     .t.@......>~..QP
    13bf:	19 0d f9 47 b7 e2 81 71 07 6c 55 a9 54 87 12 3b     ...G...q.lU.T..;
    13cf:	b4 e6 d0 22 33 8c cc b4 29 d4 a6 50 9b 32 6e ca     ..."3...)..P.2n.
    13df:	b8 29 e3 a6 8c 9b 42 6d 0a b5 29 d4 a6 50 1b 33     .)....Bm..)..P.3
    13ef:	8c cc 30 32 b4 e8 8c 22 44 89 1d 52 36 6c 1d 30     ..02..."D..R6l.0
    13ff:	77 40 64 d5 b1 63 c9 1e 90 78 20 e4 75 00 52 4f     w@d..c...x .u.RO
    140f:	19 0d f9 47 f0 80 b1 03 07 42 1d 38 20 69 52 a1     ...G.....B.8 iR.
    141f:	51 84 66 d1 99 45 67 d8 9c 61 73 66 d1 99 45 67     Q.f..Eg..asf..Eg
    142f:	14 a1 49 85 0e 1c 90 74 e0 40 a8 03 c6 c6 4c 9b     ..I....t.@....L.
    143f:	33 6c ce b0 39 b4 06 cd 1a 44 6a d2 a8 49 94 46     3l..9....Dj..I.F
    144f:	11 1a 45 68 16 9d 59 74 86 d1 c7 17 01 53 38 19     ..Eh..Yt.....S8.
    145f:	0d f9 47 d7 e0 01 6a 07 4e 95 a9 b4 12 29 49 63     ..G...j.N....)Ic
    146f:	c7 52 25 4b b6 aa d1 03 31 0f 04 b5 5a 96 55 b2     .R%K....1...Z.U.
    147f:	eb 44 a3 23 8c ce 28 3a 66 2a 1d 38 20 eb 40 bd     .D.#..(:f*.8 .@.
    148f:	03 f1 f1 5d 00 54 19 19 0d f9 47 ef c0 01 2b 07     ...].T....G...+.
    149f:	0e 58 39 70 c0 da d8 fd ff ff fb f8 34 00 55 49     .X9p........4.UI
    14af:	19 0d f9 47 90 d8 98 69 63 a6 8d 99 36 66 da 98     ...G...ic...6f..
    14bf:	69 63 a6 8d 99 36 66 da 98 69 63 a6 8d 99 36 66     ic...6f..ic...6f
    14cf:	da 98 69 63 a6 8d 99 36 66 da 98 69 63 a6 8d 99     ..ic...6f..ic...
    14df:	36 66 18 19 5a 64 68 d1 a1 44 88 12 a5 2a b5 0e     6f..Zdh..D...*..
    14ef:	58 3b 40 f0 3e be 0b 56 43 19 0d f9 47 6f dc 94     X;@.>..VC...Go..
    14ff:	71 53 a8 8d 19 36 67 d8 1c 5a 83 46 4d 1a 35 89     qS...6g..Z.FM.5.
    150f:	d2 a8 41 b3 06 cd a2 33 6c cc b4 31 d3 a8 8c 1b     ..A....3l..1....
    151f:	32 6f c8 3c 1a 03 47 4c 1c 31 72 c2 c8 09 32 8d     2o.<..GL.1r...2.
    152f:	16 a5 4a 76 ac 5c f9 f8 34 00 57 64 19 0d f9 47     ..Jv.\..4.Wd...G
    153f:	6e e0 8c 81 43 e6 c4 19 32 27 8e 94 31 63 a4 8c     n...C...2'..1c..
    154f:	19 23 65 cc 94 65 a6 8c 19 52 64 cc 90 22 63 86     .#e..e...Rd.."c.
    155f:	14 91 33 63 c2 0c 39 33 26 cc 90 33 43 c4 42 23     ..3c..93&..3C.B#
    156f:	44 2c 34 61 c6 84 41 13 84 4c 90 34 41 c8 04 49     D,4a..A..L.4A..I
    157f:	13 84 4c 90 64 a5 52 99 52 64 4a 91 a1 45 67 d6     ..L.d.R.RdJ..Eg.
    158f:	a0 59 83 66 0d 1a 26 49 58 28 f9 f8 28 00 58 44     .Y.f..&IX(..(.XD
    159f:	19 0d f9 47 70 d8 1c 52 93 46 4d 22 34 6b d0 2c     ...Gp..R.FM"4k.,
    15af:	32 d3 88 90 1b 32 8f 04 c1 11 13 0f 84 b4 69 94     2....2........i.
    15bf:	2a d5 9a 26 0f 44 1c 31 90 04 bd 21 e3 88 50 1b     *..&.D.1...!..P.
    15cf:	43 8b 0c ad 41 94 08 51 1a 45 87 d6 9c 61 f4 f1     C...A..Q.E...a..
    15df:	45 00 59 2e 19 0d f9 47 8f da 18 62 63 68 0d 22     E.Y....G...bch."
    15ef:	35 88 12 43 a3 e8 d0 22 33 8c 0a 35 22 e3 68 d0     5..C..."3..5".h.
    15ff:	23 31 90 c4 c4 93 37 8b 56 1d bb ff 7d 7c 19 00     #1....7.V...}|..
    160f:	5a 32 19 0d f9 47 f0 c0 01 3a 07 0e d0 39 70 80     Z2...G...:...9p.
    161f:	ea 54 aa ab 52 9d 4a 75 55 aa 53 a9 ae 4a 75 2a     .T..R.JuU.S..Ju*
    162f:	d5 55 a9 2e 3b f5 c0 81 32 07 0e 94 39 70 a0 3e     .U..;...2...9p.>
    163f:	be 08 5b 1b 19 0d f9 3f 70 eb c0 ad 03 b7 c6 ee     ..[....?p.......
    164f:	ff ff ff d9 03 b7 0e dc 3a 70 1f 49 00 5c 2b 19     ........:p.I.\+.
    165f:	0d b9 8f 3b 76 2c d9 b1 64 c7 92 1d 4b 76 dd b1     ...;v,..d...Kv..
    166f:	63 c9 8e 25 3b 96 ec 58 b2 eb 8e 1d 4b 76 2c d9     c..%;..X....Kv,.
    167f:	b1 64 c7 92 8d 8f 17 00 5d 1a 19 0d 79 3f 70 eb     .d......]...y?p.
    168f:	c0 ad 03 67 f7 ff ff ff ad 03 b7 0e dc 3a 70 1f     ...g.........:p.
    169f:	51 00 5e 21 19 0d f9 47 58 ee 54 aa 35 6d 5e 1c     Q.^!...GX.T.5m^.
    16af:	31 90 04 bd 21 e3 c6 4c 1b 33 6c d0 b0 48 f2 f1     1...!..L.3l..H..
    16bf:	ff 3f 09 5f 16 19 0d f9 c7 ff ff 7f f5 c0 01 2b     .?._...........+
    16cf:	07 0e 58 39 70 c0 3e a6 00 60 1a 19 0d f9 c7 5c     ..X9p.>..`.....\
    16df:	60 b9 72 c7 8e a5 5a 95 6a 55 b2 eb 2a 1c 1f ff     `.r...Z.jU..*...
    16ef:	ff 14 00 61 38 19 0d f9 c7 df 3a 78 80 d8 81 5b     ...a8.....:x...[
    16ff:	64 6a 85 1a 4b 95 ec 6a 07 6a 1d b8 74 e0 80 a0     dj..K..j.j..t...
    170f:	4a 83 66 cd 21 45 67 16 1d 4a 75 08 19 22 73 e8     J.f.!Eg..Ju.."s.
    171f:	80 85 49 07 66 cc b2 32 1f 9f 04 62 41 19 0d 39     ..I.f..2...bA..9
    172f:	a7 3a 76 7f c4 d8 88 03 b2 26 1c a8 34 41 4a a5     .:v......&..4AJ.
    173f:	42 4c d1 21 45 87 14 9d 61 73 86 cd 19 36 67 d8     BL.!E...as...6g.
    174f:	9c 61 73 86 cd a1 35 87 14 1d 52 83 0a 11 b2 52     .as...5...R....R
    175f:	69 c2 01 52 23 0e c8 92 52 1f 1f 06 63 2a 19 0d     i..R#...R...c*..
    176f:	f9 c7 1f 3b 78 80 da 01 5b 55 2a 51 1a 44 2b d2     ...;x...[U*Q.D+.
    177f:	54 56 c7 2e 4b 95 59 aa 64 29 c9 aa 52 eb 80 b5     TV..K.Y.d)..R...
    178f:	03 04 ef e3 b3 00 64 43 19 0d f9 87 45 75 ec 7e     ......dC....Eu.~
    179f:	ad c8 ac 03 22 46 1d a0 30 a9 8a 21 42 85 28 11     ...."F..0..!B.(.
    17af:	9a 35 87 d6 1c 5a 73 86 cd 19 36 67 d8 1c 5a 73     .5...Zs...6g..Zs
    17bf:	68 cd a1 35 68 14 21 4a 84 ea 54 aa 62 ea 00 85     h..5h.!J..T.b...
    17cf:	59 07 44 4c 2b 42 1f 9f 04 65 33 19 0d f9 c7 1f     Y.DL+B...e3.....
    17df:	33 78 80 da 01 5b 55 4a 4d 5a 8a d0 ac 39 b4 e6     3x...[UJMZ...9..
    17ef:	1c 38 40 e7 c0 81 32 07 0e d0 19 4b 95 d9 b1 2c     .8@...2....K...,
    17ff:	89 2a 53 ea c0 b5 03 04 ef e3 b3 00 66 26 19 0d     .*S.........f&..
    180f:	f9 87 63 f1 c0 b8 03 c5 aa 90 22 24 8b 52 ac b1     ..c......."$.R..
    181f:	bb 78 e0 40 a8 03 07 42 1d 38 10 6f ec fe ff 3e     .x.@...B.8.o...>
    182f:	3e 0e 67 4c 19 0d f9 c7 9f 2a 33 e9 80 88 42 07     >.gL.....*3...B.
    183f:	0e cc 29 52 6b ce 2c 42 a3 08 8d 9a 34 8a d0 28     ..)Rk.,B....4..(
    184f:	42 b3 c8 d0 2a 42 ed 00 bd 03 f2 26 50 14 bb ec     B...*B.....&P...
    185f:	01 6b 07 6e 1d 38 10 69 14 9d 61 63 a6 8d 99 36     .k.n.8.i..ac...6
    186f:	86 16 99 4a 84 0e 1c 98 74 e0 dc 01 49 00 68 3f     ...J....t...I.h?
    187f:	19 0d 79 a7 3a 76 7f a5 d8 8c 03 a2 46 1c 18 35     ..y.:v......F..5
    188f:	61 0a 25 3b 84 0a b1 44 88 12 a1 59 83 66 0d 9a     a.%;...D...Y.f..
    189f:	35 68 d6 a0 59 83 66 0d 9a 35 68 d6 a0 59 83 66     5h..Y.f..5h..Y.f
    18af:	0d 9a 35 68 d6 a0 59 83 66 cd c7 27 01 69 20 19     ..5h..Y.f..'.i .
    18bf:	0d f9 87 32 b5 68 ab f3 b1 7b 40 e0 01 81 07 c4     ...2.h...{@.....
    18cf:	ee ff 0f 1e b8 75 e0 d6 81 fb f8 28 00 6a 25 19     .....u.....(.j%.
    18df:	0d f9 07 34 b5 68 ab f3 b1 7a 80 dc 01 72 07 c8     ...4.h...z...r..
    18ef:	ee ff ff 2a b1 40 c4 e2 10 23 52 ec 40 b9 03 13     ...*.@...#R.@...
    18ff:	ad 01 6b 3d 19 0d f9 a0 3a 76 ff 14 a1 49 94 06     ..k=....:v...I..
    190f:	91 9a 43 6b 0c b1 29 d4 86 90 9b 41 6f 04 c1 09     ..Ck..)....Ao...
    191f:	05 0f cc b3 40 ae 44 35 22 c5 c6 10 9b 43 6b 10     ....@.D5"....Ck.
    192f:	a9 41 95 26 51 1a 45 68 16 9d 59 f5 f1 45 00 6c     .A.&Q.Eh..Y..E.l
    193f:	1d 19 0d 79 3f 20 f0 80 c0 03 62 f7 ff ff 0f 1e     ...y? ....b.....
    194f:	38 20 e9 c0 01 49 07 0e c8 c7 37 01 6d 52 19 0d     8 ...I....7.mR..
    195f:	f9 c7 1f 99 41 84 ce 84 13 57 26 3c 10 a5 86 09     ....A....W&<....
    196f:	2a 44 8a b0 42 84 95 29 44 c6 4c 21 32 66 0a 91     *D..B..)D.L!2f..
    197f:	31 53 88 8c 99 42 64 cc 14 22 63 a6 10 19 33 85     1S...Bd.."c...3.
    198f:	c8 98 29 44 c6 4c 21 32 66 0a 91 31 53 88 8c 99     ..)D.L!2f..1S...
    199f:	42 64 cc 14 22 63 a6 10 19 33 85 3e 3e 08 6e 3e     Bd.."c...3.>>.n>
    19af:	19 0d f9 c7 9f 99 52 6c c6 01 51 23 0e 8c 9a 30     ......Rl..Q#...0
    19bf:	85 92 1d 42 85 58 22 44 89 d0 ac 41 b3 06 cd 1a     ...B.X"D...A....
    19cf:	34 6b d0 ac 41 b3 06 cd 1a 34 6b d0 ac 41 b3 06     4k..A....4k..A..
    19df:	cd 1a 34 6b d0 ac 41 b3 e6 e3 93 00 6f 38 19 0d     ..4k..A.....o8..
    19ef:	f9 c7 df b2 78 60 dc 81 62 54 4a 11 62 89 d0 2c     ....x`..bTJ.b..,
    19ff:	32 b4 c8 10 1b 33 6d cc b4 31 d3 c6 10 1b 43 6c     2....3m..1....Cl
    1a0f:	0c 2d 3a b3 e8 90 9a 44 88 14 95 62 07 ca 1d 98     .-:....D...b....
    1a1f:	68 1f 1f 06 70 41 19 0d f9 c7 5f 19 62 6c c4 81     h...pA...._.bl..
    1a2f:	51 13 0e 54 9a 20 a5 52 21 a6 e8 90 a2 43 8a ce     Q..T. .R!....C..
    1a3f:	b0 39 c3 e6 0c 9b 33 6c ce b0 39 c3 e6 d0 9a 43     .9....3l..9....C
    1a4f:	8a 0e a9 41 85 08 59 a9 34 e1 00 a9 11 07 64 0d     ...A..Y.4.....d.
    1a5f:	a9 36 76 bf 09 71 3f 19 0d f9 c7 9f b2 31 eb 80     .6v..q?......1..
    1a6f:	88 51 07 28 4c aa 62 a8 4e 21 4a 84 66 cd a1 35     .Q.(L.b.N!J.f..5
    1a7f:	87 d6 9c 61 73 86 cd 19 36 87 d6 1c 5a 73 68 0d     ...as...6...Zsh.
    1a8f:	9a 35 88 12 3b 95 aa 98 3a 40 61 d6 01 11 d3 8a     .5..;...:@a.....
    1a9f:	8c dd 5f 01 72 20 19 0d f9 c7 df 99 62 6b c6 81     .._.r ......bk..
    1aaf:	49 23 0e 14 9a 40 65 d2 1d 49 36 8b 52 65 75 ec     I#...@e..I6.Reu.
    1abf:	fe f7 f1 03 73 34 19 0d f9 c7 df b2 78 80 d8 81     ....s4......x...
    1acf:	5b 64 2a 11 a2 34 4a 14 55 b2 55 0f 84 3c 30 f2     [d*..4J.U.U..<0.
    1adf:	40 50 b3 64 27 05 9b 14 6c d0 28 42 75 2a 1d 38     @P.d'...l.(Bu*.8
    1aef:	10 eb 40 c1 fb f8 30 00 74 25 19 0d f9 c7 20 55     ..@...0.t%.... U
    1aff:	ae 8e 9d 78 e0 40 a8 03 07 42 1d 38 10 6f ec fe     ...x.@...B.8.o..
    1b0f:	9f a5 5a 64 dc 01 72 07 26 da c7 57 01 75 3d 19     ..Zd..r.&..W.u=.
    1b1f:	0d f9 c7 5f 99 35 68 d6 a0 59 83 66 0d 9a 35 68     ..._.5h..Y.f..5h
    1b2f:	d6 a0 59 83 66 0d 9a 35 68 d6 a0 59 83 66 0d 9a     ..Y.f..5h..Y.f..
    1b3f:	35 68 d6 20 52 83 28 11 a2 c4 4e a5 2a a6 0e 50     5h. R.(...N.*..P
    1b4f:	98 75 40 c4 b4 22 f4 f1 49 00 76 36 19 0d f9 c7     .u@.."..I.v6....
    1b5f:	1f 21 36 67 d8 1c 5a 83 66 0d 1a 35 89 d2 a8 49     .!6g..Z.f..5...I
    1b6f:	a3 e8 cc a2 33 6c cc 34 2a e3 a6 8c a3 31 8f c6     ....3l.4*....1..
    1b7f:	c0 11 13 29 8c 9c 30 d2 a6 51 aa 54 e7 e3 d3 00     ...)..0..Q.T....
    1b8f:	77 52 19 0d f9 c7 1f 99 37 64 de 90 31 8b 8c 59     wR......7d..1..Y
    1b9f:	64 cc 18 31 53 a8 88 19 52 45 cc 90 22 63 86 48     d..1S...RE.."c.H
    1baf:	10 32 66 88 84 19 73 84 48 98 31 67 c4 08 19 82     .2f...s.H.1g....
    1bbf:	46 c8 18 21 68 84 8c 11 82 46 c8 98 30 49 82 14     F..!h....F..0I..
    1bcf:	09 93 aa 58 aa 52 aa 4a 29 3a a4 e8 d0 9a 43 1f     ...X.R.J):....C.
    1bdf:	df 04 78 35 19 0d f9 c7 5f 21 35 69 12 43 b3 c8     ..x5...._!5i.C..
    1bef:	4c 9b 42 8d c8 3c 12 13 27 50 bc 69 94 2a 51 93     L.B..<..'P.i.*Q.
    1bff:	07 22 8e 18 48 82 1c 11 6a 63 86 91 21 45 88 d2     ."..H...jc..!E..
    1c0f:	28 3a a4 e8 e3 93 00 79 41 19 0d f9 c7 5f a1 45     (:.....yA...._.E
    1c1f:	86 d6 a0 59 83 66 0d a2 34 6a d2 28 42 b3 e6 0c     ...Y.f..4j.(B...
    1c2f:	9b 33 8c cc b4 29 e3 a6 8c a3 31 70 c6 40 12 13     .3...)....1p.@..
    1c3f:	27 8c 9c 30 f2 66 d1 aa 54 c7 4e 1d 3b 95 9c 10     '..0.f..T.N.;...
    1c4f:	7a 07 04 1e 08 69 10 00 7a 2b 19 0d f9 c7 9f 39     z....i..z+.....9
    1c5f:	70 40 d2 81 03 92 0e 1c 10 4a 75 2a 51 56 a7 12     p@.......Ju*QV..
    1c6f:	e5 2a 51 ae 12 25 7a e0 40 99 03 07 ca 1c 38 50     .*Q..%z.@.....8P
    1c7f:	1f 5f 04 7b 28 19 0d f9 47 f9 40 c0 03 f2 0e 8c     ._.{(...G.@.....
    1c8f:	23 4a 95 ea d8 fd 2a 51 92 36 a9 9a 65 76 ff 2c     #J....*Q.6..ev.,
    1c9f:	55 66 a9 1e a0 77 60 e2 81 28 00 7c 0f 19 0d f9     Uf...w`..(.|....
    1caf:	07 32 76 ff ff ff ff ef 83 01 7d 27 19 0d f9 47     .2v.......}'...G
    1cbf:	f2 01 81 07 a6 92 25 bb 3f 4b 76 2c d9 a3 25 2f     ......%.?Kv,..%/
    1ccf:	52 9d ca ea d8 fd 55 a2 e5 0e cc 3b 20 f0 40 30     R.....U....; .@0
    1cdf:	00 7e 1e 19 0d f9 c7 5f a2 79 28 d0 01 31 63 68     .~....._.y(..1ch
    1cef:	d4 a0 42 e5 c0 1c 39 07 62 d2 c7 ff 7f 18 00 00     ..B...9.b.......
    1cff:	00 00 04 ff ff 00 00                                .......

00001d06 <u8g2_font_inr16_mr>:
    1d06:	5f 02 04 03 04 05 01 03 05 0e 15 00 fc 10 fc 11     _...............
    1d16:	fc 03 05 06 93 09 74 20 09 5e c3 3f fe ff 97 00     ......t .^.?....
    1d26:	21 0e 5e c3 9b ec 62 fd 7b 94 b3 eb 71 02 22 14     !.^...b.{...q.".
    1d36:	5e c3 93 88 a0 88 a0 88 a0 88 a0 88 a0 88 3c fe     ^.............<.
    1d46:	3f 02 23 28 5e c3 3f 8c 4c a0 4c a0 88 60 8c d4     ?.#(^.?.L.L..`..
    1d56:	01 cd 01 59 8c 60 4c a0 4c a0 4c d8 01 cd 01 55     ...Y.`L.L.L....U
    1d66:	8c 60 8c 60 8c 60 4c 3c 4e 00 24 26 5e c3 9b b0     .`.`.`L<N.$&^...
    1d76:	a8 9d 84 2a 11 91 28 11 41 11 c9 52 62 52 09 49     ...*..(.A..RbR.I
    1d86:	11 41 11 41 11 21 11 09 a9 03 b9 5a 61 79 44 00     .A.A.!.....ZayD.
    1d96:	25 27 5e c3 3f 04 91 4c 51 90 88 22 11 09 29 0b     %'^.?..LQ.."..).
    1da6:	31 0a 61 59 e1 60 89 c1 88 32 09 11 21 11 45 22     1.aY.`...2..!.E"
    1db6:	6a 84 88 84 e6 31 07 26 22 5e c3 3f cc 68 a1 8c     j....1.&"^.?.h..
    1dc6:	9c 8c 9c 8c a0 84 64 a9 68 a5 88 1a 25 32 42 44     ......d.h...%2BD
    1dd6:	52 8a a8 2c a6 68 e2 31 07 27 0b 5e c3 9b b0 de     R..,.h.1.'.^....
    1de6:	e3 ff 33 00 28 16 5e c3 a7 ec a8 ac ec ac b0 ac     ..3.(.^.........
    1df6:	b0 be 16 96 16 96 96 1e 96 01 29 15 5e c3 4f f0     ..........).^.O.
    1e06:	f4 b0 b4 62 d5 c2 7a 2b 2c 2b 3b ba 56 12 00 2a     ...b..z+,+;.V..*
    1e16:	1a 5e c3 3f 5e 08 47 47 8a 84 0c 1d 08 ce 46 84     .^.?^.GG......F.
    1e26:	4a 08 ca 88 49 c9 e3 31 00 2b 10 5e c3 3f 26 c2     J...I..1.+.^.?&.
    1e36:	1a 1e 0c 1d 0c 0a eb 1e 3f 2c 0e 5e c3 3f fe 9f     ........?,.^.?..
    1e46:	c9 d2 0e 0b a7 0e 04 2d 0e 5e c3 3f 7e 79 20 75     .......-.^.?~y u
    1e56:	20 8f ff 0e 00 2e 0c 5e c3 3f fe 9f cd ae c7 09      ......^.?......
    1e66:	00 2f 17 5e c3 6b b0 5a 61 59 61 59 61 59 61 e1     ./.^.k.ZaYaYaYa.
    1e76:	60 e1 60 b5 c2 f2 d8 01 30 27 5e c3 3f 0c a5 dd     `.`.....0'^.?...
    1e86:	8c 98 54 94 d4 90 10 91 50 84 90 4c 88 90 48 8c     ..T.....P..L..H.
    1e96:	90 84 8c 10 91 d0 94 22 31 21 39 4b 7a 9c 00 31     ......."1!9Kz..1
    1ea6:	0f 5e c3 3f 94 28 a5 84 b0 fe df e3 04 00 32 14     .^.?.(........2.
    1eb6:	5e c3 3f 0c e5 99 d0 b0 6e f5 b1 ec 81 d4 81 3c     ^.?.....n......<
    1ec6:	e6 00 33 17 5e c3 3f 4c e1 f1 b0 5a 49 52 6a c5     ..3.^.?L...ZIRj.
    1ed6:	9a 05 89 1d 04 d2 e3 04 00 34 1e 5e c3 3f 98 b0     .........4.^.?..
    1ee6:	ec 28 69 84 64 88 a0 88 60 8c 9c 8c 98 90 d8 c1     .(i.d...`.......
    1ef6:	d0 c1 a8 b0 f6 b8 00 35 1a 5e c3 3f c8 41 d8 41     .......5.^.?.A.A
    1f06:	98 b0 26 91 77 42 d2 c2 3a 92 12 3b 08 a4 c7 05     ..&.wB..:..;....
    1f16:	00 36 21 5e c3 3f 14 e1 99 b0 ac b0 4c a0 44 19     .6!^.?......L.D.
    1f26:	8d 94 d4 90 98 90 98 90 98 90 98 94 90 dc 21 3d     ..............!=
    1f36:	2e 00 37 17 5e c3 3f c4 81 d4 81 ac b0 70 b0 5a     ..7.^.?......p.Z
    1f46:	61 b5 c2 6a 85 d5 e3 08 00 38 24 5e c3 3f 10 a5     a..j.....8$^.?..
    1f56:	9d 90 98 90 98 90 d8 8c dc 84 e4 a8 88 9c 90 94     ................
    1f66:	98 90 98 90 98 d0 90 d8 41 20 3d 2e 00 39 20 5e     ........A =..9 ^
    1f76:	c3 3f 10 e1 9d 90 94 66 42 62 42 62 52 42 53 07     .?.....fBbBbRBS.
    1f86:	72 14 c2 c2 c1 62 41 53 07 81 f4 38 01 3a 0e 5e     r....bAS...8.:.^
    1f96:	c3 3f 9e cf ae c7 b3 d9 f5 38 01 3b 0f 5e c3 3f     .?.......8.;.^.?
    1fa6:	9e cf ae c7 57 b3 c3 8a 13 02 3c 13 5e c3 3f 42     ....W.....<.^.?B
    1fb6:	51 42 2e 67 a7 17 13 4f 4b c7 e3 2d 00 3d 12 5e     QB.g...OK..-.=.^
    1fc6:	c3 3f 6e 0f 86 0e e6 b1 38 18 3a 98 c7 5f 02 3e     .?n.....8.:.._.>
    1fd6:	11 5e c3 3f 6a 61 1e cf 4e ae a4 1c 95 c7 57 00     .^.?ja..N.....W.
    1fe6:	3f 15 5e c3 53 dd 41 98 90 58 98 b0 5a 1d ab 47     ?.^.S.A..X..Z..G
    1ff6:	3a bb 1e 27 00 40 27 5e c3 3f 10 e1 41 d4 90 94     :..'.@'^.?..A...
    2006:	98 8c 8c 8d c8 8d c4 8c 0a 21 19 09 21 19 89 91     .........!..!...
    2016:	19 91 23 99 10 21 69 e1 83 c0 7a 1c 41 22 5e c3     ..#..!i...z.A"^.
    2026:	3f 54 74 b0 f0 6c 44 a8 84 64 88 64 4c a0 8c 5c     ?Tt..lD..d.dL..\
    2036:	90 dc d9 81 94 22 39 19 39 19 39 79 ac 01 42 25     ....."9.9.9y..B%
    2046:	5e c3 ff 41 d8 81 94 d4 90 98 90 98 90 94 d4 81     ^..A............
    2056:	d4 41 98 94 32 21 31 21 31 21 31 21 a9 a1 03 a9     .A..2!1!1!1!....
    2066:	7b 9c 00 43 19 5e c3 3f 10 e1 41 d4 d0 90 98 8c     {..C.^.?..A.....
    2076:	b0 3e 1e 16 9e 92 3a 08 a4 c7 05 00 44 23 5e c3     .>....:.....D#^.
    2086:	3f 84 e1 41 98 d0 94 66 42 62 42 62 42 62 42 62     ?..A...fBbBbBbBb
    2096:	42 62 42 62 42 62 42 52 8a a6 0e c2 ec 71 02 45     BbBbBbBR.....q.E
    20a6:	19 5e c3 3f c4 c1 d0 c1 90 b0 8e 0f a4 0e a4 84     .^.?............
    20b6:	75 7c 30 74 30 8f 35 00 46 15 5e c3 3f c4 81 d4     u|0t0.5.F.^.?...
    20c6:	81 94 b0 c6 07 61 07 61 c2 fa 3d ce 00 47 1e 5e     .....a.a..=..G.^
    20d6:	c3 3f 10 e1 41 d4 d0 90 58 90 b0 8e 6a 84 6a e4     .?..A...X...j.j.
    20e6:	64 e4 84 c4 84 a6 a4 0e e4 ea 71 48 28 5e c3 3f     d.........qH(^.?
    20f6:	84 98 90 98 90 98 90 98 90 98 90 98 90 98 d0 c1     ................
    2106:	d0 c1 90 98 90 98 90 98 90 98 90 98 90 98 90 98     ................
    2116:	3c d6 00 49 12 5e c3 3f c4 41 d8 41 a4 b0 fe 97     <..I.^.?.A.A....
    2126:	07 61 07 f1 38 4a 11 5e c3 3f d0 dd a9 b0 fe b3     .a..8J.^.?......
    2136:	20 b9 c3 7a 9c 00 4b 23 5e c3 bf 98 90 94 22 31      ..z..K#^....."1
    2146:	19 39 91 39 11 41 09 c9 4a 43 11 41 19 39 21 31     .9.9.A..JC.A.9!1
    2156:	21 31 29 65 42 62 f3 58 03 4c 0f 5e c3 3f 84 b0     !1)eBb.X.L.^.?..
    2166:	fe 1f 1f 0c 1d cc 63 0d 4d 2b 5e c3 bf 9c 8c 9c     ......c.M+^.....
    2176:	cc d4 cc d4 0c 1b 89 98 08 19 09 6d 44 22 42 64     ...........mD"Bd
    2186:	44 46 64 64 62 d4 c9 c8 c9 c8 c9 c8 c9 c8 c9 c8     DFddb...........
    2196:	c9 63 0d 4e 2b 5e c3 bf 98 d0 94 d0 94 10 91 10     .c.N+^..........
    21a6:	91 0a 19 21 09 19 21 11 45 32 21 42 32 12 42 42     ...!..!.E2!B2.BB
    21b6:	11 42 42 44 52 43 52 43 62 42 62 f2 98 03 4f 22     .BBDRCRCbBb...O"
    21c6:	5e c3 3f 4c e1 99 94 46 72 32 72 32 72 32 72 32     ^.?L...Fr2r2r2r2
    21d6:	72 32 72 32 72 32 72 42 52 52 43 62 97 f4 b8 00     r2r2r2rBRRCb....
    21e6:	50 1d 5e c3 3f c4 41 d8 81 94 d4 90 98 90 98 90     P.^.?.A.........
    21f6:	98 90 d4 d0 81 d4 41 98 b0 be c7 19 00 51 26 5e     ......A......Q&^
    2206:	c3 3f 4c e1 99 94 46 72 32 72 32 72 32 72 32 72     .?L...Fr2r2r2r2r
    2216:	32 72 32 72 32 72 42 52 43 52 62 13 83 b5 c2 d2     2r2r2rBRCRb.....
    2226:	c4 32 00 52 25 5e c3 3f c4 41 d8 81 94 d4 90 98     .2.R%^.?.A......
    2236:	90 98 90 98 90 d4 d0 81 d4 41 98 8c 9c 90 98 90     .........A......
    2246:	98 94 ce 84 c4 e4 b1 06 53 1a 5e c3 3f 4c e1 41     ........S.^.?L.A
    2256:	94 c6 c2 8b 8b a7 15 0b c5 09 49 49 1d c8 d5 e3     ..........II....
    2266:	02 00 54 0f 5e c3 ff 01 cd 01 9d b0 fe df e3 06     ..T.^...........
    2276:	00 55 26 5e c3 bf 98 90 98 90 98 90 98 90 98 90     .U&^............
    2286:	98 90 98 90 98 90 98 90 98 90 98 90 98 90 98 94     ................
    2296:	90 d8 41 20 3d 4e 00 56 21 5e c3 bf 9c 8c 9c 90     ..A =N.V!^......
    22a6:	98 90 58 94 32 21 31 a1 38 19 41 11 41 91 48 09     ..X.2!1.8.A.A.H.
    22b6:	51 d2 d9 61 e1 78 dc 00 57 2f 5e c3 7f a4 88 4c     Q..a.x..W/^....L
    22c6:	50 8c 9a 18 35 31 6a 82 42 46 84 42 22 14 49 44     P...51j.BF.B".ID
    22d6:	48 44 49 44 48 44 91 44 44 cd 4c cd 8c 09 89 09     HDIDHD.DD.L.....
    22e6:	89 45 c5 45 c5 e3 00 58 21 5e c3 3f 84 58 94 32     .E.E...X!^.?.X.2
    22f6:	a1 38 19 41 09 49 09 d1 d9 b5 94 12 92 22 72 32     .8.A.I......."r2
    2306:	72 42 52 aa e2 e4 b1 06 59 19 5e c3 bf 9c 90 98     rBR.....Y.^.....
    2316:	90 94 98 90 98 8c a0 88 a0 48 28 e9 b0 7e 8f 13     .........H(..~..
    2326:	00 5a 1b 5e c3 ff c1 d0 c1 ac b0 ac 70 b0 ac b0     .Z.^........p...
    2336:	ac 70 b0 ac b0 ec 01 cd 01 3d d6 00 5b 12 5e c3     .p.......=..[.^.
    2346:	d3 41 d8 41 98 b0 fe 7f 7c 10 76 10 0f 01 5c 18     .A.A....|.v...\.
    2356:	5e c3 8b b0 b4 b0 74 b4 b0 b4 b0 b4 b0 b4 b0 b4     ^.....t.........
    2366:	b0 b4 b0 74 3c 06 5d 12 5e c3 cb 41 d8 41 b0 fe     ...t<.].^..A.A..
    2376:	ff ec 20 ec 20 1e 06 00 5e 14 5e c3 3f 54 b4 ec     .. . ...^.^.?T..
    2386:	a8 84 a4 48 a0 8c 5c 54 3c fe cf 00 5f 0d 5e c3     ...H..\T<..._.^.
    2396:	3f fe 7f 7e 40 73 40 8f 00 60 11 5e c3 3f 92 e8     ?..~@s@..`.^.?..
    23a6:	68 61 69 61 e9 68 79 fc a7 00 61 1a 5e c3 3f ce     haia.hy...a.^.?.
    23b6:	eb 0e 82 87 d5 5d 1d 08 89 09 89 09 49 4d 1d 88     .....]......IM..
    23c6:	91 c8 63 0e 62 21 5e c3 8b b0 5e d0 1d 48 0d 49     ..c.b!^...^..H.I
    23d6:	89 09 89 09 89 09 89 09 89 09 89 09 0d 49 1d 84     .............I..
    23e6:	85 d0 e3 02 00 63 14 5e c3 3f ee 0b 0f a2 14 09     .....c.^.?......
    23f6:	eb 78 58 2a ee 20 ae 1e 07 64 21 5e c3 a7 b0 ee     .xX*. ...d!^....
    2406:	28 a4 0e a4 84 86 c4 84 c4 84 c4 84 c4 84 c4 84     (...............
    2416:	c4 a4 84 a6 0e e4 46 e4 31 07 65 1a 5e c3 3f ce     ......F.1.e.^.?.
    2426:	0b cf a4 84 c4 84 0e 86 0e 86 84 55 4b c5 1d c4     ...........UK...
    2436:	d5 e3 02 00 66 14 5e c3 1f e1 d9 50 98 b0 d2 83     ....f.^....P....
    2446:	b0 83 40 61 fd 3d 8e 00 67 1f 5e c3 3f ae 4b 84     ..@a.=..g.^.?.K.
    2456:	0e 66 a4 f4 4c 66 ce 4e 58 d8 f2 20 2a 4e 46 4e     .f..Lf.NX.. *NFN
    2466:	46 4e e6 60 cc 0a 00 68 12 5e c3 8b b0 9e cc 49     FN.`...h.^.....I
    2476:	94 0d 49 e9 ff bf c7 1c 00 69 10 5e c3 9b ec 70     ..I......i.^...p
    2486:	3c c2 ca 62 fd e5 dd 3d 0e 6a 12 5e c3 9f f0 70     <..b...=.j.^...p
    2496:	3c 32 43 63 fd ef 82 c4 0e eb 00 6b 1d 5e c3 8b     <2Cc.......k.^..
    24a6:	b0 5e 29 12 93 91 13 11 94 90 ac 9c 10 94 91 93     .^).............
    24b6:	19 13 9a d2 4c 1e 6b 00 6c 0f 5e c3 4b 65 b1 fe     ....L.k.l.^.Ke..
    24c6:	5f 1e 48 1d c8 63 0e 6d 23 5e c3 3f 6e 25 46 66     _.H..c.m#^.?n%Ff
    24d6:	0e 4a 64 94 c8 28 91 51 22 a3 44 46 89 8c 12 19     .Jd..(.Q".DF....
    24e6:	25 32 4a 64 94 c8 a8 c7 18 00 6e 11 5e c3 3f 8e     %2Jd......n.^.?.
    24f6:	45 e6 24 ca 86 a4 f4 ff df 63 0e 6f 1c 5e c3 3f     E.$......c.o.^.?
    2506:	ce 0b cf a4 84 c4 84 e4 64 e4 64 e4 64 e4 64 c4     ........d.d.d.d.
    2516:	a4 94 1d d6 e3 02 00 70 21 5e c3 3f 8e 45 e6 0e     .......p!^.?.E..
    2526:	a4 86 a4 c4 84 c4 84 c4 84 c4 84 c4 84 c4 84 86     ................
    2536:	a4 0e a4 24 e8 84 35 05 71 20 5e c3 3f ce 29 a4     ...$..5.q ^.?.).
    2546:	0e a4 84 86 c4 84 c4 84 c4 84 c4 84 c4 84 c4 a4     ................
    2556:	84 c6 0e e2 46 84 75 03 72 12 5e c3 3f ae 45 c8     ....F.u.r.^.?.E.
    2566:	24 ac 88 a2 66 85 f5 7b 5c 01 73 17 5e c3 3f ce     $...f..{\.s.^.?.
    2576:	0b cf a4 14 4f 13 13 0f 4b 85 49 1d c4 d9 e3 02     ....O...K.I.....
    2586:	00 74 13 5e c3 3f 12 61 a5 07 61 07 81 c2 fa 51     .t.^.?.a..a....Q
    2596:	a0 25 3d 0e 75 1f 5e c3 3f 8e c5 84 c4 84 c4 84     .%=.u.^.?.......
    25a6:	c4 84 c4 84 c4 84 c4 84 c4 84 c4 84 56 1d 88 91     ............V...
    25b6:	c8 63 0d 76 1d 5e c3 3f 6e e5 84 c4 a2 c4 52 89     .c.v.^.?n.....R.
    25c6:	09 c5 c9 08 8a 08 8a 44 4a 88 ce 0e c7 e3 06 00     .......DJ.......
    25d6:	77 29 5e c3 3f 6e 05 45 64 64 62 d4 04 c5 c8 04     w)^.?n.Eddb.....
    25e6:	c5 c8 04 49 90 04 49 44 28 92 08 89 10 92 08 19     ...I..ID(.......
    25f6:	93 19 13 12 13 92 c7 1c 00 78 1c 5e c3 3f 8e a5     .........x.^.?..
    2606:	c4 64 e4 64 04 25 44 67 97 4a 48 4a 08 ca 88 49     .d.d.%Dg.JHJ...I
    2616:	a9 9a c7 1a 00 79 1e 5e c3 3f 8e c5 84 c4 84 a4     .....y.^.?......
    2626:	c4 84 c4 84 02 45 04 45 04 45 42 d9 0a 0b 07 0b     .....E.E.EB.....
    2636:	56 52 02 7a 15 5e c3 3f 8e 0f a4 0e 64 b5 9d d5     VR.z.^.?....d...
    2646:	76 f4 60 e8 60 1e 73 00 7b 13 5e c3 3f 18 65 a1     v.`.`.s.{.^.?.e.
    2656:	b0 8e 43 49 a7 15 eb eb 52 1a 00 7c 0a 5e c3 9b     ..CI....R..|.^..
    2666:	b0 fe ff cf 00 7d 14 5e c3 3f 44 a5 b5 b0 5e d3     .....}.^.?D...^.
    2676:	8e ca 0a eb ed 9c 61 1d 00 7e 10 5e c3 3f ce 63     ......a..~.^.?.c
    2686:	8b 62 64 8c 82 e8 f1 3f 03 00 00 00 04 ff ff 00     .bd....?........
	...

00002697 <u8g2_font_6x12_mr>:
    2697:	5f 02 03 02 03 04 01 02 04 06 0c 00 fe 07 fe 08     _...............
    26a7:	ff 01 7b 03 16 04 8b 20 07 e6 f8 f9 4f 00 21 0a     ..{.... ....O.!.
    26b7:	e6 f8 c9 69 77 30 a7 00 22 0c e6 f8 e1 24 4b b2     ...iw0.."....$K.
    26c7:	24 e7 13 00 23 0f e6 f8 19 93 68 90 92 2c 89 06     $...#.....h..,..
    26d7:	29 c9 09 24 0e e6 f8 f1 70 4a 3a 8e 49 a7 31 87     )..$....pJ:.I.1.
    26e7:	00 25 0d e6 f8 89 52 22 85 9d 94 48 87 01 26 0e     .%....R"...H..&.
    26f7:	e6 f8 a9 61 92 25 61 a5 29 53 72 18 27 09 e6 f8     ...a.%a.)Sr.'...
    2707:	f1 b4 ce 37 00 28 0d e6 f8 29 61 1a a6 e5 34 ce     ...7.(...)a...4.
    2717:	11 00 29 0c e6 f8 e1 6a 9c 16 d3 30 c7 00 2a 0e     ..)....j...0..*.
    2727:	e6 f8 c9 59 52 1a c3 29 a9 e5 14 00 2b 0a e6 f8     ...YR..)....+...
    2737:	59 6b 83 96 e6 0c 2c 09 e6 f8 f9 2e 6a 3a 06 2d     Yk....,.....j:.-
    2747:	09 e6 f8 79 19 74 6e 00 2e 09 e6 f8 f9 2e ea 14     ...y.tn.........
    2757:	00 2f 0b e6 f8 59 c2 34 ac 86 39 0d 30 0a e6 f8     ./...Y.4..9.0...
    2767:	c9 5a d4 bf e9 04 31 09 e6 f8 c9 a1 da 71 27 32     .Z....1......q'2
    2777:	0c e6 f8 a9 53 96 86 8d 83 0e 03 33 0d e6 f8 89     ....S......3....
    2787:	83 1a 86 72 92 45 3b 01 34 0d e6 f8 e9 a1 96 44     ...r.E;.4......D
    2797:	a5 41 4c 73 02 35 0d e6 f8 89 83 92 0e 71 9a 64     .ALs.5.......q.d
    27a7:	d1 4e 36 0d e6 f8 c9 5a 98 0e 51 96 64 d1 4e 37     .N6....Z..Q.d.N7
    27b7:	0c e6 f8 89 83 1a a6 61 5a a7 00 38 0e e6 f8 a9     .......aZ..8....
    27c7:	53 96 64 d1 94 25 59 b4 13 39 0e e6 f8 a9 53 96     S.d..%Y..9....S.
    27d7:	64 d1 90 86 99 4e 01 3a 0b e6 f8 b9 89 3a 26 ea     d....N.:.....:&.
    27e7:	14 00 3b 0b e6 f8 b9 89 3a 26 6a 3a 06 3c 09 e6     ..;.....:&j:.<..
    27f7:	f8 99 c3 72 9d 0c 3d 0a e6 f8 39 0d fa a0 33 02     ...r..=...9...3.
    2807:	3e 09 e6 f8 19 e3 62 9d 05 3f 0c e6 f8 a9 53 16     >.....b..?....S.
    2817:	56 73 30 a7 00 40 0d e6 f8 a9 53 96 24 4b 97 25     Vs0..@....S.$K.%
    2827:	de 09 41 10 e6 f8 a9 53 96 64 c9 a0 64 49 96 64     ..A....S.d..dI.d
    2837:	39 0c 42 0d e6 f8 89 43 16 35 6d 51 cb 90 13 43     9.B....C.5mQ...C
    2847:	0b e6 f8 a9 53 96 a4 6d d1 4e 44 0b e6 f8 89 43     ....S..m.ND....C
    2857:	16 f5 2f 43 4e 45 0e e6 f8 89 83 92 a6 43 94 a6     ../CNE.......C..
    2867:	83 0e 03 46 0d e6 f8 89 83 92 a6 43 94 d6 69 00     ...F.......C..i.
    2877:	47 0d e6 f8 a9 53 96 a4 25 25 8b 76 02 48 11 e6     G....S..%%.v.H..
    2887:	f8 89 59 92 25 59 32 28 59 92 25 59 0e 03 49 09     ..Y.%Y2(Y.%Y..I.
    2897:	e6 f8 a9 63 da 71 27 4a 0b e6 f8 c9 63 da 54 d3     ...c.q'J....c.T.
    28a7:	29 00 4b 0f e6 f8 89 59 12 55 32 31 c9 a2 5a 0e     ).K....Y.U21..Z.
    28b7:	03 4c 0a e6 f8 89 69 af 83 0e 03 4d 0f e6 f8 89     .L....i....M....
    28c7:	59 62 e9 96 64 49 96 64 39 0c 4e 10 e6 f8 89 59     Yb..dI.d9.N....Y
    28d7:	92 25 52 d2 49 c9 92 2c 87 01 4f 0f e6 f8 a9 53     .%R.I..,..O....S
    28e7:	96 64 49 96 64 49 16 ed 04 50 0e e6 f8 89 43 94     .dI.dI...P....C.
    28f7:	25 59 32 44 69 9d 06 51 0f e6 f8 a9 53 96 64 49     %Y2Di..Q....S.dI
    2907:	96 74 ca 94 1c 06 52 10 e6 f8 89 43 94 25 59 32     .t....R....C.%Y2
    2917:	44 49 16 d5 72 18 53 0d e6 f8 a9 53 96 c4 73 92     DI..r.S....S..s.
    2927:	45 3b 01 54 0a e6 f8 89 83 96 f6 4e 01 55 10 e6     E;.T.......N.U..
    2937:	f8 89 59 92 25 59 92 25 59 92 45 3b 01 56 10 e6     ..Y.%Y.%Y.E;.V..
    2947:	f8 89 59 92 25 59 92 45 49 96 84 39 05 57 0f e6     ..Y.%Y.EI..9.W..
    2957:	f8 89 59 92 25 59 92 25 7d 4a 72 02 58 10 e6 f8     ..Y.%Y.%}Jr.X...
    2967:	89 59 92 45 49 58 89 b2 24 cb 61 00 59 0d e6 f8     .Y.EIX..$.a.Y...
    2977:	89 59 92 45 49 98 b6 53 00 5a 0b e6 f8 89 83 1a     .Y.EI..S.Z......
    2987:	76 1d 74 18 5b 0a e6 f8 e1 2d ed eb 8e 00 5c 0b     v.t.[....-....\.
    2997:	e6 f8 89 71 1a 57 e3 1c 06 5d 09 e6 f8 e1 b5 df     ...q.W...]......
    29a7:	76 04 5e 0b e6 f8 f1 30 89 b2 9c 2f 00 5f 08 e6     v.^....0.../._..
    29b7:	f8 f9 b7 41 01 60 08 e6 f8 e1 76 3e 01 61 0d e6     ...A.`....v>.a..
    29c7:	f8 b9 cd d1 90 64 d1 90 c3 00 62 0f e6 f8 89 69     .....d....b....i
    29d7:	3a 44 59 92 25 59 32 e4 04 63 0b e6 f8 b9 4d 59     :DY.%Y2..c....MY
    29e7:	92 66 d1 4e 64 10 e6 f8 59 d2 68 48 b2 24 4b b2     .f.Nd...Y.hH.$K.
    29f7:	68 c8 61 00 65 0b e6 f8 b9 4d 59 32 44 f1 4e 66     h.a.e....MY2D.Nf
    2a07:	0b e6 f8 c9 5a 54 1c d3 3a 09 67 0e e6 f8 b9 4d     ....ZT..:.g....M
    2a17:	59 92 25 59 34 a4 d1 04 68 10 e6 f8 89 69 3a 44     Y.%Y4...h....i:D
    2a27:	59 92 25 59 92 e5 30 00 69 0a e6 f8 c9 39 a6 36     Y.%Y..0.i....9.6
    2a37:	ee 04 6a 0b e6 f8 59 72 4c ed 54 93 00 6b 0e e6     ..j...YrL.T..k..
    2a47:	f8 89 69 2d 89 a2 2d aa e5 30 00 6c 09 e6 f8 a9     ..i-..-..0.l....
    2a57:	6a 8f 3b 01 6d 0b e6 f8 39 29 51 d2 ff 0e 03 6e     j.;.m...9)Q....n
    2a67:	0e e6 f8 39 25 92 94 64 49 96 64 39 0c 6f 0c e6     ...9%..dI.d9.o..
    2a77:	f8 b9 4d 59 92 25 59 b4 13 70 0f e6 f8 39 0d 51     ..MY.%Y..p...9.Q
    2a87:	96 64 49 96 0c 51 9a 02 71 0e e6 f8 b9 0d 49 96     .dI..Q..q.....I.
    2a97:	64 49 16 0d 69 05 72 0c e6 f8 39 25 92 94 a4 75     dI..i.r...9%...u
    2aa7:	1a 00 73 0b e6 f8 b9 0d 49 3c 27 43 4e 74 0c e6     ..s.....I<'CNt..
    2ab7:	f8 c9 69 36 68 69 59 87 01 75 0e e6 f8 39 65 49     ..i6hiY..u...9eI
    2ac7:	96 64 49 64 c9 61 00 76 0e e6 f8 39 65 49 96 64     .dId.a.v...9eI.d
    2ad7:	51 12 e6 14 00 77 0c e6 f8 39 65 49 96 f4 29 c9     Q....w...9eI..).
    2ae7:	09 78 0d e6 f8 39 65 51 12 56 a2 2c 87 01 79 0d     .x...9eQ.V.,..y.
    2af7:	e6 f8 39 65 49 96 64 51 12 b6 02 7a 0b e6 f8 39     ..9eI.dQ...z...9
    2b07:	0d 62 e3 a0 c3 00 7b 0c e6 f8 29 61 5a 8c d3 72     .b....{...)aZ..r
    2b17:	8e 00 7c 09 e6 f8 f1 b4 bf 43 00 7d 0b e6 f8 e1     ..|......C.}....
    2b27:	6a 39 4c 8b 39 06 7e 0a e6 f8 b9 45 49 a7 9c 15     j9L.9.~....EI...
    2b37:	00 00 00 04 ff ff 00 00                             ........

00002b3f <u8g2_font_9x15_m_symbols>:
    2b3f:	cf 02 04 03 04 04 01 03 05 09 0f 00 fd 0a fd 0b     ................
    2b4f:	ff 02 21 04 7d 0e 18 20 07 f9 93 1f ff 00 21 0c     ..!.}.. ......!.
    2b5f:	f9 93 3b 30 df c3 06 c6 a3 00 22 0e f9 93 1f 2c     ..;0......"....,
    2b6f:	24 2a 24 2a 24 1e 9f 00 23 16 f9 93 1f 3c 24 2a     $*$*$...#....<$*
    2b7f:	24 c8 28 24 2a 24 c8 28 24 2a 24 1e 25 00 24 15     $.($*$.($*$.%.$.
    2b8f:	f9 93 1f 2e ac 26 24 67 11 71 73 11 61 21 b9 29     .....&$g.qs.a!.)
    2b9f:	8b 87 03 25 1e f9 93 1f 2a 28 24 22 24 26 22 24     ...%....*($"$&"$
    2baf:	28 24 2e 30 2e 24 28 24 22 26 24 22 24 28 1e 1c     ($.0.$($"&$"$(..
    2bbf:	00 26 1a f9 93 1f 4a 2c 24 2a 24 2a 24 4c 4e 26     .&....J,$*$*$LN&
    2bcf:	24 45 4c a2 90 88 20 99 78 68 00 27 0a f9 93 1f     $EL... .xh.'....
    2bdf:	2e 30 3d 3e 02 28 0f f9 93 3d 2e 30 2e 30 2f 03     .0=>.(...=.0.0/.
    2bef:	23 e3 c1 00 29 0f f9 93 39 32 30 32 30 ef 02 e3     #...)...92020...
    2bff:	e2 01 01 2a 13 f9 93 1f 2e 2a 24 4d 44 aa a9 88     ...*.....*$MD...
    2c0f:	34 21 a9 e2 b1 06 2b 0d f9 93 1f 69 60 aa ab c0     4!....+....i`...
    2c1f:	f4 48 01 2c 0b f9 93 1f 1f c9 09 a6 0b 02 2d 09     .H.,..........-.
    2c2f:	f9 93 1f 47 f7 38 02 2e 09 f9 93 1f 1f c9 c9 23     ...G.8.........#
    2c3f:	2f 10 f9 93 1f 34 2e 30 2e 61 5c c2 b8 78 44 00     /....4.0.a\..xD.
    2c4f:	30 17 f9 93 1f 6c 2a 26 55 48 54 48 54 48 54 48     0....l*&UHTHTHTH
    2c5f:	54 48 54 4c aa 79 04 31 10 f9 93 1f 2e 4e 2c 22     THTL.y.1.....N,"
    2c6f:	2a 24 30 af ee a1 01 32 0f f9 93 1f aa 26 2a 24     *$0....2.....&*$
    2c7f:	2a 2e 1f de 43 03 33 11 f9 93 1f e8 30 2e dd 64     *...C.3.....0..d
    2c8f:	60 92 a8 98 7a 70 00 34 14 f9 93 1f 32 4e 2c 22     `...zp.4....2N,"
    2c9f:	2a 24 28 26 51 cc 5d 60 7a 70 00 35 12 f9 93 1f     *$(&Q.]`zp.5....
    2caf:	e8 24 30 05 8d 50 60 26 51 31 f5 e0 00 36 16 f9     .$0..P`&Q1...6..
    2cbf:	93 1f 8c 28 2e 30 05 8d 50 48 54 48 54 48 54 4c     ...(.0..PHTHTHTL
    2ccf:	3d 38 00 37 12 f9 93 1f e8 30 2e 30 2e 30 2e 30     =8.7.....0.0.0.0
    2cdf:	2e 30 1e 09 00 38 14 f9 93 1f 6c 2a 26 55 4c aa     .0...8....l*&UL.
    2cef:	a9 98 54 21 51 31 a9 e6 11 39 15 f9 93 1f aa 26     ..T!Q1...9.....&
    2cff:	2a 24 2a 24 2a 24 48 86 22 30 5d 10 3d 02 3a 0c     *$*$*$H."0].=.:.
    2d0f:	f9 93 1f 23 39 79 44 72 f2 08 3b 0e f9 93 1f 23     ...#9yDr..;....#
    2d1f:	39 79 44 72 82 e9 82 00 3c 0c f9 93 1f 32 2e 87     9yDr....<....2..
    2d2f:	91 b9 07 07 3d 0b f9 93 1f d3 7b a8 7b 2c 00 3e     ....=.....{.{,.>
    2d3f:	0c f9 93 1f 2a 32 87 71 b9 47 03 3f 12 f9 93 1f     ....*2.q.G.?....
    2d4f:	aa 26 2a 24 2a 30 2e c3 78 90 78 14 00 40 1b f9     .&*$*0..x.x..@..
    2d5f:	93 1f aa 26 2a 24 2a 24 84 24 22 26 24 22 44 24     ...&*$*$.$"&$"D$
    2d6f:	44 22 24 30 b2 1e 1c 00 41 18 f9 93 1f 2e 45 54     D"$0....A.....ET
    2d7f:	4c aa 90 a8 90 a8 90 93 a8 90 a8 90 a8 78 68 00     L............xh.
    2d8f:	42 16 f9 93 1f a8 28 4d 54 48 50 4c 51 9a a8 90     B.....(MTHPLQ...
    2d9f:	a8 90 a0 98 7a 04 43 0f f9 93 1f aa 26 2a 24 30     ....z.C.....&*$0
    2daf:	5f c5 d4 83 03 44 18 f9 93 1f a8 28 4d 54 48 54     _....D.....(MTHT
    2dbf:	48 54 48 54 48 54 48 54 48 50 4c 3d 02 45 0f f9     HTHTHTHTHPL=.E..
    2dcf:	93 1f e8 24 30 61 51 60 86 f7 d0 00 46 0e f9 93     ...$0aQ`....F...
    2ddf:	1f e8 24 30 61 51 60 ee 11 01 47 15 f9 93 1f aa     ..$0aQ`...G.....
    2def:	26 2a 24 30 9b 91 a8 90 a8 90 a8 98 7a 70 00 48     &*$0........zp.H
    2dff:	1b f9 93 1f 28 2a 24 2a 24 2a 24 2a e4 24 2a 24     ....(*$*$*$*.$*$
    2e0f:	2a 24 2a 24 2a 24 2a 1e 1a 00 49 0c f9 93 1f aa     *$*$*$*...I.....
    2e1f:	2c 30 3f ab 07 07 4a 0d f9 93 1f ae 2c 30 df 04     ,0?...J.....,0..
    2e2f:	05 d1 23 4b 19 f9 93 1f 28 2a 24 28 26 51 48 d4     ..#K....(*$(&QH.
    2e3f:	58 44 58 48 54 4c 50 9a a8 78 68 00 4c 0b f9 93     XDXHTLP..xh.L...
    2e4f:	1f 28 30 7f 78 0f 0d 4d 19 f9 93 1f 28 2a 24 2a     .(0.x..M....(*$*
    2e5f:	44 46 24 22 93 88 4c f2 ab 90 a8 90 a8 78 68 00     DF$"..L......xh.
    2e6f:	4e 1c f9 93 1f 28 2a 24 2a 44 28 24 22 26 24 37     N....(*$*D($"&$7
    2e7f:	11 21 41 22 51 21 51 21 51 f1 d0 00 4f 1a f9 93     .!A"Q!Q!Q...O...
    2e8f:	1f aa 26 2a 24 2a 24 2a 24 2a 24 2a 24 2a 24 2a     ..&*$*$*$*$*$*$*
    2e9f:	24 2a a6 1e 1c 00 50 12 f9 93 1f c8 26 2a 24 2a     $*....P.....&*$*
    2eaf:	24 2a c4 26 30 f7 88 00 51 1b f9 93 1f aa 26 2a     $*.&0...Q.....&*
    2ebf:	24 2a 24 2a 24 2a 24 2a 24 2a 24 22 26 24 9b ba     $*$*$*$*$*$"&$..
    2ecf:	48 51 00 52 19 f9 93 1f c8 26 2a 24 2a 24 2a c4     HQ.R.....&*$*$*.
    2edf:	26 24 2a 26 28 4d 54 48 54 3c 34 00 53 16 f9 93     &$*&(MTHT<4.S...
    2eef:	1f aa 26 2a 24 2a 24 72 52 32 24 2a 24 2a a6 1e     ..&*$*$rR2$*$*..
    2eff:	1c 00 54 0c f9 93 1f e8 2a 30 7f 8f 02 00 55 1b     ..T.....*0....U.
    2f0f:	f9 93 1f 28 2a 24 2a 24 2a 24 2a 24 2a 24 2a 24     ...(*$*$*$*$*$*$
    2f1f:	2a 24 2a 24 2a a6 1e 1c 00 56 1a f9 93 1f 28 2a     *$*$*....V....(*
    2f2f:	24 2a 24 2a 26 51 4c 50 4c 54 44 58 44 58 44 5c     $*$*&QLPLTDXDXD\
    2f3f:	3c 0a 00 57 14 f9 93 1f 28 2a 24 2a 24 2a 24 2a     <..W....(*$*$*$*
    2f4f:	24 ff 2f b2 49 0f 0e 58 18 f9 93 1f 28 2a 24 2a     $./.I..X....(*$*
    2f5f:	26 55 44 5c 60 5c 44 54 4c aa 90 a8 78 68 00 59     &UD\`\DTL...xh.Y
    2f6f:	11 f9 93 1f 28 2a 24 2a 26 55 44 5c 60 de a3 00     ....(*$*&UD\`...
    2f7f:	5a 0d f9 93 1f e8 30 2e 1f 06 de 43 03 5b 0c f9     Z.....0....C.[..
    2f8f:	93 99 2a 30 ff 90 1e 0a 00 5c 10 f9 93 1f 28 32     ..*0.....\....(2
    2f9f:	30 32 61 64 c2 c8 78 68 00 5d 0b f9 93 97 30 ff     02ad..xh.]....0.
    2faf:	15 3d 18 00 5e 0d f9 93 1f 2e 45 54 4c aa 78 bc     .=..^.....ETL.x.
    2fbf:	03 5f 0a f9 93 1f bf 39 88 07 02 60 09 f9 93 39     ._.....9...`...9
    2fcf:	32 3d 3e 06 61 12 f9 93 1f 93 ca c0 18 93 a8 90     2=>.a...........
    2fdf:	20 19 8a 78 68 00 62 17 f9 93 1f 28 30 0b 1a a1      ..xh.b....(0...
    2fef:	90 a8 90 a8 90 a8 10 a1 90 08 7a 70 00 63 0f f9     ..........zp.c..
    2fff:	93 1f 93 9a a8 90 c0 ac 62 ea c1 01 64 18 f9 93     ........b...d...
    300f:	1f 34 30 0d 45 48 90 48 54 48 54 48 54 48 90 0c     .40.EH.HTHTHTH..
    301f:	45 3c 34 00 65 11 f9 93 1f 93 9a a8 90 a8 90 93     E<4.e...........
    302f:	c0 c8 7a 70 00 66 12 f9 93 1f 6e 2a 26 28 26 28     ..zp.f....n*&(&(
    303f:	30 ac 2c 30 7b 24 00 67 17 f9 93 1f 13 8a 90 a0     0.,0{$.g........
    304f:	98 a0 98 a0 20 a2 c8 9a a8 90 a8 98 12 00 68 17     .... .........h.
    305f:	f9 93 1f 28 30 0b 1a a1 90 a8 90 a8 90 a8 90 a8     ...(0...........
    306f:	90 a8 78 68 00 69 0d f9 93 1f 4c 1e 72 30 cf ea     ..xh.i....L.r0..
    307f:	c1 01 6a 12 f9 93 1f 50 1e 72 30 6f 82 62 82 62     ..j....P.r0o.b.b
    308f:	82 82 68 00 6b 16 f9 93 1f 28 30 ab 90 18 99 08     ..h.k....(0.....
    309f:	29 b9 08 a9 18 99 a8 78 68 00 6c 0b f9 93 1f 6a     )......xh.l....j
    30af:	30 7f 56 0f 0e 6d 0f f9 93 1f 8b 09 99 90 fc ff     0.V..m..........
    30bf:	2a 1e 1a 00 6e 16 f9 93 1f 8b 08 1a a1 90 a8 90     *...n...........
    30cf:	a8 90 a8 90 a8 90 a8 78 68 00 6f 14 f9 93 1f 93     .......xh.o.....
    30df:	9a a8 90 a8 90 a8 90 a8 90 a8 98 7a 70 00 70 17     ...........zp.p.
    30ef:	f9 93 1f 8b 08 1a a1 90 a8 90 a8 90 a8 10 a1 90     ................
    30ff:	08 9a c0 74 00 71 16 f9 93 1f 13 8a 90 20 91 a8     ...t.q....... ..
    310f:	90 a8 90 a8 90 20 19 8a c0 2c 00 72 0f f9 93 1f     ..... ...,.r....
    311f:	8b 90 21 99 44 31 81 d9 a3 01 73 11 f9 93 1f 93     ..!.D1....s.....
    312f:	9a a8 90 c8 ca 90 a8 98 7a 70 00 74 0f f9 93 1f     ........zp.t....
    313f:	3e 30 cc 2a 30 37 51 f3 e0 00 75 16 f9 93 1f 8b     >0.*07Q...u.....
    314f:	a0 98 a0 98 a0 98 a0 98 a0 98 a0 20 8a 78 68 00     ........... .xh.
    315f:	76 14 f9 93 1f 8b a8 90 a8 98 44 31 51 11 61 11     v.........D1Q.a.
    316f:	71 f1 28 00 77 10 f9 93 1f 8b a8 90 a8 90 fc 17     q.(.w...........
    317f:	d9 a4 07 07 78 12 f9 93 1f 8b a8 98 54 11 71 29     ....x.......T.q)
    318f:	a2 62 52 c5 43 03 79 19 f9 93 1f 8b a0 98 a0 98     .bR.C.y.........
    319f:	a0 98 a0 98 a0 98 18 a1 89 c0 98 a0 20 1a 00 7a     ............ ..z
    31af:	0b f9 93 1f 8b bb bc bb 87 06 7b 11 f9 93 7d 2a     ..........{...}*
    31bf:	30 65 98 9c 64 5c 60 ca 79 20 00 7c 0a f9 93 3b     0e..d\`.y .|...;
    31cf:	30 ff 7b 38 00 7d 11 f9 93 75 32 30 5d a4 9c 58     0.{8.}...u20]..X
    31df:	64 60 aa 79 40 00 7e 0d f9 93 1f 4a 26 24 37 f2     d`.y@.~....J&$7.
    31ef:	f8 04 00 a0 07 f9 93 1f ff 00 a1 0c f9 93 3b 30     ..............;0
    31ff:	1e 36 30 df a3 00 a2 16 f9 93 1f 6d 14 51 48 44     .60........m.QHD
    320f:	4c 48 54 44 58 44 48 10 55 3c 1a 00 a3 15 f9 93     LHTDXDH.U<......
    321f:	1f 6e 2a 26 28 30 ac 2c 30 4e 2c 22 26 c5 3c 38     .n*&(0.,0N,"&.<8
    322f:	00 a4 12 f9 93 1f 3a 2a a6 28 26 28 26 a8 26 2a     ......:*.(&(&.&*
    323f:	1e 53 00 a5 14 f9 93 1f 28 2a 24 2a 26 55 44 54     .S......(*$*&UDT
    324f:	59 58 59 60 7a 14 00 a6 0d f9 93 1f 2e 30 f7 20     YXY`z........0. 
    325f:	81 b9 87 03 a7 18 f9 93 1f 4c 2c 24 2a 52 2c 24     .........L,$*R,$
    326f:	2a 24 2a 24 4c 32 2a 24 4c 1e 0e 00 a8 0b f9 93     *$*$L2*$L.......
    327f:	37 26 28 26 1e bf 02 a9 19 f9 93 1f 8a 28 49 88     7&(&.........(I.
    328f:	48 44 92 88 8c 22 92 44 24 11 49 14 44 8f 12 00     HD...".D$.I.D...
    329f:	aa 10 f9 93 1f 4a 2c 24 6c 2a 24 8c ba 1e 63 00     .....J,$l*$...c.
    32af:	ab 18 f9 93 1f 45 48 50 48 50 48 50 48 54 48 58     .....EHPHPHPHTHX
    32bf:	48 58 48 58 48 3c 3a 00 ac 0a f9 93 1f 53 c3 ec     HXHXH<:......S..
    32cf:	31 01 ad 09 f9 93 1f 57 f5 b8 02 ae 1a f9 93 1f     1......W........
    32df:	8a 28 49 c4 48 44 92 88 14 23 11 99 44 24 89 08     .(I.HD...#..D$..
    32ef:	09 0a a2 47 09 af 09 f9 93 1f c8 1e bf 02 b0 0e     ...G............
    32ff:	f9 93 1f 4e 2c 24 2a 24 4c 1e 2f 01 b1 0e f9 93     ...N,$*$L./.....
    330f:	1f 2e 30 d5 55 60 f2 7b 74 00 b2 0f f9 93 1f 4a     ..0.U`.{t......J
    331f:	2c 24 30 4c 2c 90 1e 77 00 b3 10 f9 93 1f 4a 2c     ,$0L,..w......J,
    332f:	24 2e 32 2a 24 4c 1e 87 00 b4 09 f9 93 3d 2e 3d     $.2*$L.......=.=
    333f:	3e 07 b5 19 f9 93 1f 8b a8 90 a8 90 a8 90 a8 90     >...............
    334f:	a8 10 19 91 88 89 90 c0 78 08 00 b6 1e f9 93 1f     ........x.......
    335f:	ca 24 26 22 24 26 22 24 26 22 86 22 2c 22 2c 22     .$&"$&"$&".",","
    336f:	2c 22 2c 22 2c 22 1e 1a 00 b7 0a f9 93 1f 6b 39     ,",","........k9
    337f:	79 9c 01 b8 0b f9 93 1f bf 93 0a 09 13 02 b9 0c     y...............
    338f:	f9 93 1f 2a 4e 30 bb 79 1c 02 ba 0f f9 93 1f 6a     ...*N0.y.......j
    339f:	2a 26 28 26 6a bc 1e 67 00 bb 18 f9 93 1f 3a 24     *&(&j..g......:$
    33af:	2c 24 2c 24 2c 24 2a 24 28 24 28 24 28 24 1e 29     ,$,$,$*$($($($.)
    33bf:	00 bc 15 f9 93 1f 2a 4e 30 a3 90 11 b1 88 a8 90     ......*N0.......
    33cf:	28 89 38 79 68 00 bd 12 f9 93 1f 2a 4e 30 13 19     (.8yh......*N0..
    33df:	92 c0 30 b1 40 7a 68 00 be 18 f9 93 1f 4a 2c 24     ..0.@zh......J,$
    33ef:	2e 32 2a 24 8d 88 58 44 54 48 94 44 9c 3c 34 00     .2*$..XDTH.D.<4.
    33ff:	bf 12 f9 93 1f 2e 1e 24 30 2e c3 a8 90 a8 98 7a     .......$0......z
    340f:	70 00 c0 17 f9 93 25 32 3d c4 54 4c aa 90 a8 90     p.....%2=.TL....
    341f:	93 a8 90 a8 90 a8 78 68 00 c1 17 f9 93 2d 2e 3d     ......xh.....-.=
    342f:	c4 54 4c aa 90 a8 90 93 a8 90 a8 90 a8 78 68 00     .TL..........xh.
    343f:	c2 19 f9 93 29 2e 22 2a 26 7c 2a 26 55 48 54 c8     ....)."*&|*&UHT.
    344f:	49 54 48 54 48 54 3c 34 00 c3 18 f9 93 57 26 24     ITHTHT<4.....W&$
    345f:	64 7c 2a 26 55 48 54 c8 49 54 48 54 48 54 3c 34     d|*&UHT.ITHTHT<4
    346f:	00 c4 18 f9 93 37 26 28 26 7c 2a 26 55 48 54 c8     .....7&(&|*&UHT.
    347f:	49 54 48 54 48 54 3c 34 00 c5 19 f9 93 79 2a 26     ITHTHT<4.....y*&
    348f:	6a 2c 22 2a 26 55 48 54 c8 49 54 48 54 48 54 3c     j,"*&UHT.ITHTHT<
    349f:	34 00 c6 1a f9 93 1f 4a 62 24 55 48 54 48 54 48     4......Jb$UHTHTH
    34af:	94 4d 48 54 48 54 48 54 08 3d 34 00 c7 12 f9 93     .MHTHTHT.=4.....
    34bf:	1f aa 26 2a 24 30 5f c5 94 49 85 84 09 01 c8 10     ..&*$0_..I......
    34cf:	f9 93 25 32 f9 4d 60 20 55 60 ba 7b 68 00 c9 10     ..%2.M` U`.{h...
    34df:	f9 93 2d 2e f9 4d 60 20 55 60 ba 7b 68 00 ca 13     ..-..M` U`.{h...
    34ef:	f9 93 29 2e 22 2a 26 f8 26 30 90 2a 30 dd 3d 34     ..)."*&.&0.*0.=4
    34ff:	00 cb 12 f9 93 37 26 28 26 f8 26 30 90 2a 30 dd     .....7&(&.&0.*0.
    350f:	3d 34 00 cc 0d f9 93 25 32 7d 59 60 9e d5 83 03     =4.....%2}Y`....
    351f:	cd 0d f9 93 2d 2e 7d 59 60 9e d5 83 03 ce 10 f9     ....-.}Y`.......
    352f:	93 29 2e 22 2a 26 ba 2c 30 cf ea c1 01 cf 0f f9     .)."*&.,0.......
    353f:	93 37 26 28 26 ba 2c 30 cf ea c1 01 d0 18 f9 93     .7&(&.,0........
    354f:	1f a8 28 4d 54 48 54 c4 50 48 54 48 54 48 54 48     ..(MTHT.PHTHTHTH
    355f:	50 4c 3d 02 d1 19 f9 93 57 26 24 64 38 2a 44 28     PL=.....W&$d8*D(
    356f:	24 22 26 24 bf 89 08 09 12 89 8a 87 06 d2 17 f9     $"&$............
    357f:	93 25 32 7d 4d 54 48 54 48 54 48 54 48 54 48 54     .%2}MTHTHTHTHTHT
    358f:	4c 3d 38 00 d3 17 f9 93 2d 2e 7d 4d 54 48 54 48     L=8.....-.}MTHTH
    359f:	54 48 54 48 54 48 54 4c 3d 38 00 d4 1a f9 93 29     THTHTHTL=8.....)
    35af:	2e 22 2a 26 ba 26 2a 24 2a 24 2a 24 2a 24 2a 24     ."*&.&*$*$*$*$*$
    35bf:	2a a6 1e 1c 00 d5 19 f9 93 57 26 24 64 ba 26 2a     *........W&$d.&*
    35cf:	24 2a 24 2a 24 2a 24 2a 24 2a a6 1e 1c 00 d6 19     $*$*$*$*$*......
    35df:	f9 93 37 26 28 26 ba 26 2a 24 2a 24 2a 24 2a 24     ..7&(&.&*$*$*$*$
    35ef:	2a 24 2a a6 1e 1c 00 d7 12 f9 93 1f 5d 54 4c aa     *$*.........]TL.
    35ff:	88 b8 14 51 31 a9 e2 d1 01 d8 1c f9 93 1f 22 a6     ...Q1.........".
    360f:	26 48 24 26 22 24 26 22 24 bf 88 09 89 88 09 11     &H$&"$&"$.......
    361f:	8a a9 89 07 05 d9 18 f9 93 25 32 79 54 48 54 48     .........%2yTHTH
    362f:	54 48 54 48 54 48 54 48 54 4c 3d 38 00 da 18 f9     THTHTHTHTL=8....
    363f:	93 2d 2e 79 54 48 54 48 54 48 54 48 54 48 54 48     .-.yTHTHTHTHTHTH
    364f:	54 4c 3d 38 00 db 1b f9 93 29 2e 22 2a 26 38 2a     TL=8.....)."*&8*
    365f:	24 2a 24 2a 24 2a 24 2a 24 2a 24 2a a6 1e 1c 00     $*$*$*$*$*$*....
    366f:	dc 1a f9 93 37 26 28 26 38 2a 24 2a 24 2a 24 2a     ....7&(&8*$*$*$*
    367f:	24 2a 24 2a 24 2a a6 1e 1c 00 dd 12 f9 93 2d 2e     $*$*$*........-.
    368f:	79 54 48 54 4c aa 88 b8 c0 ec 51 00 de 14 f9 93     yTHTL.....Q.....
    369f:	1f 28 30 d0 26 2a 24 2a 24 2a c4 26 30 3d 22 00     .(0.&*$*$*.&0=".
    36af:	df 1a f9 93 1f 6c 2a 26 28 26 28 24 48 22 2c 24     .....l*&(&($H",$
    36bf:	2a 26 28 26 28 26 28 42 1e 01 e0 13 f9 93 39 32     *&(&(&(B......92
    36cf:	79 65 60 8c 49 54 48 90 0c 45 3c 34 00 e1 13 f9     ye`.ITH..E<4....
    36df:	93 3f 2e 7d 65 60 8c 49 54 48 90 0c 45 3c 34 00     .?.}e`.ITH..E<4.
    36ef:	e2 16 f9 93 3b 2e 22 2a 26 ba 32 30 c6 24 2a 24     ....;."*&.20.$*$
    36ff:	48 86 22 1e 1a 00 e3 16 f9 93 1f 4c 24 26 44 ba     H."........L$&D.
    370f:	32 30 c6 24 2a 24 48 86 22 1e 1a 00 e4 16 f9 93     20.$*$H.".......
    371f:	1f 2a 26 28 26 ba 32 30 c6 24 2a 24 48 86 22 1e     .*&(&.20.$*$H.".
    372f:	1a 00 e5 15 f9 93 5b 2c 24 4c bc 32 30 c6 24 2a     ......[,$L.20.$*
    373f:	24 48 86 22 1e 1a 00 e6 15 f9 93 1f 13 09 99 90     $H."............
    374f:	54 21 31 35 21 51 21 69 24 e6 a1 01 e7 12 f9 93     T!15!Q!i$.......
    375f:	1f 93 9a a8 90 c0 ac 62 ca a4 42 c2 84 00 e8 12     .......b..B.....
    376f:	f9 93 37 32 7d 4d 54 48 54 c8 49 60 64 3d 38 00     ..72}MTHT.I`d=8.
    377f:	e9 12 f9 93 3f 2e 7d 4d 54 48 54 c8 49 60 64 3d     ....?.}MTHT.I`d=
    378f:	38 00 ea 15 f9 93 3b 2e 22 2a 26 ba 26 2a 24 2a     8.....;."*&.&*$*
    379f:	e4 24 30 b2 1e 1c 00 eb 15 f9 93 1f 2a 26 28 26     .$0.........*&(&
    37af:	ba 26 2a 24 2a e4 24 30 b2 1e 1c 00 ec 0c f9 93     .&*$*.$0........
    37bf:	37 32 fd 60 9e d5 83 03 ed 0d f9 93 3d 2e 3d c4     72.`........=.=.
    37cf:	60 9e d5 83 03 ee 0f f9 93 39 2e 22 2a 26 7c 30     `........9."*&|0
    37df:	cf ea c1 01 ef 0f f9 93 1f 2a 24 2a 24 7c 30 cf     .........*$*$|0.
    37ef:	ea c1 01 f0 19 f9 93 37 24 4c 2c 22 32 aa 26 2a     .......7$L,"2.&*
    37ff:	24 2a 24 2a 24 2a 24 2a a6 1e 1c 00 f1 1a f9 93     $*$*$*$*........
    380f:	1f 4a 26 24 64 38 82 46 28 24 2a 24 2a 24 2a 24     .J&$d8.F($*$*$*$
    381f:	2a 24 2a 1e 1a 00 f2 15 f9 93 37 32 7d 4d 54 48     *$*.......72}MTH
    382f:	54 48 54 48 54 48 54 4c 3d 38 00 f3 15 f9 93 3f     THTHTHTL=8.....?
    383f:	2e 7d 4d 54 48 54 48 54 48 54 48 54 4c 3d 38 00     .}MTHTHTHTHTL=8.
    384f:	f4 18 f9 93 3b 2e 22 2a 26 ba 26 2a 24 2a 24 2a     ....;."*&.&*$*$*
    385f:	24 2a 24 2a a6 1e 1c 00 f5 18 f9 93 1f 4a 26 24     $*$*.........J&$
    386f:	64 ba 26 2a 24 2a 24 2a 24 2a 24 2a a6 1e 1c 00     d.&*$*$*$*$*....
    387f:	f6 18 f9 93 1f 2a 26 28 26 ba 26 2a 24 2a 24 2a     .....*&(&.&*$*$*
    388f:	24 2a 24 2a a6 1e 1c 00 f7 0f f9 93 1f 45 dc 5c     $*$*.........E.\
    389f:	f8 79 dc 5c 3c 0a 00 f8 17 f9 93 1f 75 4c 4d 8a     .y.\<.......uLM.
    38af:	90 98 88 90 5c c4 84 44 c4 c4 d4 c4 83 02 f9 17     ....\..D........
    38bf:	f9 93 37 32 79 50 4c 50 4c 50 4c 50 4c 50 4c 50     ..72yPLPLPLPLPLP
    38cf:	10 45 3c 34 00 fa 17 f9 93 3f 2e 79 50 4c 50 4c     .E<4.....?.yPLPL
    38df:	50 4c 50 4c 50 4c 50 10 45 3c 34 00 fb 1a f9 93     PLPLPLP.E<4.....
    38ef:	3b 2e 22 2a 26 38 28 26 28 26 28 26 28 26 28 26     ;."*&8(&(&(&(&(&
    38ff:	28 88 22 1e 1a 00 fc 1a f9 93 1f 2a 24 2a 24 3a     (."........*$*$:
    390f:	28 26 28 26 28 26 28 26 28 26 28 88 22 1e 1a 00     (&(&(&(&(&(."...
    391f:	fd 1a f9 93 3d 2e 7d 50 4c 50 4c 50 4c 50 4c 50     ....=.}PLPLPLPLP
    392f:	4c 8c d0 44 60 4c 50 10 0d 00 fe 16 f9 93 1f 3a     L..D`LP........:
    393f:	30 0b 1a a1 90 a8 90 a8 10 a1 90 08 9a c0 74 00     0.............t.
    394f:	ff 1d f9 93 1f 2a 24 2a 24 3a 28 26 28 26 28 26     .....*$*$:(&(&(&
    395f:	28 26 28 26 46 68 22 30 26 28 88 06 00 00 00 00     (&(&Fh"0&(......
    396f:	08 25 95 07 6b ff ff 20 a0 15 f9 93 1f 68 2a 30     .%..k.. .....h*0
    397f:	0d 45 4c 50 4c 94 59 60 20 3d 34 00 20 a1 1b f9     .ELPL.Y` =4. ...
    398f:	93 3f a8 26 45 48 4c 50 48 54 48 54 44 58 44 98     .?.&EHLPHTHTDXD.
    399f:	9c 50 88 4d 3c 28 00 20 a2 17 f9 93 1f aa 26 2a     .P.M<(. ......&*
    39af:	24 30 09 49 aa 90 a8 90 a8 90 34 f5 e0 00 20 a3     $0.I......4... .
    39bf:	17 f9 93 1f e8 26 30 1d 85 4c 84 54 44 58 44 58     .....&0..L.TDXDX
    39cf:	44 14 3d 0a 00 20 a4 16 f9 93 1f 6e 2a 26 28 ac     D.=.. .....n*&(.
    39df:	2c ac 2c 4e 2c 22 26 c5 3c 38 00 20 a5 18 f9 93     ,.,N,"&.<8. ....
    39ef:	1f 79 c4 92 14 22 21 12 21 b9 10 09 91 08 49 15     .y..."!.!.....I.
    39ff:	11 0f 0b 20 a6 1d f9 93 1f 28 2a 24 2a 44 28 e2     ... .....(*$*D(.
    3a0f:	40 22 24 c5 81 44 90 48 54 48 54 48 54 3c 34 00     @"$..D.HTHTHT<4.
    3a1f:	20 a7 13 f9 93 1f c8 26 2a e2 40 22 2a c4 26 30      ......&*.@"*.&0
    3a2f:	f7 88 00 20 a8 1c f9 93 1f 88 2a 26 e6 26 11 c5     ... ......*&.&..
    3a3f:	84 48 50 44 88 48 9a 88 98 90 88 98 79 68 00 20     .HPD.H......yh. 
    3a4f:	a9 1a f9 93 1f 28 2a 24 2a 24 2a e2 40 22 24 c5     .....(*$*$*.@"$.
    3a5f:	81 44 48 be c8 26 3d 38 00 20 aa 1f f9 93 1f 6a     .DH..&=8. .....j
    3a6f:	2a 26 22 24 22 93 88 4c 22 32 89 c8 24 22 93 88     *&"$"..L"2..$"..
    3a7f:	4c 22 62 42 42 e6 c1 01 20 ab 16 f9 93 1f 34 c6     L"bBB... .....4.
    3a8f:	30 86 22 24 48 24 2a 24 48 86 bc 1e 1c 00 20 ac     0."$H$*$H..... .
    3a9f:	13 f9 93 1f c5 54 4c ba aa b8 aa c8 98 a8 79 70     .....TL.......yp
    3aaf:	00 20 ad 1a f9 93 1f 28 2a 24 28 26 51 48 d0 4d     . .....(*$(&QH.M
    3abf:	44 58 48 54 4c 50 9a a8 78 68 00 20 ae 12 f9 93     DXHTLP..xh. ....
    3acf:	1f e8 2a 30 50 4c 30 50 4c 30 3d 0a 00 20 af 1d     ..*0PL0PL0=.. ..
    3adf:	f9 93 1f 2c 8e 28 22 24 2a 26 28 26 28 26 28 26     ...,.("$*&(&(&(&
    3aef:	46 26 24 42 24 26 44 1e 1c 00 20 b0 1e f9 93 1f     F&$B$&D... .....
    3aff:	4e 2c 24 2a 24 2a 24 2a 24 2c 22 28 24 28 22 51     N,$*$*$*$,"($("Q
    3b0f:	84 44 48 9a c0 b8 58 00 20 b1 16 f9 93 1f a8 28     .DH...X. ......(
    3b1f:	c9 41 48 50 c8 41 48 50 4c 51 60 7a 44 00 21 03     .AHP.AHPLQ`zD.!.
    3b2f:	13 f9 93 35 2e 22 62 26 22 26 28 30 df 44 cd 83     ...5."b&"&(0.D..
    3b3f:	03 21 09 12 f9 93 35 2e 22 2e d2 26 30 b0 28 30     .!....5."..&0.(0
    3b4f:	7b 34 00 21 26 18 f9 93 1f 7e 2a 26 55 48 54 48     {4.!&....~*&UHTH
    3b5f:	54 4c aa 88 b0 88 a0 89 79 68 00 21 90 0e f9 93     TL......yh.!....
    3b6f:	1f 69 5c ba 9b c8 f4 48 01 21 91 11 f9 93 1f 2e     .i\....H.!......
    3b7f:	6e 2a 22 4d 48 aa c0 bc 47 01 21 92 0d f9 93 1f     n*"MH...G.!.....
    3b8f:	69 64 9a bb ec 91 02 21 93 11 f9 93 1f 2e 30 af     id.....!......0.
    3b9f:	42 d2 44 a4 9a 8b 47 01 21 94 11 f9 93 1f 9b 88     B.D...G.!.......
    3baf:	a8 98 98 9b 54 11 f1 d8 00 21 95 17 f9 93 1f 2e     ....T....!......
    3bbf:	6e 2a 22 4d 48 aa c0 a8 90 34 11 a9 e6 e2 51 00     n*"MH....4....Q.
    3bcf:	21 96 10 f9 93 1f 1d 95 5c 44 58 48 64 f6 e8 00     !.......\DXHd...
    3bdf:	21 97 11 f9 93 1f 29 9d 58 44 54 48 50 5c 7a d4     !.....).XDTHP\z.
    3bef:	00 21 98 10 f9 93 1f 5d 64 26 61 11 71 52 f4 e8     .!.....]d&a.qR..
    3bff:	00 21 99 11 f9 93 1f 75 5c a2 90 a8 88 30 39 7a     .!.....u\....09z
    3c0f:	a4 00 21 9a 14 f9 93 1f 65 5c 4c a2 90 83 90 98     ..!.....e\L.....
    3c1f:	a8 90 b0 78 b4 00 21 9b 14 f9 93 1f 69 58 48 54     ...x..!.....iXHT
    3c2f:	4c c8 41 48 50 4c ba 78 a4 00 21 9c 11 f9 93 1f     L.AHPL.x..!.....
    3c3f:	65 5c a2 10 8a 24 c9 22 e3 d1 02 21 9d 12 f9 93     e\...$."...!....
    3c4f:	1f 69 64 50 92 88 08 a2 90 b8 f4 48 01 21 9e 16     .idP.......H.!..
    3c5f:	f9 93 1f 65 48 50 48 50 48 d0 41 48 b2 90 b0 90     ...eHPHPH.AH....
    3c6f:	78 84 00 21 9f 16 f9 93 1f 2e 6e 2a 22 4d 48 a2     x..!......n*"MH.
    3c7f:	a9 88 34 21 a9 02 d3 a3 00 21 a0 17 f9 93 1f 5d     ..4!.....!.....]
    3c8f:	48 58 48 58 48 c8 41 50 48 50 48 50 48 3c 52 00     HXHXH.APHPHPH<R.
    3c9f:	21 a1 16 f9 93 1f 2e 30 55 48 9a 88 54 43 21 69     !......0UH..TC!i
    3caf:	22 52 cd c5 a3 00 21 a2 12 f9 93 1f 69 5c 4c 36     "R....!.....i\L6
    3cbf:	55 31 51 31 51 f1 48 01 21 a3 11 f9 93 1f 69 54     U1Q1Q.H.!.....iT
    3ccf:	4c 54 4c 54 4d ee e2 91 02 21 a4 12 f9 93 1f 69     LTLTM....!.....i
    3cdf:	5c 4c a2 90 9b a0 34 51 f1 48 01 21 a5 12 f9 93     \L....4Q.H.!....
    3cef:	1f 2e 6e 2a 22 4d 48 aa c0 9c d5 83 03 21 a6 12     ..n*"MH......!..
    3cff:	f9 93 1f 69 54 4c 50 9a 93 a0 98 74 f1 48 01 21     ...iTLP....t.H.!
    3d0f:	a7 12 f9 93 1f aa 2c 30 57 21 69 22 52 cd c5 a3     ......,0W!i"R...
    3d1f:	00 21 a8 16 f9 93 1f 2e 6e 2a 22 4d 48 aa 24 69     .!......n*"MH.$i
    3d2f:	22 52 cd 45 dd 43 03 21 a9 10 f9 93 1f 65 5c 4c     "R.E.C.!.....e\L
    3d3f:	aa 88 9b c8 f4 68 01 21 aa 0f f9 93 1f 69 54 4c     .....h.!.....iTL
    3d4f:	aa 98 bb ec 91 02 21 ab 12 f9 93 1f 65 5c 4c 16     ......!.....e\L.
    3d5f:	11 37 a9 42 c2 e2 d1 02 21 ac 13 f9 93 1f 69 54     .7.B....!.....iT
    3d6f:	4c 8a 98 98 9b 44 21 71 f1 48 01 21 ad 11 f9 93     L....D!q.H.!....
    3d7f:	1f 93 98 24 29 58 44 c5 a4 c7 04 00 21 ae 12 f9     ...$)XD.....!...
    3d8f:	93 1f 93 98 24 29 0e 24 42 d2 a4 c7 04 00 21 af     ....$).$B.....!.
    3d9f:	16 f9 93 1f 2e 61 48 50 c4 90 48 5c 60 54 44 1c     .....aHP..H\`TD.
    3daf:	59 3c 0a 00 21 b0 11 f9 93 1f 2c 2e ce 28 26 2a     Y<..!.....,..(&*
    3dbf:	24 30 ef c1 01 21 b1 11 f9 93 1f 30 32 e6 24 28     $0...!.....02.$(
    3dcf:	26 51 60 ee 11 01 21 b2 12 f9 93 1f 32 30 57 21     &Q`...!.....20W!
    3ddf:	41 31 31 46 91 f1 48 00 21 b3 0e f9 93 1f 28 30     A11F..H.!.....(0
    3def:	6f 82 d2 dc a5 47 21 b4 0e f9 93 1f 5d 61 ce 22     o....G!.....]a."
    3dff:	52 cd c5 23 21 b5 11 f9 93 1f 51 60 a2 98 44 21     R..#!.....Q`..D!
    3e0f:	37 91 f1 68 01 21 b6 13 f9 93 1f c5 54 4c aa 90     7..h.!......TL..
    3e1f:	28 89 34 11 73 f1 98 01 21 b7 14 f9 93 1f 7c 2a     (.4.s...!.....|*
    3e2f:	26 55 48 54 48 4c 44 aa b9 78 4c 00 21 b8 13 f9     &UHTHLD..xL.!...
    3e3f:	93 1f e8 26 70 4c 2e 22 32 30 32 61 3c 34 00 21     ...&pL."202a<4.!
    3e4f:	b9 19 f9 93 1f 3a 24 2a 22 ec 24 22 2c 24 59 44     .....:$*".$",$YD
    3e5f:	c8 59 44 54 48 3c 34 00 21 ba 16 f9 93 1f a1 48     .YDTH<4.!......H
    3e6f:	4c cc 44 4c 44 84 54 48 54 4c aa 79 a4 00 21 bb     L.DLD.THTL.y..!.
    3e7f:	15 f9 93 1f 61 88 cc 4c 44 36 21 51 21 51 31 a9     ....a..LD6!Q!Q1.
    3e8f:	e6 11 02 21 d0 11 f9 93 1f 65 5c dc 81 e4 41 48     ...!.....e\...AH
    3e9f:	64 3c 5a 00 21 d1 1a f9 93 1f 2e 45 94 84 4c 44     d<Z.!......E..LD
    3eaf:	46 11 61 11 61 11 61 11 61 11 61 11 f1 08 21 d2     F.a.a.a.a.a...!.
    3ebf:	10 f9 93 1f 6d 64 c8 41 e4 81 5c 7a 94 00 21 d3     ....md.A..\z..!.
    3ecf:	1c f9 93 1f 2c 22 2c 22 2c 22 2c 22 2c 22 2c 22     ....,",",",",","
    3edf:	28 22 1b 09 a9 88 b8 78 14 00 21 d4 14 f9 93 1f     (".....x..!.....
    3eef:	65 44 54 4c cc 45 5c c4 4d aa 88 78 94 00 21 d5     eDTL.E\.M..x..!.
    3eff:	1a f9 93 1f 2e 45 94 84 4c 44 46 11 61 11 41 11     .....E..LDF.a.A.
    3f0f:	d9 48 48 45 c4 c5 a3 00 21 d6 14 f9 93 1f 9d 4d     .HHE....!......M
    3f1f:	48 54 4c 90 4c 8a 98 90 94 f1 28 01 21 d7 15 f9     HTL.L.....(.!...
    3f2f:	93 1f a1 55 48 50 4c 1a 91 98 88 a8 90 a0 78 b4     ...UHPL.......x.
    3f3f:	00 21 d8 14 f9 93 1f 65 92 34 11 31 31 42 31 51     .!.....e.4.11B1Q
    3f4f:	21 31 f6 e8 00 21 d9 14 f9 93 1f 6d 50 48 54 44     !1...!.....mPHTD
    3f5f:	4c 88 4c 46 21 51 f6 08 01 21 e6 12 f9 93 1f 65     L.LF!Q...!.....e
    3f6f:	9c 58 c4 5d 44 84 89 60 3c 5a 00 21 e7 19 f9 93     .X.]D..`<Z.!....
    3f7f:	1f 2e 45 54 4c cc c4 50 44 58 44 58 44 58 44 58     ..ETL..PDXDXDXDX
    3f8f:	44 d8 3c 02 21 e8 11 f9 93 1f 6d a0 88 45 ba 8b     D.<.!.....m..E..
    3f9f:	30 b9 78 94 00 21 e9 1a f9 93 1f 6c 2c 22 2c 22     0.x..!.....l,","
    3faf:	2c 22 2c 22 2c 22 68 62 26 55 44 5c 3c 0a 00 25     ,",","hb&UD\<..%
    3fbf:	80 0a f9 93 e1 ff 1e c7 00 25 81 0a f9 93 1f 3f     .........%.....?
    3fcf:	3e 38 20 25 82 0b f9 93 1f 5f 1e fc 20 00 25 83     >8 %....._.. .%.
    3fdf:	0b f9 93 1f cf 0e fe 41 01 25 84 0b f9 93 1f 37     .......A.%.....7
    3fef:	07 ff 07 02 25 85 0b f9 93 1f cb 83 ff 07 04 25     ....%..........%
    3fff:	86 0b f9 93 1f d9 c1 ff 1f 04 25 87 0b f9 93 1f     ..........%.....
    400f:	e6 e0 ff 3f 28 25 88 0a f9 93 e1 ff ff 03 01 25     ...?(%.........%
    401f:	89 25 f9 93 e1 20 e2 20 e2 20 e2 20 e2 20 e2 20     .%... . . . . . 
    402f:	e2 20 e2 20 e2 20 e2 20 e2 20 e2 20 e2 20 e2 20     . . . . . . . . 
    403f:	e2 20 02 00 25 8a 0a f9 93 e1 e4 ff 9f 00 25 8b     . ..%.........%.
    404f:	0a f9 93 c1 c6 ff df 00 25 8c 0a f9 93 a1 a8 ff     ........%.......
    405f:	1f 01 25 8d 0a f9 93 61 6c ff 9f 01 25 8e 0a f9     ..%....al...%...
    406f:	93 41 4e ff df 01 25 8f 0a f9 93 21 30 ff 1f 02     .AN...%....!0...
    407f:	25 90 08 f9 93 8b ff 3f 25 91 19 f9 93 21 22 a7     %......?%....!".
    408f:	11 99 46 e4 34 22 d3 88 9c 46 64 1a 91 d3 88 2c     ..F.4"...Fd....,
    409f:	00 25 92 10 f9 93 21 22 ff ff ff ff ff ff ff ff     .%....!"........
    40af:	03 25 93 1f f9 93 e1 40 22 17 07 13 59 1c 4c e4     .%.....@"...Y.L.
    40bf:	e2 60 22 8b 83 89 5c 1c 4c 64 71 30 91 8b 03 01     .`"...\.Ldq0....
    40cf:	25 94 0a f9 93 e1 01 3d 7e 0c 25 95 08 f9 93 31     %......=~.%....1
    40df:	ff 3f 25 96 0b f9 93 1f 37 45 fd 11 00 25 97 0a     .?%.....7E...%..
    40ef:	f9 93 1f 87 54 fc 01 25 98 0b f9 93 a1 a8 df e3     ....T..%........
    40ff:	05 00 25 99 0c f9 93 a1 a8 1f 1d fc 1f 08 25 9a     ..%...........%.
    410f:	0b f9 93 a1 a8 5f 52 f1 07 25 9b 0b f9 93 e1 ff     ....._R..%......
    411f:	a0 a8 3f 02 25 9c 09 f9 93 e1 ff 8a 7f 25 9d 0a     ..?.%........%..
    412f:	f9 93 8b bf c7 31 00 25 9e 0c f9 93 8b 5f 1d 08     .....1.%....._..
    413f:	f5 47 00 25 9f 0b f9 93 8b 5f 1d fc 1f 18 25 a0     .G.%....._....%.
    414f:	0b f9 93 1f dd c9 bf 47 07 25 a1 15 f9 93 1f dd     .......G.%......
    415f:	49 54 48 54 48 54 48 54 48 54 c8 3d 3a 00 25 a2     ITHTHTHTHT.=:.%.
    416f:	15 f9 93 1f 61 4d 54 48 54 48 54 48 54 48 54 4c     ....aMTHTHTHTHTL
    417f:	3d 42 00 25 a3 18 f9 93 1f dd 49 54 48 c4 44 48     =B.%......ITH.DH
    418f:	c4 44 48 c4 44 48 54 c8 3d 3a 00 25 a4 13 f9 93     .DH.DHT.=:.%....
    419f:	1f dd 49 54 c8 49 54 c8 49 54 c8 3d 3a 00 25 a5     ..IT.IT.IT.=:.%.
    41af:	16 f9 93 1f dd 49 44 26 11 99 44 64 12 91 49 44     .....ID&..Dd..ID
    41bf:	26 f7 e8 00 25 a6 14 f9 93 1f dd 49 44 26 27 11     &...%......ID&'.
    41cf:	99 9c 44 64 72 8f 0e 00 25 a7 14 f9 93 1f dd 49     ..Ddr...%......I
    41df:	6e 22 42 64 44 22 62 42 32 b9 47 07 25 a8 14 f9     n"BdD"bB2.G.%...
    41ef:	93 1f dd 49 2e 62 42 64 44 62 22 42 32 b9 47 07     ...I.bBdDb"B2.G.
    41ff:	25 a9 1a f9 93 1f dd 89 44 84 48 4c 44 88 44 84     %.......D.HLD.D.
    420f:	48 44 4c 88 44 84 c8 3d 3a 00 25 aa 0b f9 93 1f     HDL.D..=:.%.....
    421f:	e3 b1 f5 18 03 25 ab 0d f9 93 1f e3 b1 88 b0 79     .....%.........y
    422f:	8c 01 25 ac 0b f9 93 1f fd c1 1f cc 63 25 ad 0d     ..%.........c%..
    423f:	f9 93 1f fd c1 9c ba 83 79 0c 25 ae 0b f9 93 1f     ........y.%.....
    424f:	bc a8 7f 0f 0e 25 af 19 f9 93 1f bc 28 26 28 26     .....%......(&(&
    425f:	28 26 28 26 28 26 28 26 28 26 a8 1e 1c 00 25 b0     (&(&(&(&(&....%.
    426f:	10 f9 93 1f 8b 83 88 83 07 14 07 f1 58 00 25 b1     ............X.%.
    427f:	11 f9 93 1f 8b 83 88 30 39 b1 88 83 78 2c 00 25     .......09...x,.%
    428f:	b2 14 f9 93 1f 2e 30 6e 6c aa a8 e6 e4 e2 e0 80     ......0nl.......
    429f:	1e 18 00 25 b3 19 f9 93 1f 2e 30 2e 22 2c 22 2a     ...%......0.","*
    42af:	26 28 26 55 48 54 44 dc c1 3c 30 00 25 b4 10 f9     &(&UHTD..<0.%...
    42bf:	93 1f 69 60 dc d8 54 51 cd 3d 3a 00 25 b5 14 f9     ..i`..TQ.=:.%...
    42cf:	93 1f 69 60 5c 44 58 44 54 4c 50 4c cc 3d 3a 00     ..i`\DXDTLPL.=:.
    42df:	25 b6 14 f9 93 1f 58 8e ca e6 20 e2 e0 60 c2 86     %.....X... ..`..
    42ef:	4a 1e 11 00 25 b7 18 f9 93 1f 58 2e 42 2a 46 26     J...%.....X.B*F&
    42ff:	4a 22 4e 4a 22 46 26 42 4a 1e 11 00 25 b8 10 f9     J"NJ"F&BJ...%...
    430f:	93 1f 5d e0 58 d1 49 d1 58 3c 6a 00 25 b9 13 f9     ..].X.I.X<j.%...
    431f:	93 1f 5d e0 58 88 50 90 48 88 d0 58 3c 6a 00 25     ..].X.P.H..X<j.%
    432f:	ba 0f f9 93 1f fd 98 cd c1 41 cc 3c 66 00 25 bb     .........A.<f.%.
    433f:	10 f9 93 1f fd 58 c8 4c 14 c9 cc 3c 66 00 25 bc     .....X.L...<f.%.
    434f:	14 f9 93 1f e6 e0 80 e2 e4 a6 a8 6a 6c 2e 30 1e     ...........jl.0.
    435f:	05 00 25 bd 19 f9 93 1f e6 60 2e 22 2a 24 2a 26     ..%......`."*$*&
    436f:	51 4c 54 44 58 44 5c 60 3c 0a 00 25 be 10 f9 93     QLTDXD\`<..%....
    437f:	1f dd 4d 51 d5 d8 5c 60 3c 52 00 25 bf 13 f9 93     ..MQ..\`<R.%....
    438f:	1f dd 4d a2 98 a8 88 b0 88 b8 c0 78 a4 00 25 c0     ..M........x..%.
    439f:	14 f9 93 1f 91 14 8d c5 c1 c1 c4 41 8c 15 9d 3c     ...........A...<
    43af:	30 00 25 c1 18 f9 93 1f 91 94 44 8c 4c 84 94 5c     0.%.......D.L..\
    43bf:	84 54 8c 4c 94 44 9c 3c 30 00 25 c2 10 f9 93 1f     .T.L.D.<0.%.....
    43cf:	75 d8 50 c9 51 d9 60 3c 3a 00 25 c3 13 f9 93 1f     u.P.Q.`<:.%.....
    43df:	75 d8 90 48 88 50 90 48 d8 60 3c 3a 00 25 c4 0e     u..H.P.H.`<:.%..
    43ef:	f9 93 1f b3 99 83 83 18 b3 79 0c 25 c5 0f f9 93     .........y.%....
    43ff:	1f b3 99 11 aa 98 91 b0 79 0c 25 c6 13 f9 93 1f     ........y.%.....
    440f:	45 dc 54 cd c5 81 c4 4d d5 5c 3c 0a 00 25 c7 17     E.T....M.\<..%..
    441f:	f9 93 1f 45 5c 44 54 4c aa 88 b8 88 a8 98 54 11     ...E\DTL......T.
    442f:	71 f1 28 00 25 c8 18 f9 93 1f 45 5c 44 54 4c 92     q.(.%.....E\DTL.
    443f:	14 21 23 11 21 69 52 45 c4 c5 a3 00 25 c9 13 f9     .!#.!iRE....%...
    444f:	93 1f e5 54 4c 92 2c 26 42 b2 49 35 8f 12 00 25     ...TL.,&B.I5...%
    445f:	ca 17 f9 93 1f 45 60 5c 44 58 44 54 4c 54 44 58     .....E`\DXDTLTDX
    446f:	44 5c 60 3c 0a 00 25 cb 13 f9 93 1f e5 54 4c aa     D\`<..%......TL.
    447f:	90 a8 90 a8 98 54 f3 28 01 25 cc 11 f9 93 1f 69     .....T.(.%.....i
    448f:	58 4c 70 54 70 4c 58 3c 52 00 25 cd 16 f9 93 1f     XLpTpLX<R.%.....
    449f:	e5 94 84 4c 44 26 11 99 44 64 23 21 35 8f 12 00     ...LD&..Dd#!5...
    44af:	25 ce 12 f9 93 1f e5 54 4c 92 2c 32 c9 26 d5 3c     %......TL.,2.&.<
    44bf:	4a 00 25 cf 0f f9 93 1f e5 54 cd c9 9b aa 79 94     J.%......T....y.
    44cf:	00 25 d0 15 f9 93 1f e5 d4 44 0c 49 08 49 08 49     .%.......D.I.I.I
    44df:	cc 44 d4 3c 4a 00 25 d1 15 f9 93 1f e5 54 c4 4c     .D.<J.%......T.L
    44ef:	08 49 08 49 08 4d c4 d4 3c 4a 00 25 d2 10 f9 93     .I.I.M..<J.%....
    44ff:	1f e5 54 4c aa 90 37 55 f3 28 01 25 d3 11 f9 93     ..TL..7U.(.%....
    450f:	1f e5 54 cd c9 49 54 4c aa 79 94 00 25 d4 14 f9     ..T..ITL.y..%...
    451f:	93 1f e5 54 c4 4c 08 49 08 49 54 4c aa 79 94 00     ...T.L.I.ITL.y..
    452f:	25 d5 11 f9 93 1f e5 54 c4 4c 08 c9 9b aa 79 94     %......T.L....y.
    453f:	00 25 d6 0e f9 93 1f a5 d8 14 67 73 f2 48 01 25     .%........gs.H.%
    454f:	d7 0f f9 93 1f a9 dc 18 15 ab 31 79 94 00 25 d8     ..........1y..%.
    455f:	0f f9 93 e1 1f d8 54 b1 aa 39 f8 03 03 25 d9 15     ......T..9...%..
    456f:	f9 93 e1 0f 68 2a 56 54 48 54 48 54 ac a8 39 f8     ....h*VTHTHT..9.
    457f:	01 01 25 da 11 f9 93 e1 0f 68 2a 56 54 48 54 c4     ..%......h*VTHT.
    458f:	e3 06 00 25 db 10 f9 93 1f 37 11 15 12 15 2b 6a     ...%.....7....+j
    459f:	0e 7e 40 25 dc 0d f9 93 1f a5 58 5c 60 3c 4e 01     .~@%......X\`<N.
    45af:	25 dd 0c f9 93 1f a9 64 c2 78 1c 01 25 de 0d f9     %......d.x..%...
    45bf:	93 1f a7 81 71 61 f2 28 01 25 df 0d f9 93 1f 47     ....qa.(.%.....G
    45cf:	81 91 91 f2 48 01 25 e0 0f f9 93 1f e5 54 4c aa     ....H.%......TL.
    45df:	90 a8 78 1c 01 25 e1 0f f9 93 1f 47 51 21 51 31     ..x..%.....GQ!Q1
    45ef:	a9 e6 51 02 25 e2 10 f9 93 1f 75 9c d8 14 51 8d     ..Q.%.....u...Q.
    45ff:	c9 3d 3a 00 25 e3 10 f9 93 1f 5d a0 dc 18 55 91     .=:.%.....]...U.
    460f:	cd 3d 3a 00 25 e4 10 f9 93 1f dd 89 4d 11 d5 98     .=:.%.......M...
    461f:	5c 3c 6a 00 25 e5 10 f9 93 1f dd 8d 51 15 d9 9c     \<j.%.......Q...
    462f:	60 3c 3a 00 25 e6 11 f9 93 1f 9b a9 98 a0 98 a0     `<:.%...........
    463f:	98 a8 79 6c 00 25 e7 15 f9 93 1f dd 09 49 08 49     ..yl.%.......I.I
    464f:	08 49 08 49 08 49 c8 3d 3a 00 25 e8 15 f9 93 1f     .I.I.I.=:.%.....
    465f:	dd 49 08 49 08 49 08 49 08 49 08 c9 3d 3a 00 25     .I.I.I.I.I..=:.%
    466f:	e9 14 f9 93 1f dd c9 49 45 08 49 c8 4c 88 50 c8     .......IE.I.L.P.
    467f:	3d 3a 00 25 ea 13 f9 93 1f dd 49 90 48 cc 48 08     =:.%......I.H.H.
    468f:	49 44 c9 7b 74 00 25 eb 0e f9 93 1f dd 49 fe 7f     ID.{t.%......I..
    469f:	72 8f 0e 00 25 ec 1a f9 93 1f 2e 30 2e 22 2c 22     r...%......0.","
    46af:	2a 26 28 22 4d c4 44 48 16 71 07 f3 c0 00 25 ed     *&("M.DH.q....%.
    46bf:	18 f9 93 1f 2e 30 6e 6c 6a 22 68 22 86 24 84 24     .....0nlj"h".$.$
    46cf:	a2 e6 60 1e 18 00 25 ee 18 f9 93 1f 2e 30 6e 6c     ..`...%......0nl
    46df:	2a 62 28 62 26 84 24 84 22 e6 e0 1e 18 00 25 ef     *b(b&.$.".....%.
    46ef:	12 f9 93 1f bc 26 2a 22 4e 77 11 51 31 f5 e0 00     .....&*"Nw.Q1...
    46ff:	25 f0 12 f9 93 1f dd 49 3e 21 49 15 12 15 72 8f     %......I>!I...r.
    470f:	0e 00 25 f1 12 f9 93 1f dd 49 54 48 54 08 49 7e     ..%......ITHT.I~
    471f:	72 8f 0e 00 25 f2 12 f9 93 1f dd 49 54 48 54 48     r...%......ITHTH
    472f:	08 49 3e b9 47 07 25 f3 12 f9 93 1f dd 49 7e 42     .I>.G.%......I~B
    473f:	12 15 12 15 72 8f 0e 00 25 f4 12 f9 93 1f 61 4d     ....r...%.....aM
    474f:	48 9e 90 a4 0a 89 8a a9 47 08 25 f5 12 f9 93 1f     H.......G.%.....
    475f:	61 4d 54 48 54 08 49 7e 53 8f 10 00 25 f6 12 f9     aMTHT.I~S...%...
    476f:	93 1f 61 4d 54 48 54 48 08 49 be a9 47 08 25 f7     ..aMTHTH.I..G.%.
    477f:	12 f9 93 1f 61 4d 48 3e 21 89 0a 89 8a a9 47 08     ....aMH>!.....G.
    478f:	25 f8 11 f9 93 1f 0b 9b 44 21 51 11 61 72 f1 a8     %.......D!Q.ar..
    479f:	01 25 f9 12 f9 93 1f 0b a3 98 a8 90 b0 88 38 c1     .%............8.
    47af:	78 84 00 25 fa 12 f9 93 1f 8b 40 b9 88 b0 90 a8     x..%......@.....
    47bf:	98 20 7b 84 00 25 fb 13 f9 93 1f 0b 9b a0 98 a0     . {..%..........
    47cf:	98 a0 98 a0 18 7b 84 00 25 fc 0b f9 93 1f 0b 1b     .....{..%.......
    47df:	bf 47 08 25 fd 11 f9 93 1f db a2 98 a0 98 a0 98     .G.%............
    47ef:	a0 7a 84 00 25 fe 0b f9 93 1f db a2 de 23 04 25     .z..%........#.%
    47ff:	ff 12 f9 93 1f b3 38 b1 88 a8 90 a0 98 18 7b 84     ......8.......{.
    480f:	00 26 00 14 f9 93 1f 2e 2a d1 54 49 44 45 48 d5     .&......*.TIDEH.
    481f:	50 54 7a a4 00 26 01 0c f9 93 1f a5 58 cd 3d ae     PTz..&......X.=.
    482f:	01 26 02 11 f9 93 1f 2e ac e6 2a 30 b3 88 b8 78     .&........*0...x
    483f:	b4 00 26 03 1c f9 93 27 22 93 29 09 89 90 98 90     ..&....'".).....
    484f:	88 ac 22 d2 64 92 15 49 56 31 15 f1 c0 00 26 04     ..".d..IV1....&.
    485f:	1b f9 93 3d 2e 30 24 28 24 2a 24 48 22 24 22 24     ...=.0$($*$H"$"$
    486f:	45 90 48 50 92 30 79 24 00 26 05 15 f9 93 1f 45     E.HP.0y$.&.....E
    487f:	60 dc cc 81 c4 4d 91 84 8c 92 a8 78 68 00 26 06     `....M.....xh.&.
    488f:	16 f9 93 1f 45 60 5c 44 0c 05 45 54 4c 26 59 64     ....E`\D..ETL&Yd
    489f:	22 23 0f 0d 26 07 0f f9 93 1f 51 5c 2e 53 c4 89     "#..&.....Q\.S..
    48af:	cd 43 03 26 08 1a f9 93 1f fa 24 28 26 51 48 54     .C.&......$(&QHT
    48bf:	44 58 48 54 4c 44 48 90 48 cc 3c 34 00 26 09 11     DXHTLDH.H.<4.&..
    48cf:	f9 93 1f 9b a9 98 54 21 b9 8a 49 35 8f 00 26 0a     ......T!..I5..&.
    48df:	14 f9 93 1f e5 54 4c aa 90 a8 90 a8 98 2c b2 49     .....TL......,.I
    48ef:	0f 0e 26 0b 14 f9 93 1f 61 4c 8a 6c b2 0a 89 0a     ..&.....aL.l....
    48ff:	89 8a 49 35 8f 00 26 0c 13 f9 93 1f a3 c0 b0 a9     ..I5..&.........
    490f:	98 a0 98 a0 98 a8 79 14 00 26 0d 19 f9 93 7b 2a     ......y..&....{*
    491f:	26 28 26 28 26 6a 2c 6c 2a 26 28 26 28 26 6a 1e     &(&(&j,l*&(&(&j.
    492f:	05 00 26 0e 17 f9 93 1f bc e6 42 8a 62 42 44 42     ..&.......B.bBDB
    493f:	46 89 8c 04 c5 81 3d 30 00 26 0f 15 f9 93 1f 61     F.....=0.&.....a
    494f:	4d 54 44 c8 88 44 fe 24 8b b8 83 79 60 00 26 10     MTD..D.$...y`.&.
    495f:	1c f9 93 f5 24 2a 24 2a 24 2a 24 2a 24 2a 24 2a     ....$*$*$*$*$*$*
    496f:	24 2a 24 2a 24 2a e4 1e 1a 00 26 11 21 f9 93 f5     $*$*$*....&.!...
    497f:	24 2a 24 48 24 48 24 26 22 24 26 22 44 22 24 44     $*$H$H$&"$&"D"$D
    498f:	22 24 45 4c 48 44 4c c8 3d 34 00 26 12 1b f9 93     "$ELHDL.=4.&....
    499f:	f5 44 46 44 46 24 22 93 88 4c 72 91 49 44 26 32     .DFDF$"..Lr.ID&2
    49af:	22 32 22 f7 d0 00 26 13 1b f9 93 1f 2a 26 28 26     "2"...&.....*&(&
    49bf:	2a 22 2c 22 2e 30 2e 22 2c 22 2a 26 28 26 1e 1c     *",".0.","*&(&..
    49cf:	00 26 16 19 f9 93 1f 2e 45 54 4c 50 4c aa 90 a8     .&......ETLPL...
    49df:	90 a8 90 a8 90 a8 90 7b 68 00 26 17 0f f9 93 1f     .......{h.&.....
    49ef:	2e 6e aa a8 e6 e4 ef a1 01 26 19 13 f9 93 1f e9     .n.......&......
    49ff:	54 8d c9 89 4d 45 cc 48 98 3c 38 00 26 1a 11 f9     T...ME.H.<8.&...
    4a0f:	93 1f fd 41 0c 45 d0 44 50 95 3c 36 00 26 1b 11     ...A.E.DP.<6.&..
    4a1f:	f9 93 1f fd 41 44 04 4d c4 50 99 3c 56 00 26 1c     ....AD.M.P.<V.&.
    4a2f:	11 f9 93 1f fd 41 4c 50 9a a0 10 29 79 6c 00 26     .....ALP...)yl.&
    4a3f:	1d 15 f9 93 1f 71 60 9c 94 44 50 4c 50 4c 54 48     .....q`..DPLPLTH
    4a4f:	14 3d 38 00 26 1e 11 f9 93 1f fd 41 44 50 4c 22     .=8.&......ADPL"
    4a5f:	91 30 79 ac 00 26 1f 14 f9 93 1f 25 55 48 50 4c     .0y..&.....%UHPL
    4a6f:	50 4c 94 44 9c 60 7a 70 00 26 54 19 f9 93 3b 6e     PL.D.`zp.&T...;n
    4a7f:	28 24 c9 c4 48 54 48 54 4c a2 98 a0 98 54 21 f7     ($..HTHTL....T!.
    4a8f:	d0 00 26 55 1a f9 93 3b 2e 22 48 46 24 22 93 a8     ..&U...;."HF$"..
    4a9f:	90 a8 98 44 31 41 31 a9 42 ee a1 01 26 56 1b f9     ...D1A1.B...&V..
    4aaf:	93 1f 28 62 22 64 62 24 2a 24 2a 26 51 4c 50 4c     ..(b"db$*$*&QLPL
    4abf:	50 4c aa 90 7b 68 00 26 57 18 f9 93 1f 2e 45 54     PL..{h.&W.....ET
    4acf:	4c 50 4c 50 4c 50 4c d4 54 4c aa 90 7b 68 00 26     LPLPLPL.TL..{h.&
    4adf:	58 1a f9 93 1f 32 88 22 24 2a 24 2a 46 26 2a 24     X....2."$*$*F&*$
    4aef:	28 26 51 48 54 c8 3d 34 00 26 59 15 f9 93 1f a5     (&QHT.=4.&Y.....
    4aff:	58 48 54 48 98 58 48 54 48 50 1a 7b 70 00 26 5a     XHTH.XHTHP.{p.&Z
    4b0f:	11 f9 93 3b 6e 28 24 c9 37 45 6d 4e ee a1 01 26     ...;n($.7EmN...&
    4b1f:	5b 12 f9 93 3b 6e e8 24 22 93 37 45 6d 4e ee a1     [...;n.$".7EmN..
    4b2f:	01 26 5c 11 f9 93 1f 28 62 22 e4 9b a2 6e 4e ee     .&\....(b"...nN.
    4b3f:	a1 01 26 5d 14 f9 93 1f 2e 6e 6a 22 68 22 a8 d5     ..&].....nj"h"..
    4b4f:	54 cd c9 3d 34 00 26 5e 13 f9 93 1f 32 c8 84 42     T..=4.&^....2..B
    4b5f:	e4 c6 8a a8 c6 e4 3d 34 00 26 5f 11 f9 93 1f a5     ......=4.&_.....
    4b6f:	18 15 99 18 15 91 8d 3d 38 00 26 60 13 f9 93 3b     .......=8.&`...;
    4b7f:	6e 6c aa a8 e6 e4 a6 2c 6e aa 1e 1c 00 26 61 19     nl.....,n....&a.
    4b8f:	f9 93 57 42 26 24 5f 85 44 c5 24 8a 09 8a 89 8a     ..WB&$_.D.$.....
    4b9f:	08 8b 88 8b 47 01 26 62 1a f9 93 3b 2e 22 2c 22     ....G.&b...;.","
    4baf:	2a 26 28 26 55 4c a2 98 a8 88 b0 88 b8 78 14 00     *&(&UL.......x..
    4bbf:	26 63 16 f9 93 3b 6e aa a8 26 62 22 e2 e0 81 85     &c...;n..&b"....
    4bcf:	44 84 54 dc 3c 02 26 64 1b f9 93 3b 2e 22 2c 22     D.T.<.&d...;.","
    4bdf:	2a 26 28 26 55 48 54 8c 84 54 44 54 4c cc 3d 34     *&(&UHT..TDTL.=4
    4bef:	00 26 65 11 f9 93 57 42 e6 e4 9b a2 56 63 73 f1     .&e...WB....Vcs.
    4bff:	28 00 26 66 13 f9 93 3b 6e 6c aa a8 e6 a6 a8 6a     (.&f...;nl.....j
    4c0f:	6c 2e 1e 05 00 26 67 1c f9 93 3b 2e 22 2a 26 28     l....&g...;."*&(
    4c1f:	26 66 62 22 24 22 44 4e 64 24 42 22 42 2a 6e 1e     &fb"$"DNd$B"B*n.
    4c2f:	01 26 80 11 f9 93 1f fa 22 4e 9b 18 39 75 11 f7     .&......"N..9u..
    4c3f:	d0 00 26 81 13 f9 93 1f fa 22 4e 22 4a 4e ab 08     ..&......"N"JN..
    4c4f:	b9 88 7b 68 00 26 82 16 f9 93 1f fa 22 4e 22 4a     ..{h.&......"N"J
    4c5f:	4e 26 46 4e 2a 42 2e e2 1e 1a 00 26 83 15 f9 93     N&FN*B.....&....
    4c6f:	1f fa 22 4e 22 26 42 4e 8b 98 08 b9 88 7b 68 00     .."N"&BN.....{h.
    4c7f:	26 84 18 f9 93 1f fa 22 4e 22 26 42 4e 26 46 4e     &......"N"&BN&FN
    4c8f:	22 26 42 2e e2 1e 1a 00 26 85 19 f9 93 1f fa 22     "&B.....&......"
    4c9f:	4e 22 26 42 4e 22 26 42 4e 22 26 42 2e e2 1e 1a     N"&BN"&BN"&B....
    4caf:	00 27 13 12 f9 93 1f 51 60 ba c0 20 89 28 89 30     .'.....Q`.. .(.0
    4cbf:	79 a4 00 27 14 13 f9 93 1f 8d 9c 32 39 91 09 99     y..'.......29...
    4ccf:	09 21 2a 7a 14 00 27 15 16 f9 93 1f 5d 54 c4 cc     .!*z..'.....]T..
    4cdf:	c4 9a aa a9 9a 89 35 13 51 f1 40 00 27 16 15 f9     ......5.Q.@.'...
    4cef:	93 1f d9 8c cd 05 c5 d1 d0 05 c5 41 c4 cd 3c 0c     ...........A..<.
    4cff:	00 27 17 14 f9 93 1f 65 4c 54 44 5c 8a a8 98 a0     .'.....eLTD\....
    4d0f:	98 84 f1 68 00 27 18 14 f9 93 1f a1 88 10 99 dc     ...h.'..........
    4d1f:	94 84 90 84 8c 9c 3c 12 00 27 4f 11 f9 93 1f f8     ......<..'O.....
    4d2f:	24 2a 24 8a ab 83 92 f7 c0 00 27 50 10 f9 93 1f     $*$.......'P....
    4d3f:	fc e4 e0 60 8a 57 21 f7 e0 00 27 51 17 f9 93 1f     ...`.W!...'Q....
    4d4f:	d9 49 94 44 94 44 94 44 94 44 94 c4 41 c8 3d 34     .I.D.D.D.D..A.=4
    4d5f:	00 27 52 17 f9 93 1f dd c5 41 44 94 44 94 44 94     .'R......AD.D.D.
    4d6f:	44 94 44 94 c4 3d 38 00 00 00                       D.D..=8...

00004d79 <u8g2_font_8x13_mr>:
    4d79:	5f 02 03 02 04 04 01 02 05 08 0d 00 fe 09 fe 09     _...............
    4d89:	00 01 d7 03 dc 05 8f 20 08 d8 c1 e7 ff 33 00 21     ....... .....3.!
    4d99:	0b d8 c1 a7 e6 7d a7 e4 64 00 22 0c d8 c1 27 46     .....}..d."...'F
    4da9:	61 14 46 39 ff 06 23 12 d8 c1 67 8d c2 28 1b b6     a.F9..#...g..(..
    4db9:	28 1b b6 28 8c 72 56 00 24 12 d8 c1 a7 c6 43 96     (..(.rV.$.....C.
    4dc9:	a4 49 3c 27 69 92 0d 71 4e 06 25 12 d8 c1 27 66     .I<'i..qN.%...'f
    4dd9:	51 12 65 51 9c c7 a5 30 29 65 39 11 26 11 d8 c1     Q.eQ...0)e9.&...
    4de9:	e7 ac 46 61 94 aa 51 12 65 e1 92 d3 00 27 09 d8     ..Fa..Q.e....'..
    4df9:	c1 a7 e6 75 fe 15 28 0f d8 c1 a7 c7 79 9c d7 91     ...u..(.....y...
    4e09:	3c 47 72 22 00 29 0e d8 c1 27 e6 48 9e 23 79 39     <Gr".)...'.H.#y9
    4e19:	8f 73 06 2a 0e d8 c1 27 46 a9 38 8c 6a 94 f3 0b     .s.*...'F.8.j...
    4e29:	00 2b 0b d8 c1 e7 5e 1d d4 3c e7 05 2c 09 d8 c1     .+....^..<..,...
    4e39:	e7 3f ae 6a 4e 2d 0a d8 c1 e7 fb a0 f3 0b 00 2e     .?.jN-..........
    4e49:	0a d8 c1 e7 bf c6 73 8e 02 2f 0b d8 c1 67 c9 e3     ......s../...g..
    4e59:	be e7 4c 00 30 13 d8 c1 a7 aa 51 16 46 61 14 46     ..L.0.....Q.Fa.F
    4e69:	61 14 66 51 aa 53 01 31 0d d8 c1 a7 c6 6a 92 f7     a.fQ.S.1.....j..
    4e79:	3a e8 44 00 32 11 d8 c1 27 0e 59 18 85 79 9c aa     :.D.2...'.Y..y..
    4e89:	71 3e ec 34 00 33 10 d8 c1 a7 0d 7b 5c de 91 3c     q>.4.3.....{\..<
    4e99:	0a b3 21 27 02 34 10 d8 c1 a7 c7 6a 12 46 59 b7     ..!'.4.....j.FY.
    4ea9:	61 ce 73 22 00 35 10 d8 c1 a7 0d 53 5e d9 b4 bc     a.s".5.....S^...
    4eb9:	14 66 43 4e 04 36 11 d8 c1 a7 8e 71 5e d9 b4 28     .fCN.6.....q^..(
    4ec9:	8c c2 6c c8 89 00 37 0d d8 c1 a7 0d 7b 5c 8f f3     ..l...7.....{\..
    4ed9:	38 cf 19 38 14 d8 c1 27 0e 59 18 85 51 98 0d 59     8..8...'.Y..Q..Y
    4ee9:	18 85 51 98 0d 39 11 39 11 d8 c1 27 0e 59 18 85     ..Q..9.9...'.Y..
    4ef9:	51 a6 2d 79 39 dc a9 00 3a 0d d8 c1 e7 1e cf 39     Q.-y9...:......9
    4f09:	53 3c e7 28 00 3b 0c d8 c1 e7 1e cf 39 cb aa e6     S<.(.;......9...
    4f19:	04 3c 0f d8 c1 67 89 bb 23 39 92 23 39 92 d3 00     .<...g..#9.#9...
    4f29:	3d 0b d8 c1 e7 79 d8 89 c3 ce 15 3e 0f d8 c1 a7     =....y.....>....
    4f39:	e5 48 8e e4 48 8e c4 dd 59 00 3f 0f d8 c1 27 0e     .H..H...Y.?...'.
    4f49:	59 18 85 79 5c cf 29 39 15 40 15 d8 c1 27 0e 59     Y..y\.)9.@...'.Y
    4f59:	18 85 51 34 25 51 25 91 2a 51 8e 0c 39 11 41 14     ..Q4%Q%.*Q..9.A.
    4f69:	d8 c1 a7 aa 51 16 46 61 14 46 c3 14 46 61 14 e6     ....Q.Fa.F..Fa..
    4f79:	34 00 42 13 d8 c1 a7 0d 61 56 8c b2 6c 08 b3 62     4.B.....aV..l..b
    4f89:	94 65 43 4e 05 43 0e d8 c1 27 0e 59 18 e5 3d 66     .eCN.C...'.Y..=f
    4f99:	43 4e 04 44 14 d8 c1 a7 0d 61 56 8c c2 28 8c c2     CN.D.....aV..(..
    4fa9:	28 8c b2 6c c8 a9 00 45 0f d8 c1 a7 0d 53 5e 1f     (..l...E.....S^.
    4fb9:	c2 bc 3e ec 34 00 46 0d d8 c1 a7 0d 53 5e 1f c2     ..>.4.F.....S^..
    4fc9:	bc 9d 05 47 11 d8 c1 27 0e 59 18 e5 4d 53 18 65     ...G...'.Y..MS.e
    4fd9:	da 92 d3 00 48 14 d8 c1 a7 85 51 18 85 51 18 0d     ....H.....Q..Q..
    4fe9:	53 18 85 51 18 85 39 0d 49 0c d8 c1 a7 0d 6a de     S..Q..9.I.....j.
    4ff9:	d7 41 27 02 4a 0c d8 c1 a7 0e 6a de 5b 71 a7 02     .A'.J.....j.[q..
    5009:	4b 12 d8 c1 a7 85 51 56 0a 93 54 4e d2 28 cc 8a     K.....QV..TN.(..
    5019:	39 0d 4c 0b d8 c1 a7 e5 fd 3e ec 34 00 4d 14 d8     9.L......>.4.M..
    5029:	c1 27 a5 49 9a 68 4a 4f 95 a8 92 26 69 92 e6 34     .'.I.hJO...&i..4
    5039:	00 4e 15 d8 c1 a7 85 51 18 69 51 12 b5 44 99 14     .N.....Q.iQ..D..
    5049:	46 61 14 e6 34 00 4f 14 d8 c1 27 0e 59 18 85 51     Fa..4.O...'.Y..Q
    5059:	18 85 51 18 85 51 98 0d 39 11 50 10 d8 c1 a7 0d     ..Q..Q..9.P.....
    5069:	5a 18 85 51 18 0d 5a de ce 02 51 16 d8 c1 27 0e     Z..Q..Z...Q...'.
    5079:	59 18 85 51 18 85 51 18 25 51 4b 36 e4 48 0e 01     Y..Q..Q.%QK6.H..
    5089:	52 14 d8 c1 a7 0d 5a 18 85 51 18 0d 5a 92 46 61     R.....Z..Q..Z.Fa
    5099:	56 cc 69 00 53 13 d8 c1 27 0e 59 18 e5 39 32 e4     V.i.S...'.Y..92.
    50a9:	48 1e 85 d9 90 13 01 54 0b d8 c1 27 0d 43 98 f7     H......T...'.C..
    50b9:	3b 19 55 14 d8 c1 a7 85 51 18 85 51 18 85 51 18     ;.U.....Q..Q..Q.
    50c9:	85 51 98 0d 39 11 56 11 d8 c1 27 a5 49 1a 65 3d     .Q..9.V...'.I.e=
    50d9:	26 69 92 26 71 4e 06 57 14 d8 c1 27 a5 49 9a a4     &i.&qN.W...'.I..
    50e9:	49 9a 44 95 a8 12 55 3a 65 39 11 58 13 d8 c1 27     I.D...U:e9.X...'
    50f9:	a5 49 1a 65 61 12 57 c2 2c 4a 93 34 a7 01 59 0f     .I.ea.W.,J.4..Y.
    5109:	d8 c1 27 a5 49 1a 65 61 12 e7 dd c9 00 5a 0d d8     ..'.I.ea.....Z..
    5119:	c1 a7 0d 7b dc 7b 3e ec 34 00 5b 0c d8 c1 27 0e     ...{.{>.4.[...'.
    5129:	61 de f7 21 27 02 5c 12 d8 c1 27 e5 39 92 23 39     a..!'.\...'.9.#9
    5139:	92 23 39 92 23 79 4e 03 5d 0b d8 c1 a7 0d 79 3f     .#9.#yN.].....y?
    5149:	0e 39 15 5e 0c d8 c1 a7 c6 49 98 e5 fc 1b 00 5f     .9.^.....I....._
    5159:	0a d8 c1 e7 ff 38 0c 39 04 60 0a d8 c1 07 73 24     .....8.9.`....s$
    5169:	e7 7f 06 61 10 d8 c1 e7 7d c8 91 6c 90 c2 28 d3     ...a....}..l..(.
    5179:	96 9c 06 62 11 d8 c1 a7 e5 2d 9b 16 85 51 18 69     ...b.....-...Q.i
    5189:	51 b2 13 01 63 0e d8 c1 e7 7d c8 c2 28 2f 66 43     Q...c....}..(/fC
    5199:	4e 04 64 12 d8 c1 67 c9 6b 4b 94 49 61 14 46 99     N.d...g.kK.Ia.F.
    51a9:	b6 e4 34 00 65 10 d8 c1 e7 7d c8 c2 68 98 f2 30     ..4.e....}..h..0
    51b9:	1b 72 22 00 66 0d d8 c1 a7 8e 59 3d 1e c4 bc 9d     .r".f.....Y=....
    51c9:	01 67 10 d8 c1 e7 7d 89 b2 c6 31 47 86 2c cc 86     .g....}...1G.,..
    51d9:	08 68 11 d8 c1 a7 e5 2d 9b 16 85 51 18 85 51 98     .h.....-...Q..Q.
    51e9:	d3 00 69 0c d8 c1 67 ce 71 bd eb a0 13 01 6a 0c     ..i...g.q.....j.
    51f9:	d8 c1 e7 92 e3 7a b7 8e 1b 00 6b 0f d8 c1 a7 e5     .....z....k.....
    5209:	6d a5 70 8d c2 ac 98 d3 00 6c 0b d8 c1 27 ea fd     m.p......l...'..
    5219:	3a e8 44 00 6d 10 d8 c1 e7 75 91 5a a2 4a 54 89     :.D.m....u.Z.JT.
    5229:	2a 69 4e 03 6e 10 d8 c1 e7 39 d9 b4 28 8c c2 28     *iN.n....9..(..(
    5239:	8c c2 9c 06 6f 10 d8 c1 e7 7d c8 c2 28 8c c2 28     ....o....}..(..(
    5249:	cc 86 9c 08 70 10 d8 c1 e7 39 d9 b4 28 8c b4 28     ....p....9..(..(
    5259:	d9 f2 32 00 71 0f d8 c1 e7 7d 89 32 29 8c 32 6d     ..2.q....}.2).2m
    5269:	c9 5b 00 72 0b d8 c1 e7 39 19 b3 7a 3b 03 73 10     .[.r....9..z;.s.
    5279:	d8 c1 e7 7d c8 c2 4c 47 b4 30 1b 72 22 00 74 0d     ...}..LG.0.r".t.
    5289:	d8 c1 67 cd e3 41 cc db c2 9d 08 75 0b d8 c1 e7     ..g..A.....u....
    5299:	39 eb 1f 97 9c 06 76 0d d8 c1 e7 39 eb 31 49 93     9.....v....9.1I.
    52a9:	38 27 03 77 10 d8 c1 e7 b5 92 26 51 25 aa 74 ca     8'.w......&Q%.t.
    52b9:	72 22 00 78 0f d8 c1 e7 39 cc a2 54 56 a3 2c cc     r".x....9..TV.,.
    52c9:	69 00 79 12 d8 c1 e7 39 8c c2 28 8c 32 6d c9 a3     i.y....9..(.2m..
    52d9:	30 1b 22 00 7a 0b d8 c1 e7 79 98 3b 0f 3b 0d 7b     0.".z....y.;.;.{
    52e9:	10 d8 c1 27 8f 79 8e a4 3a 12 e7 39 b2 d3 00 7c     ...'.y..:..9...|
    52f9:	09 d8 c1 a7 e6 fd 9d 0c 7d 10 d8 c1 a7 ed 48 1e     ........}.....H.
    5309:	e7 88 9a 23 79 b8 93 01 7e 0c d8 c1 27 46 59 52     ...#y...~...'FYR
    5319:	8b 72 fe 11 00 00 00 04 ff ff 00 00                 .r..........

00005325 <u8g2_font_5x7_mr>:
    5325:	5f 02 03 02 03 03 01 01 04 05 07 00 ff 06 ff 06     _...............
    5335:	00 01 2a 02 72 03 93 20 05 7d 7d 1e 21 08 7d ad     ..*.r.. .}}.!.}.
    5345:	b0 1d ca 01 22 09 7d 9d 52 12 25 39 03 23 0b 7d     ....".}.R.%9.#.}
    5355:	ed 24 19 94 ca a0 94 01 24 09 7d ed a5 b6 25 c9     .$......$.}...%.
    5365:	0c 25 09 7d 8d 30 ca 9a c2 18 26 0a 7d ed 2c c9     .%.}.0....&.}.,.
    5375:	2a 59 12 03 27 07 7d ad b0 ce 02 28 08 7d ad 2c     *Y..'.}....(.}.,
    5385:	6c cd 01 29 09 7d 9d 34 6c cb 11 00 2a 09 7d ed     l..).}.4l...*.}.
    5395:	24 cb b6 4a 0c 2b 09 7d fd 30 1a a4 30 07 2c 07     $..J.+.}.0..0.,.
    53a5:	7d 7d 16 ad 06 2d 08 7d 7d ca 90 93 00 2e 07 7d     }}...-.}}......}
    53b5:	7d ba a6 03 2f 07 7d 7d 24 6b 27 30 0c 7d ad 2c     }.../.}}$k'0.}.,
    53c5:	89 92 28 89 92 2c 07 31 08 7d ad 4c 6c 9b 01 32     ..(..,.1.}.Ll..2
    53d5:	09 7d 1d a9 98 d5 86 18 33 0b 7d 8d 21 8c d4 24     .}......3.}.!..$
    53e5:	8a 74 00 34 0b 7d ad 4c 4a a2 21 0b 73 00 35 0b     .t.4.}.LJ.!.s.5.
    53f5:	7d 8d 21 09 d7 24 8a 74 00 36 0a 7d 1d 29 9c 2a     }.!..$.t.6.}.).*
    5405:	51 a4 03 37 0b 7d 8d 21 cc c2 2c cc 11 00 38 0a     Q..7.}.!..,...8.
    5415:	7d 1d a9 24 55 a2 48 07 39 0a 7d 1d a9 12 45 63     }..$U.H.9.}...Ec
    5425:	a4 03 3a 08 7d 6d 4d 47 34 1d 3b 09 7d 6d 4d 47     ..:.}mMG4.;.}mMG
    5435:	b4 22 00 3c 08 7d 7d 24 ab 96 01 3d 09 7d 7d 6c     .".<.}}$...=.}}l
    5445:	88 87 1c 04 3e 08 7d ed b4 56 47 00 3f 0a 7d ad     ....>.}..VG.?.}.
    5455:	2c 09 b3 1c ca 01 40 0b 7d 1d a9 92 28 89 92 ea     ,.....@.}...(...
    5465:	00 41 0c 7d 1d a9 12 25 43 12 25 51 0c 42 0a 7d     .A.}...%C.%Q.B.}
    5475:	8d a9 32 55 a2 64 07 43 09 7d 1d a9 12 96 22 1d     ..2U.d.C.}....".
    5485:	44 0c 7d 8d a9 12 25 51 12 25 3b 00 45 0b 7d 8d     D.}...%Q.%;.E.}.
    5495:	21 09 a7 30 1c 62 00 46 0a 7d 8d 21 09 a7 b0 0e     !..0.b.F.}.!....
    54a5:	01 47 0b 7d 1d a9 12 26 4a 14 cd 00 48 0e 7d 8d     .G.}...&J...H.}.
    54b5:	28 89 92 21 89 92 28 89 62 00 49 08 7d 9d 2d 6c     (..!..(.b.I.}.-l
    54c5:	9b 01 4a 09 7d bd b0 25 8a 74 00 4b 0b 7d 8d 28     ..J.}..%.t.K.}.(
    54d5:	29 69 5a 12 95 01 4c 08 7d 8d b0 e3 10 03 4d 0e     )iZ...L.}.....M.
    54e5:	7d 8d 28 19 92 21 89 92 28 89 62 00 4e 0d 7d 8d     }.(..!..(.b.N.}.
    54f5:	28 51 12 a5 a2 24 4a 14 03 4f 0c 7d 1d a9 12 25     (Q...$J..O.}...%
    5505:	51 12 45 3a 00 50 0b 7d 8d a9 12 25 53 98 43 00     Q.E:.P.}...%S.C.
    5515:	51 0c 7d 1d a9 12 25 51 a2 44 6a 02 52 0b 7d 8d     Q.}...%Q.Dj.R.}.
    5525:	a9 12 25 53 12 95 01 53 09 7d 1d a9 35 2a e9 00     ..%S...S.}..5*..
    5535:	54 07 7d 9d 2d ec 0e 55 0d 7d 8d 28 89 92 28 89     T.}.-..U.}.(..(.
    5545:	92 28 d2 01 56 0c 7d 8d 28 89 92 28 89 22 4d 07     .(..V.}.(..(."M.
    5555:	57 0e 7d 8d 28 89 92 28 19 92 21 89 62 00 58 0c     W.}.(..(..!.b.X.
    5565:	7d 8d 28 89 22 4d aa 44 31 00 59 0a 7d 9d 52 12     }.(."M.D1.Y.}.R.
    5575:	25 59 58 07 5a 09 7d 8d 21 cc 1a 87 18 5b 08 7d     %YX.Z.}.!....[.}
    5585:	9d 29 6c 9c 01 5c 07 7d dd ee 20 00 5d 07 7d 9d     .)l..\.}.. .].}.
    5595:	b1 d3 0c 5e 08 7d ad 2c c9 59 01 5f 07 7d 7d c6     ...^.}.,.Y._.}}.
    55a5:	21 06 60 07 7d 9d 34 67 06 61 0b 7d 7d 70 89 92     !.`.}.4g.a.}}p..
    55b5:	44 4a 62 00 62 0a 7d 8d 30 9c 2a 51 b2 03 63 08     DJb.b.}.0.*Q..c.
    55c5:	7d 7d 50 0a 53 1d 64 0b 7d bd 30 5a a2 24 8a 66     }}P.S.d.}.0Z.$.f
    55d5:	00 65 09 7d 7d 50 4a 8c 3a 00 66 0b 7d ad 2c 89     .e.}}PJ.:.f.}.,.
    55e5:	b2 2d cc 11 00 67 0a 7d 7d 70 89 22 29 5d 00 68     .-...g.}}p.")].h
    55f5:	0b 7d 8d 30 9c 2a 51 12 c5 00 69 09 7d ad 1c 11     .}.0.*Q...i.}...
    5605:	6b 33 00 6a 0a 7d bd 1c 0a 4b 49 16 01 6b 0a 7d     k3.j.}...KI..k.}
    5615:	8d b0 12 69 49 54 06 6c 07 7d 1d b1 db 0c 6d 0b     ...iIT.l.}....m.
    5625:	7d 7d 2c 89 86 24 4a a2 18 6e 0a 7d 7d 6c aa 44     }},..$J..n.}}l.D
    5635:	49 14 03 6f 09 7d 7d 50 aa 44 91 0e 70 0a 7d 7d     I..o.}}P.D..p.}}
    5645:	6c aa 44 c9 14 02 71 0b 7d 7d 70 89 92 28 1a 13     l.D...q.}}p..(..
    5655:	00 72 09 7d 7d 6c aa 84 39 04 73 08 7d 7d 70 51     .r.}}l..9.s.}}pQ
    5665:	95 1d 74 09 7d 9d 30 db c2 54 06 75 0b 7d 7d 2c     ..t.}.0..T.u.}},
    5675:	4a a2 24 8a 66 00 76 0b 7d 7d 30 89 92 28 c9 72     J.$.f.v.}}0..(.r
    5685:	00 77 0b 7d 7d 2c 4a a2 64 48 86 18 78 09 7d 7d     .w.}},J.dH..x.}}
    5695:	2c 8a 34 a9 0c 79 0a 7d 7d 2c 4a a2 4a 56 03 7a     ,.4..y.}},J.JV.z
    56a5:	09 7d 7d 6c c8 6a 43 0c 7b 08 7d bd 9a 58 8d 01     .}}l.jC.{.}..X..
    56b5:	7c 07 7d ad b0 77 00 7d 0a 7d 9d 34 d4 c2 2c 47     |.}..w.}.}.4..,G
    56c5:	00 7e 07 7d 9d ee cc 00 00 00 00 04 ff ff 00 00     .~.}............
	...

000056d6 <__ctors_start>:
__ctors_start():
    56d6:	06 4c       	sbci	r16, 0xC6	; 198

000056d8 <__ctors_end>:
__ctors_end():
../../../../crt1/gcrt1.S:230
    56d8:	11 24       	eor	r1, r1
../../../../crt1/gcrt1.S:231
    56da:	1f be       	out	0x3f, r1	; 63
../../../../crt1/gcrt1.S:232
    56dc:	cf ef       	ldi	r28, 0xFF	; 255
../../../../crt1/gcrt1.S:234
    56de:	cd bf       	out	0x3d, r28	; 61
../../../../crt1/gcrt1.S:236
    56e0:	df e7       	ldi	r29, 0x7F	; 127
../../../../crt1/gcrt1.S:237
    56e2:	de bf       	out	0x3e, r29	; 62

000056e4 <_initThreeStuff()>:
__do_copy_data():
/home/admin/build/toolchain-avr-special/gcc-build/avr/avrxmega2/libgcc/../../../../gcc/libgcc/config/avr/lib1funcs.S:2409
    56e4:	12 e6       	ldi	r17, 0x62	; 98
/home/admin/build/toolchain-avr-special/gcc-build/avr/avrxmega2/libgcc/../../../../gcc/libgcc/config/avr/lib1funcs.S:2410
    56e6:	a0 e0       	ldi	r26, 0x00	; 0
/home/admin/build/toolchain-avr-special/gcc-build/avr/avrxmega2/libgcc/../../../../gcc/libgcc/config/avr/lib1funcs.S:2411
    56e8:	b0 e6       	ldi	r27, 0x60	; 96
/home/admin/build/toolchain-avr-special/gcc-build/avr/avrxmega2/libgcc/../../../../gcc/libgcc/config/avr/lib1funcs.S:2412
    56ea:	ec ed       	ldi	r30, 0xDC	; 220
/home/admin/build/toolchain-avr-special/gcc-build/avr/avrxmega2/libgcc/../../../../gcc/libgcc/config/avr/lib1funcs.S:2413
    56ec:	fe ec       	ldi	r31, 0xCE	; 206
/home/admin/build/toolchain-avr-special/gcc-build/avr/avrxmega2/libgcc/../../../../gcc/libgcc/config/avr/lib1funcs.S:2414
    56ee:	02 c0       	rjmp	.+4      	; 0x56f4 <_initThreeStuff()+0x10>
/home/admin/build/toolchain-avr-special/gcc-build/avr/avrxmega2/libgcc/../../../../gcc/libgcc/config/avr/lib1funcs.S:2417
    56f0:	05 90       	lpm	r0, Z+
/home/admin/build/toolchain-avr-special/gcc-build/avr/avrxmega2/libgcc/../../../../gcc/libgcc/config/avr/lib1funcs.S:2422
    56f2:	0d 92       	st	X+, r0
/home/admin/build/toolchain-avr-special/gcc-build/avr/avrxmega2/libgcc/../../../../gcc/libgcc/config/avr/lib1funcs.S:2424
    56f4:	a4 37       	cpi	r26, 0x74	; 116
/home/admin/build/toolchain-avr-special/gcc-build/avr/avrxmega2/libgcc/../../../../gcc/libgcc/config/avr/lib1funcs.S:2425
    56f6:	b1 07       	cpc	r27, r17
/home/admin/build/toolchain-avr-special/gcc-build/avr/avrxmega2/libgcc/../../../../gcc/libgcc/config/avr/lib1funcs.S:2426
    56f8:	d9 f7       	brne	.-10     	; 0x56f0 <_initThreeStuff()+0xc>

000056fa <__do_clear_bss>:
__do_clear_bss():
/home/admin/build/toolchain-avr-special/gcc-build/avr/avrxmega2/libgcc/../../../../gcc/libgcc/config/avr/lib1funcs.S:2441
    56fa:	2f e6       	ldi	r18, 0x6F	; 111
/home/admin/build/toolchain-avr-special/gcc-build/avr/avrxmega2/libgcc/../../../../gcc/libgcc/config/avr/lib1funcs.S:2442
    56fc:	a4 e7       	ldi	r26, 0x74	; 116
/home/admin/build/toolchain-avr-special/gcc-build/avr/avrxmega2/libgcc/../../../../gcc/libgcc/config/avr/lib1funcs.S:2443
    56fe:	b2 e6       	ldi	r27, 0x62	; 98
/home/admin/build/toolchain-avr-special/gcc-build/avr/avrxmega2/libgcc/../../../../gcc/libgcc/config/avr/lib1funcs.S:2444
    5700:	01 c0       	rjmp	.+2      	; 0x5704 <.do_clear_bss_start>

00005702 <.do_clear_bss_loop>:
/home/admin/build/toolchain-avr-special/gcc-build/avr/avrxmega2/libgcc/../../../../gcc/libgcc/config/avr/lib1funcs.S:2446
    5702:	1d 92       	st	X+, r1

00005704 <.do_clear_bss_start>:
/home/admin/build/toolchain-avr-special/gcc-build/avr/avrxmega2/libgcc/../../../../gcc/libgcc/config/avr/lib1funcs.S:2448
    5704:	a8 3c       	cpi	r26, 0xC8	; 200
/home/admin/build/toolchain-avr-special/gcc-build/avr/avrxmega2/libgcc/../../../../gcc/libgcc/config/avr/lib1funcs.S:2449
    5706:	b2 07       	cpc	r27, r18
/home/admin/build/toolchain-avr-special/gcc-build/avr/avrxmega2/libgcc/../../../../gcc/libgcc/config/avr/lib1funcs.S:2450
    5708:	e1 f7       	brne	.-8      	; 0x5702 <.do_clear_bss_loop>

0000570a <__do_global_ctors>:
__do_global_ctors():
/home/admin/build/toolchain-avr-special/gcc-build/avr/avrxmega2/libgcc/../../../../gcc/libgcc/config/avr/lib1funcs.S:2466
    570a:	1b e2       	ldi	r17, 0x2B	; 43
/home/admin/build/toolchain-avr-special/gcc-build/avr/avrxmega2/libgcc/../../../../gcc/libgcc/config/avr/lib1funcs.S:2467
    570c:	cc e6       	ldi	r28, 0x6C	; 108
/home/admin/build/toolchain-avr-special/gcc-build/avr/avrxmega2/libgcc/../../../../gcc/libgcc/config/avr/lib1funcs.S:2468
    570e:	db e2       	ldi	r29, 0x2B	; 43
/home/admin/build/toolchain-avr-special/gcc-build/avr/avrxmega2/libgcc/../../../../gcc/libgcc/config/avr/lib1funcs.S:2472
    5710:	04 c0       	rjmp	.+8      	; 0x571a <__do_global_ctors+0x10>
/home/admin/build/toolchain-avr-special/gcc-build/avr/avrxmega2/libgcc/../../../../gcc/libgcc/config/avr/lib1funcs.S:2474
    5712:	21 97       	sbiw	r28, 0x01	; 1
/home/admin/build/toolchain-avr-special/gcc-build/avr/avrxmega2/libgcc/../../../../gcc/libgcc/config/avr/lib1funcs.S:2480
    5714:	fe 01       	movw	r30, r28
/home/admin/build/toolchain-avr-special/gcc-build/avr/avrxmega2/libgcc/../../../../gcc/libgcc/config/avr/lib1funcs.S:2481
    5716:	0e 94 5f 67 	call	0xcebe	; 0xcebe <__tablejump2__>
/home/admin/build/toolchain-avr-special/gcc-build/avr/avrxmega2/libgcc/../../../../gcc/libgcc/config/avr/lib1funcs.S:2483
    571a:	cb 36       	cpi	r28, 0x6B	; 107
/home/admin/build/toolchain-avr-special/gcc-build/avr/avrxmega2/libgcc/../../../../gcc/libgcc/config/avr/lib1funcs.S:2484
    571c:	d1 07       	cpc	r29, r17
/home/admin/build/toolchain-avr-special/gcc-build/avr/avrxmega2/libgcc/../../../../gcc/libgcc/config/avr/lib1funcs.S:2489
    571e:	c9 f7       	brne	.-14     	; 0x5712 <__do_global_ctors+0x8>
../../../../crt1/gcrt1.S:314
    5720:	0e 94 9b 4f 	call	0x9f36	; 0x9f36 <main>
../../../../crt1/gcrt1.S:315
    5724:	0c 94 6c 67 	jmp	0xced8	; 0xced8 <_exit>

00005728 <__bad_interrupt>:
__vector_38():
../../../../crt1/gcrt1.S:209
    5728:	0c 94 00 01 	jmp	0x200	; 0x200 <__vectors>

0000572c <u8x8_ascii_next>:
u8x8_ascii_next():
C:\Users\dax\AppData\Local\Arduino15\packages\DxCore\hardware\megaavr\1.4.10\cores\dxcore/main.cpp:198
  // Finally, none of these three things need to be done if running optiboot!
  // We want the vectors in the alt location, it checks, clears, and stashes the reset flags (in GPR0)
  // and it providews the entrypoint we call to write to flash.
#else
  void _initThreeStuff() __attribute__ ((naked)) __attribute__((used)) __attribute__ ((section (".init3")));
  void _initThreeStuff() {
    572c:	66 23       	and	r22, r22
    572e:	29 f0       	breq	.+10     	; 0x573a <u8x8_ascii_next+0xe>
    5730:	6a 30       	cpi	r22, 0x0A	; 10
    5732:	19 f0       	breq	.+6      	; 0x573a <u8x8_ascii_next+0xe>
    5734:	86 2f       	mov	r24, r22
    5736:	90 e0       	ldi	r25, 0x00	; 0
    5738:	08 95       	ret
    573a:	8f ef       	ldi	r24, 0xFF	; 255
    573c:	9f ef       	ldi	r25, 0xFF	; 255
    573e:	08 95       	ret

00005740 <u8g2_ll_hvline_vertical_top_lsb>:
u8g2_ll_hvline_vertical_top_lsb():
    5740:	af 92       	push	r10
    5742:	bf 92       	push	r11
    5744:	cf 92       	push	r12
    5746:	df 92       	push	r13
    5748:	ef 92       	push	r14
    574a:	ff 92       	push	r15
    574c:	0f 93       	push	r16
    574e:	cf 93       	push	r28
    5750:	df 93       	push	r29
    5752:	ec 01       	movw	r28, r24
    5754:	da 01       	movw	r26, r20
    5756:	79 01       	movw	r14, r18
    5758:	94 2f       	mov	r25, r20
    575a:	97 70       	andi	r25, 0x07	; 7
    575c:	e1 e0       	ldi	r30, 0x01	; 1
    575e:	f0 e0       	ldi	r31, 0x00	; 0
    5760:	9f 01       	movw	r18, r30
    5762:	09 2e       	mov	r0, r25
    5764:	01 c0       	rjmp	.+2      	; 0x5768 <u8g2_ll_hvline_vertical_top_lsb+0x28>
    5766:	22 0f       	add	r18, r18
    5768:	0a 94       	dec	r0
    576a:	ea f7       	brpl	.-6      	; 0x5766 <u8g2_ll_hvline_vertical_top_lsb+0x26>
    576c:	52 2f       	mov	r21, r18
    576e:	6e 01       	movw	r12, r28
    5770:	8a e8       	ldi	r24, 0x8A	; 138
    5772:	c8 0e       	add	r12, r24
    5774:	d1 1c       	adc	r13, r1
    5776:	f6 01       	movw	r30, r12
    5778:	80 81       	ld	r24, Z
    577a:	40 e0       	ldi	r20, 0x00	; 0
    577c:	82 30       	cpi	r24, 0x02	; 2
    577e:	18 f4       	brcc	.+6      	; 0x5786 <u8g2_ll_hvline_vertical_top_lsb+0x46>
    5780:	42 2f       	mov	r20, r18
    5782:	81 30       	cpi	r24, 0x01	; 1
    5784:	49 f1       	breq	.+82     	; 0x57d8 <u8g2_ll_hvline_vertical_top_lsb+0x98>
    5786:	5d 01       	movw	r10, r26
    5788:	f8 ef       	ldi	r31, 0xF8	; 248
    578a:	af 22       	and	r10, r31
    578c:	e8 ad       	ldd	r30, Y+56	; 0x38
    578e:	f9 ad       	ldd	r31, Y+57	; 0x39
    5790:	28 81       	ld	r18, Y
    5792:	39 81       	ldd	r19, Y+1	; 0x01
    5794:	d9 01       	movw	r26, r18
    5796:	50 96       	adiw	r26, 0x10	; 16
    5798:	8c 91       	ld	r24, X
    579a:	8a 9d       	mul	r24, r10
    579c:	90 01       	movw	r18, r0
    579e:	8b 9d       	mul	r24, r11
    57a0:	30 0d       	add	r19, r0
    57a2:	11 24       	eor	r1, r1
    57a4:	62 0f       	add	r22, r18
    57a6:	73 1f       	adc	r23, r19
    57a8:	df 01       	movw	r26, r30
    57aa:	a6 0f       	add	r26, r22
    57ac:	b7 1f       	adc	r27, r23
    57ae:	01 11       	cpse	r16, r1
    57b0:	1a c0       	rjmp	.+52     	; 0x57e6 <u8g2_ll_hvline_vertical_top_lsb+0xa6>
    57b2:	ea 0e       	add	r14, r26
    57b4:	fb 1e       	adc	r15, r27
    57b6:	8c 91       	ld	r24, X
    57b8:	84 2b       	or	r24, r20
    57ba:	85 27       	eor	r24, r21
    57bc:	8d 93       	st	X+, r24
    57be:	ae 15       	cp	r26, r14
    57c0:	bf 05       	cpc	r27, r15
    57c2:	c9 f7       	brne	.-14     	; 0x57b6 <u8g2_ll_hvline_vertical_top_lsb+0x76>
    57c4:	df 91       	pop	r29
    57c6:	cf 91       	pop	r28
    57c8:	0f 91       	pop	r16
    57ca:	ff 90       	pop	r15
    57cc:	ef 90       	pop	r14
    57ce:	df 90       	pop	r13
    57d0:	cf 90       	pop	r12
    57d2:	bf 90       	pop	r11
    57d4:	af 90       	pop	r10
    57d6:	08 95       	ret
    57d8:	50 e0       	ldi	r21, 0x00	; 0
    57da:	d5 cf       	rjmp	.-86     	; 0x5786 <u8g2_ll_hvline_vertical_top_lsb+0x46>
    57dc:	44 0f       	add	r20, r20
    57de:	55 0f       	add	r21, r21
    57e0:	e1 14       	cp	r14, r1
    57e2:	f1 04       	cpc	r15, r1
    57e4:	79 f3       	breq	.-34     	; 0x57c4 <u8g2_ll_hvline_vertical_top_lsb+0x84>
    57e6:	3c 91       	ld	r19, X
    57e8:	34 2b       	or	r19, r20
    57ea:	35 27       	eor	r19, r21
    57ec:	3c 93       	st	X, r19
    57ee:	9f 5f       	subi	r25, 0xFF	; 255
    57f0:	97 70       	andi	r25, 0x07	; 7
    57f2:	e1 e0       	ldi	r30, 0x01	; 1
    57f4:	ee 1a       	sub	r14, r30
    57f6:	f1 08       	sbc	r15, r1
    57f8:	91 11       	cpse	r25, r1
    57fa:	f0 cf       	rjmp	.-32     	; 0x57dc <u8g2_ll_hvline_vertical_top_lsb+0x9c>
    57fc:	2c ad       	ldd	r18, Y+60	; 0x3c
    57fe:	3d ad       	ldd	r19, Y+61	; 0x3d
    5800:	a2 0f       	add	r26, r18
    5802:	b3 1f       	adc	r27, r19
    5804:	f6 01       	movw	r30, r12
    5806:	80 81       	ld	r24, Z
    5808:	82 30       	cpi	r24, 0x02	; 2
    580a:	28 f4       	brcc	.+10     	; 0x5816 <u8g2_ll_hvline_vertical_top_lsb+0xd6>
    580c:	81 30       	cpi	r24, 0x01	; 1
    580e:	09 f0       	breq	.+2      	; 0x5812 <u8g2_ll_hvline_vertical_top_lsb+0xd2>
    5810:	51 e0       	ldi	r21, 0x01	; 1
    5812:	41 e0       	ldi	r20, 0x01	; 1
    5814:	e5 cf       	rjmp	.-54     	; 0x57e0 <u8g2_ll_hvline_vertical_top_lsb+0xa0>
    5816:	51 e0       	ldi	r21, 0x01	; 1
    5818:	e3 cf       	rjmp	.-58     	; 0x57e0 <u8g2_ll_hvline_vertical_top_lsb+0xa0>

0000581a <u8x8_dummy_cb>:
u8x8_dummy_cb():
    581a:	80 e0       	ldi	r24, 0x00	; 0
    581c:	08 95       	ret

0000581e <u8g2_font_calc_vref_font>:
u8g2_font_calc_vref_font():
    581e:	90 e0       	ldi	r25, 0x00	; 0
    5820:	80 e0       	ldi	r24, 0x00	; 0
    5822:	08 95       	ret

00005824 <dxUtilClass::checkFreeStack() [clone .constprop.157]>:
FreeStack():
    5824:	8d b7       	in	r24, 0x3d	; 61
    5826:	9e b7       	in	r25, 0x3e	; 62
    5828:	20 91 c2 6f 	lds	r18, 0x6FC2	; 0x806fc2 <__brkval>
    582c:	30 91 c3 6f 	lds	r19, 0x6FC3	; 0x806fc3 <__brkval+0x1>
    5830:	21 15       	cp	r18, r1
    5832:	31 05       	cpc	r19, r1
    5834:	71 f0       	breq	.+28     	; 0x5852 <dxUtilClass::checkFreeStack() [clone .constprop.157]+0x2e>
    5836:	82 1b       	sub	r24, r18
    5838:	93 0b       	sbc	r25, r19
checkFreeStack():
    583a:	20 91 3b 60 	lds	r18, 0x603B	; 0x80603b <dxUtil+0x4>
    583e:	30 91 3c 60 	lds	r19, 0x603C	; 0x80603c <dxUtil+0x5>
    5842:	82 17       	cp	r24, r18
    5844:	93 07       	cpc	r25, r19
    5846:	24 f4       	brge	.+8      	; 0x5850 <dxUtilClass::checkFreeStack() [clone .constprop.157]+0x2c>
    5848:	80 93 3b 60 	sts	0x603B, r24	; 0x80603b <dxUtil+0x4>
    584c:	90 93 3c 60 	sts	0x603C, r25	; 0x80603c <dxUtil+0x5>
    5850:	08 95       	ret
FreeStack():
    5852:	88 5c       	subi	r24, 0xC8	; 200
    5854:	9f 46       	sbci	r25, 0x6F	; 111
    5856:	f1 cf       	rjmp	.-30     	; 0x583a <dxUtilClass::checkFreeStack() [clone .constprop.157]+0x16>

00005858 <UImanager::isSplitScreen() [clone .constprop.153]>:
_ZN10K197device5isCalEv():
    5858:	80 91 a6 6f 	lds	r24, 0x6FA6	; 0x806fa6 <k197dev+0x10>
    585c:	80 fd       	sbrc	r24, 0
    585e:	0d c0       	rjmp	.+26     	; 0x587a <UImanager::isSplitScreen() [clone .constprop.153]+0x22>
_ZN9UImanager12isFullScreenEv.isra.2():
    5860:	80 91 7f 6f 	lds	r24, 0x6F7F	; 0x806f7f <uiman+0x6>
    5864:	90 91 80 6f 	lds	r25, 0x6F80	; 0x806f80 <uiman+0x7>
    5868:	24 e0       	ldi	r18, 0x04	; 4
    586a:	96 95       	lsr	r25
    586c:	87 95       	ror	r24
    586e:	2a 95       	dec	r18
    5870:	e1 f7       	brne	.-8      	; 0x586a <UImanager::isSplitScreen() [clone .constprop.153]+0x12>
    5872:	81 70       	andi	r24, 0x01	; 1
isSplitScreen():
    5874:	91 e0       	ldi	r25, 0x01	; 1
    5876:	89 27       	eor	r24, r25
    5878:	08 95       	ret
    587a:	81 e0       	ldi	r24, 0x01	; 1
    587c:	fb cf       	rjmp	.-10     	; 0x5874 <UImanager::isSplitScreen() [clone .constprop.153]+0x1c>

0000587e <k197ButtonCluster::isPressed(K197UIeventsource) [clone .constprop.152]>:
isPressed():
    587e:	e2 e1       	ldi	r30, 0x12	; 18
    5880:	f9 e0       	ldi	r31, 0x09	; 9
    5882:	e4 91       	lpm	r30, Z
    5884:	e8 17       	cp	r30, r24
    5886:	c1 f0       	breq	.+48     	; 0x58b8 <k197ButtonCluster::isPressed(K197UIeventsource) [clone .constprop.152]+0x3a>
    5888:	e3 e1       	ldi	r30, 0x13	; 19
    588a:	f9 e0       	ldi	r31, 0x09	; 9
    588c:	e4 91       	lpm	r30, Z
    588e:	8e 17       	cp	r24, r30
    5890:	b1 f0       	breq	.+44     	; 0x58be <k197ButtonCluster::isPressed(K197UIeventsource) [clone .constprop.152]+0x40>
    5892:	e4 e1       	ldi	r30, 0x14	; 20
    5894:	f9 e0       	ldi	r31, 0x09	; 9
    5896:	e4 91       	lpm	r30, Z
    5898:	8e 17       	cp	r24, r30
    589a:	a1 f0       	breq	.+40     	; 0x58c4 <k197ButtonCluster::isPressed(K197UIeventsource) [clone .constprop.152]+0x46>
    589c:	e5 e1       	ldi	r30, 0x15	; 21
    589e:	f9 e0       	ldi	r31, 0x09	; 9
    58a0:	e4 91       	lpm	r30, Z
    58a2:	e8 13       	cpse	r30, r24
    58a4:	07 c0       	rjmp	.+14     	; 0x58b4 <k197ButtonCluster::isPressed(K197UIeventsource) [clone .constprop.152]+0x36>
    58a6:	e3 e0       	ldi	r30, 0x03	; 3
    58a8:	f0 e0       	ldi	r31, 0x00	; 0
    58aa:	ed 5c       	subi	r30, 0xCD	; 205
    58ac:	ff 49       	sbci	r31, 0x9F	; 159
    58ae:	81 e0       	ldi	r24, 0x01	; 1
    58b0:	90 81       	ld	r25, Z
    58b2:	91 11       	cpse	r25, r1
    58b4:	80 e0       	ldi	r24, 0x00	; 0
    58b6:	08 95       	ret
    58b8:	f0 e0       	ldi	r31, 0x00	; 0
    58ba:	e0 e0       	ldi	r30, 0x00	; 0
    58bc:	f6 cf       	rjmp	.-20     	; 0x58aa <k197ButtonCluster::isPressed(K197UIeventsource) [clone .constprop.152]+0x2c>
    58be:	e1 e0       	ldi	r30, 0x01	; 1
    58c0:	f0 e0       	ldi	r31, 0x00	; 0
    58c2:	f3 cf       	rjmp	.-26     	; 0x58aa <k197ButtonCluster::isPressed(K197UIeventsource) [clone .constprop.152]+0x2c>
    58c4:	e2 e0       	ldi	r30, 0x02	; 2
    58c6:	f0 e0       	ldi	r31, 0x00	; 0
    58c8:	f0 cf       	rjmp	.-32     	; 0x58aa <k197ButtonCluster::isPressed(K197UIeventsource) [clone .constprop.152]+0x2c>

000058ca <UImanager::setContrast(unsigned char) [clone .constprop.116]>:
setContrast():
    58ca:	cf 93       	push	r28
    58cc:	c8 2f       	mov	r28, r24
u8x8_SetContrast():
    58ce:	e0 91 eb 6e 	lds	r30, 0x6EEB	; 0x806eeb <u8g2+0x8>
    58d2:	f0 91 ec 6e 	lds	r31, 0x6EEC	; 0x806eec <u8g2+0x9>
    58d6:	30 e0       	ldi	r19, 0x00	; 0
    58d8:	20 e0       	ldi	r18, 0x00	; 0
    58da:	48 2f       	mov	r20, r24
    58dc:	6e e0       	ldi	r22, 0x0E	; 14
    58de:	87 ee       	ldi	r24, 0xE7	; 231
    58e0:	9e e6       	ldi	r25, 0x6E	; 110
    58e2:	09 95       	icall
_ZN13MenuInputByte8setValueEh():
    58e4:	c0 93 a0 6e 	sts	0x6EA0, r28	; 0x806ea0 <contrastCtrl+0x6>
setContrast():
    58e8:	cf 91       	pop	r28
    58ea:	9c cf       	rjmp	.-200    	; 0x5824 <dxUtilClass::checkFreeStack() [clone .constprop.157]>

000058ec <u8g2_SetBufferCurrTileRow.constprop.114>:
u8g2_SetBufferCurrTileRow():
    58ec:	cf 93       	push	r28
    58ee:	df 93       	push	r29
    58f0:	c3 ee       	ldi	r28, 0xE3	; 227
    58f2:	de e6       	ldi	r29, 0x6E	; 110
    58f4:	8f af       	std	Y+63, r24	; 0x3f
    58f6:	ea ad       	ldd	r30, Y+58	; 0x3a
    58f8:	fb ad       	ldd	r31, Y+59	; 0x3b
    58fa:	01 90       	ld	r0, Z+
    58fc:	f0 81       	ld	r31, Z
    58fe:	e0 2d       	mov	r30, r0
    5900:	87 ee       	ldi	r24, 0xE7	; 231
    5902:	9e e6       	ldi	r25, 0x6E	; 110
    5904:	09 95       	icall
    5906:	ea ad       	ldd	r30, Y+58	; 0x3a
    5908:	fb ad       	ldd	r31, Y+59	; 0x3b
    590a:	02 80       	ldd	r0, Z+2	; 0x02
    590c:	f3 81       	ldd	r31, Z+3	; 0x03
    590e:	e0 2d       	mov	r30, r0
    5910:	87 ee       	ldi	r24, 0xE7	; 231
    5912:	9e e6       	ldi	r25, 0x6E	; 110
    5914:	df 91       	pop	r29
    5916:	cf 91       	pop	r28
    5918:	09 94       	ijmp

0000591a <Logic::attachInterrupt(void (*)(), unsigned char) [clone .constprop.100]>:
attachInterrupt():
    591a:	cf 93       	push	r28
    591c:	df 93       	push	r29
    591e:	fc 01       	movw	r30, r24
    5920:	a0 ec       	ldi	r26, 0xC0	; 192
    5922:	b1 e0       	ldi	r27, 0x01	; 1
    5924:	15 96       	adiw	r26, 0x05	; 5
    5926:	9c 91       	ld	r25, X
    5928:	15 97       	sbiw	r26, 0x05	; 5
    592a:	c3 85       	ldd	r28, Z+11	; 0x0b
    592c:	d4 85       	ldd	r29, Z+12	; 0x0c
    592e:	48 81       	ld	r20, Y
    5930:	44 0f       	add	r20, r20
    5932:	23 e0       	ldi	r18, 0x03	; 3
    5934:	30 e0       	ldi	r19, 0x00	; 0
    5936:	01 c0       	rjmp	.+2      	; 0x593a <Logic::attachInterrupt(void (*)(), unsigned char) [clone .constprop.100]+0x20>
    5938:	22 0f       	add	r18, r18
    593a:	4a 95       	dec	r20
    593c:	ea f7       	brpl	.-6      	; 0x5938 <Logic::attachInterrupt(void (*)(), unsigned char) [clone .constprop.100]+0x1e>
    593e:	92 2b       	or	r25, r18
    5940:	15 96       	adiw	r26, 0x05	; 5
    5942:	9c 93       	st	X, r25
    5944:	03 84       	ldd	r0, Z+11	; 0x0b
    5946:	f4 85       	ldd	r31, Z+12	; 0x0c
    5948:	e0 2d       	mov	r30, r0
    594a:	e0 81       	ld	r30, Z
    594c:	f0 e0       	ldi	r31, 0x00	; 0
    594e:	ee 0f       	add	r30, r30
    5950:	ff 1f       	adc	r31, r31
    5952:	e7 5c       	subi	r30, 0xC7	; 199
    5954:	fb 49       	sbci	r31, 0x9B	; 155
    5956:	8c e5       	ldi	r24, 0x5C	; 92
    5958:	9f e3       	ldi	r25, 0x3F	; 63
    595a:	80 83       	st	Z, r24
    595c:	91 83       	std	Z+1, r25	; 0x01
    595e:	df 91       	pop	r29
    5960:	cf 91       	pop	r28
    5962:	08 95       	ret

00005964 <Logic::initInput(in::input_t&, PORT_struct&, unsigned char) [clone .constprop.97]>:
initInput():
    5964:	fc 01       	movw	r30, r24
    5966:	80 81       	ld	r24, Z
    5968:	80 73       	andi	r24, 0x30	; 48
    596a:	91 f0       	breq	.+36     	; 0x5990 <Logic::initInput(in::input_t&, PORT_struct&, unsigned char) [clone .constprop.97]+0x2c>
    596c:	44 23       	and	r20, r20
    596e:	81 f0       	breq	.+32     	; 0x5990 <Logic::initInput(in::input_t&, PORT_struct&, unsigned char) [clone .constprop.97]+0x2c>
    5970:	db 01       	movw	r26, r22
    5972:	12 96       	adiw	r26, 0x02	; 2
    5974:	4c 93       	st	X, r20
    5976:	80 81       	ld	r24, Z
    5978:	85 32       	cpi	r24, 0x25	; 37
    597a:	11 f5       	brne	.+68     	; 0x59c0 <Logic::initInput(in::input_t&, PORT_struct&, unsigned char) [clone .constprop.97]+0x5c>
PINCTRL():
    597c:	41 30       	cpi	r20, 0x01	; 1
    597e:	49 f4       	brne	.+18     	; 0x5992 <Logic::initInput(in::input_t&, PORT_struct&, unsigned char) [clone .constprop.97]+0x2e>
    5980:	60 5f       	subi	r22, 0xF0	; 240
    5982:	7f 4f       	sbci	r23, 0xFF	; 255
initInput():
    5984:	db 01       	movw	r26, r22
    5986:	8c 91       	ld	r24, X
    5988:	87 7f       	andi	r24, 0xF7	; 247
    598a:	8c 93       	st	X, r24
    598c:	85 e2       	ldi	r24, 0x25	; 37
    598e:	80 83       	st	Z, r24
    5990:	08 95       	ret
PINCTRL():
    5992:	42 30       	cpi	r20, 0x02	; 2
    5994:	19 f4       	brne	.+6      	; 0x599c <Logic::initInput(in::input_t&, PORT_struct&, unsigned char) [clone .constprop.97]+0x38>
    5996:	6f 5e       	subi	r22, 0xEF	; 239
    5998:	7f 4f       	sbci	r23, 0xFF	; 255
    599a:	f4 cf       	rjmp	.-24     	; 0x5984 <Logic::initInput(in::input_t&, PORT_struct&, unsigned char) [clone .constprop.97]+0x20>
    599c:	44 30       	cpi	r20, 0x04	; 4
    599e:	19 f4       	brne	.+6      	; 0x59a6 <Logic::initInput(in::input_t&, PORT_struct&, unsigned char) [clone .constprop.97]+0x42>
    59a0:	6e 5e       	subi	r22, 0xEE	; 238
    59a2:	7f 4f       	sbci	r23, 0xFF	; 255
    59a4:	ef cf       	rjmp	.-34     	; 0x5984 <Logic::initInput(in::input_t&, PORT_struct&, unsigned char) [clone .constprop.97]+0x20>
    59a6:	48 30       	cpi	r20, 0x08	; 8
    59a8:	19 f4       	brne	.+6      	; 0x59b0 <Logic::initInput(in::input_t&, PORT_struct&, unsigned char) [clone .constprop.97]+0x4c>
    59aa:	6d 5e       	subi	r22, 0xED	; 237
    59ac:	7f 4f       	sbci	r23, 0xFF	; 255
    59ae:	ea cf       	rjmp	.-44     	; 0x5984 <Logic::initInput(in::input_t&, PORT_struct&, unsigned char) [clone .constprop.97]+0x20>
    59b0:	40 34       	cpi	r20, 0x40	; 64
    59b2:	19 f4       	brne	.+6      	; 0x59ba <Logic::initInput(in::input_t&, PORT_struct&, unsigned char) [clone .constprop.97]+0x56>
    59b4:	6a 5e       	subi	r22, 0xEA	; 234
    59b6:	7f 4f       	sbci	r23, 0xFF	; 255
    59b8:	e5 cf       	rjmp	.-54     	; 0x5984 <Logic::initInput(in::input_t&, PORT_struct&, unsigned char) [clone .constprop.97]+0x20>
    59ba:	69 5e       	subi	r22, 0xE9	; 233
    59bc:	7f 4f       	sbci	r23, 0xFF	; 255
    59be:	e2 cf       	rjmp	.-60     	; 0x5984 <Logic::initInput(in::input_t&, PORT_struct&, unsigned char) [clone .constprop.97]+0x20>
    59c0:	41 30       	cpi	r20, 0x01	; 1
    59c2:	31 f4       	brne	.+12     	; 0x59d0 <Logic::initInput(in::input_t&, PORT_struct&, unsigned char) [clone .constprop.97]+0x6c>
    59c4:	60 5f       	subi	r22, 0xF0	; 240
    59c6:	7f 4f       	sbci	r23, 0xFF	; 255
initInput():
    59c8:	db 01       	movw	r26, r22
    59ca:	8c 91       	ld	r24, X
    59cc:	88 60       	ori	r24, 0x08	; 8
    59ce:	dd cf       	rjmp	.-70     	; 0x598a <Logic::initInput(in::input_t&, PORT_struct&, unsigned char) [clone .constprop.97]+0x26>
PINCTRL():
    59d0:	42 30       	cpi	r20, 0x02	; 2
    59d2:	19 f4       	brne	.+6      	; 0x59da <Logic::initInput(in::input_t&, PORT_struct&, unsigned char) [clone .constprop.97]+0x76>
    59d4:	6f 5e       	subi	r22, 0xEF	; 239
    59d6:	7f 4f       	sbci	r23, 0xFF	; 255
    59d8:	f7 cf       	rjmp	.-18     	; 0x59c8 <Logic::initInput(in::input_t&, PORT_struct&, unsigned char) [clone .constprop.97]+0x64>
    59da:	44 30       	cpi	r20, 0x04	; 4
    59dc:	19 f4       	brne	.+6      	; 0x59e4 <Logic::initInput(in::input_t&, PORT_struct&, unsigned char) [clone .constprop.97]+0x80>
    59de:	6e 5e       	subi	r22, 0xEE	; 238
    59e0:	7f 4f       	sbci	r23, 0xFF	; 255
    59e2:	f2 cf       	rjmp	.-28     	; 0x59c8 <Logic::initInput(in::input_t&, PORT_struct&, unsigned char) [clone .constprop.97]+0x64>
    59e4:	48 30       	cpi	r20, 0x08	; 8
    59e6:	19 f4       	brne	.+6      	; 0x59ee <Logic::initInput(in::input_t&, PORT_struct&, unsigned char) [clone .constprop.97]+0x8a>
    59e8:	6d 5e       	subi	r22, 0xED	; 237
    59ea:	7f 4f       	sbci	r23, 0xFF	; 255
    59ec:	ed cf       	rjmp	.-38     	; 0x59c8 <Logic::initInput(in::input_t&, PORT_struct&, unsigned char) [clone .constprop.97]+0x64>
    59ee:	40 34       	cpi	r20, 0x40	; 64
    59f0:	19 f4       	brne	.+6      	; 0x59f8 <Logic::initInput(in::input_t&, PORT_struct&, unsigned char) [clone .constprop.97]+0x94>
    59f2:	6a 5e       	subi	r22, 0xEA	; 234
    59f4:	7f 4f       	sbci	r23, 0xFF	; 255
    59f6:	e8 cf       	rjmp	.-48     	; 0x59c8 <Logic::initInput(in::input_t&, PORT_struct&, unsigned char) [clone .constprop.97]+0x64>
    59f8:	69 5e       	subi	r22, 0xE9	; 233
    59fa:	7f 4f       	sbci	r23, 0xFF	; 255
    59fc:	e5 cf       	rjmp	.-54     	; 0x59c8 <Logic::initInput(in::input_t&, PORT_struct&, unsigned char) [clone .constprop.97]+0x64>

000059fe <Logic::init() [clone .constprop.96]>:
init():
    59fe:	cf 93       	push	r28
    5a00:	df 93       	push	r29
    5a02:	ec 01       	movw	r28, r24
    5a04:	eb 85       	ldd	r30, Y+11	; 0x0b
    5a06:	fc 85       	ldd	r31, Y+12	; 0x0c
    5a08:	06 84       	ldd	r0, Z+14	; 0x0e
    5a0a:	f7 85       	ldd	r31, Z+15	; 0x0f
    5a0c:	e0 2d       	mov	r30, r0
    5a0e:	10 82       	st	Z, r1
    5a10:	eb 85       	ldd	r30, Y+11	; 0x0b
    5a12:	fc 85       	ldd	r31, Y+12	; 0x0c
    5a14:	66 81       	ldd	r22, Z+6	; 0x06
    5a16:	77 81       	ldd	r23, Z+7	; 0x07
    5a18:	41 81       	ldd	r20, Z+1	; 0x01
    5a1a:	01 96       	adiw	r24, 0x01	; 1
    5a1c:	a3 df       	rcall	.-186    	; 0x5964 <Logic::initInput(in::input_t&, PORT_struct&, unsigned char) [clone .constprop.97]>
    5a1e:	eb 85       	ldd	r30, Y+11	; 0x0b
    5a20:	fc 85       	ldd	r31, Y+12	; 0x0c
    5a22:	66 81       	ldd	r22, Z+6	; 0x06
    5a24:	77 81       	ldd	r23, Z+7	; 0x07
    5a26:	42 81       	ldd	r20, Z+2	; 0x02
    5a28:	ce 01       	movw	r24, r28
    5a2a:	02 96       	adiw	r24, 0x02	; 2
    5a2c:	9b df       	rcall	.-202    	; 0x5964 <Logic::initInput(in::input_t&, PORT_struct&, unsigned char) [clone .constprop.97]>
    5a2e:	eb 85       	ldd	r30, Y+11	; 0x0b
    5a30:	fc 85       	ldd	r31, Y+12	; 0x0c
    5a32:	66 81       	ldd	r22, Z+6	; 0x06
    5a34:	77 81       	ldd	r23, Z+7	; 0x07
    5a36:	43 81       	ldd	r20, Z+3	; 0x03
    5a38:	ce 01       	movw	r24, r28
    5a3a:	03 96       	adiw	r24, 0x03	; 3
    5a3c:	93 df       	rcall	.-218    	; 0x5964 <Logic::initInput(in::input_t&, PORT_struct&, unsigned char) [clone .constprop.97]>
    5a3e:	8c 81       	ldd	r24, Y+4	; 0x04
    5a40:	81 30       	cpi	r24, 0x01	; 1
    5a42:	e1 f4       	brne	.+56     	; 0x5a7c <Logic::init() [clone .constprop.96]+0x7e>
    5a44:	8d 81       	ldd	r24, Y+5	; 0x05
    5a46:	eb 85       	ldd	r30, Y+11	; 0x0b
    5a48:	fc 85       	ldd	r31, Y+12	; 0x0c
    5a4a:	81 30       	cpi	r24, 0x01	; 1
    5a4c:	09 f0       	breq	.+2      	; 0x5a50 <Logic::init() [clone .constprop.96]+0x52>
    5a4e:	5a c0       	rjmp	.+180    	; 0x5b04 <Logic::init() [clone .constprop.96]+0x106>
    5a50:	85 81       	ldd	r24, Z+5	; 0x05
    5a52:	88 23       	and	r24, r24
    5a54:	99 f0       	breq	.+38     	; 0x5a7c <Logic::init() [clone .constprop.96]+0x7e>
    5a56:	80 91 e1 05 	lds	r24, 0x05E1	; 0x8005e1 <__TEXT_REGION_LENGTH__+0x7f05e1>
    5a5a:	90 81       	ld	r25, Z
    5a5c:	21 e0       	ldi	r18, 0x01	; 1
    5a5e:	30 e0       	ldi	r19, 0x00	; 0
    5a60:	01 c0       	rjmp	.+2      	; 0x5a64 <Logic::init() [clone .constprop.96]+0x66>
    5a62:	22 0f       	add	r18, r18
    5a64:	9a 95       	dec	r25
    5a66:	ea f7       	brpl	.-6      	; 0x5a62 <Logic::init() [clone .constprop.96]+0x64>
    5a68:	82 2b       	or	r24, r18
    5a6a:	80 93 e1 05 	sts	0x05E1, r24	; 0x8005e1 <__TEXT_REGION_LENGTH__+0x7f05e1>
    5a6e:	eb 85       	ldd	r30, Y+11	; 0x0b
    5a70:	fc 85       	ldd	r31, Y+12	; 0x0c
    5a72:	a0 85       	ldd	r26, Z+8	; 0x08
    5a74:	b1 85       	ldd	r27, Z+9	; 0x09
    5a76:	85 81       	ldd	r24, Z+5	; 0x05
    5a78:	11 96       	adiw	r26, 0x01	; 1
    5a7a:	8c 93       	st	X, r24
    5a7c:	eb 85       	ldd	r30, Y+11	; 0x0b
    5a7e:	fc 85       	ldd	r31, Y+12	; 0x0c
    5a80:	00 88       	ldd	r0, Z+16	; 0x10
    5a82:	f1 89       	ldd	r31, Z+17	; 0x11
    5a84:	e0 2d       	mov	r30, r0
    5a86:	8a 81       	ldd	r24, Y+2	; 0x02
    5a88:	90 e1       	ldi	r25, 0x10	; 16
    5a8a:	89 9f       	mul	r24, r25
    5a8c:	90 01       	movw	r18, r0
    5a8e:	11 24       	eor	r1, r1
    5a90:	89 81       	ldd	r24, Y+1	; 0x01
    5a92:	82 2b       	or	r24, r18
    5a94:	80 83       	st	Z, r24
    5a96:	eb 85       	ldd	r30, Y+11	; 0x0b
    5a98:	fc 85       	ldd	r31, Y+12	; 0x0c
    5a9a:	02 88       	ldd	r0, Z+18	; 0x12
    5a9c:	f3 89       	ldd	r31, Z+19	; 0x13
    5a9e:	e0 2d       	mov	r30, r0
    5aa0:	8b 81       	ldd	r24, Y+3	; 0x03
    5aa2:	80 83       	st	Z, r24
    5aa4:	eb 85       	ldd	r30, Y+11	; 0x0b
    5aa6:	fc 85       	ldd	r31, Y+12	; 0x0c
    5aa8:	04 88       	ldd	r0, Z+20	; 0x14
    5aaa:	f5 89       	ldd	r31, Z+21	; 0x15
    5aac:	e0 2d       	mov	r30, r0
    5aae:	88 85       	ldd	r24, Y+8	; 0x08
    5ab0:	80 83       	st	Z, r24
    5ab2:	eb 85       	ldd	r30, Y+11	; 0x0b
    5ab4:	fc 85       	ldd	r31, Y+12	; 0x0c
    5ab6:	80 81       	ld	r24, Z
    5ab8:	80 fd       	sbrc	r24, 0
    5aba:	05 c0       	rjmp	.+10     	; 0x5ac6 <Logic::init() [clone .constprop.96]+0xc8>
    5abc:	04 84       	ldd	r0, Z+12	; 0x0c
    5abe:	f5 85       	ldd	r31, Z+13	; 0x0d
    5ac0:	e0 2d       	mov	r30, r0
    5ac2:	89 85       	ldd	r24, Y+9	; 0x09
    5ac4:	80 83       	st	Z, r24
    5ac6:	8c 81       	ldd	r24, Y+4	; 0x04
    5ac8:	40 e4       	ldi	r20, 0x40	; 64
    5aca:	81 11       	cpse	r24, r1
    5acc:	01 c0       	rjmp	.+2      	; 0x5ad0 <Logic::init() [clone .constprop.96]+0xd2>
    5ace:	40 e0       	ldi	r20, 0x00	; 0
    5ad0:	8f 81       	ldd	r24, Y+7	; 0x07
    5ad2:	90 e8       	ldi	r25, 0x80	; 128
    5ad4:	81 11       	cpse	r24, r1
    5ad6:	01 c0       	rjmp	.+2      	; 0x5ada <Logic::init() [clone .constprop.96]+0xdc>
    5ad8:	90 e0       	ldi	r25, 0x00	; 0
    5ada:	eb 85       	ldd	r30, Y+11	; 0x0b
    5adc:	fc 85       	ldd	r31, Y+12	; 0x0c
    5ade:	06 84       	ldd	r0, Z+14	; 0x0e
    5ae0:	f7 85       	ldd	r31, Z+15	; 0x0f
    5ae2:	e0 2d       	mov	r30, r0
    5ae4:	2e 81       	ldd	r18, Y+6	; 0x06
    5ae6:	80 e1       	ldi	r24, 0x10	; 16
    5ae8:	28 9f       	mul	r18, r24
    5aea:	90 01       	movw	r18, r0
    5aec:	11 24       	eor	r1, r1
    5aee:	8a 85       	ldd	r24, Y+10	; 0x0a
    5af0:	88 0f       	add	r24, r24
    5af2:	82 2b       	or	r24, r18
    5af4:	28 81       	ld	r18, Y
    5af6:	82 2b       	or	r24, r18
    5af8:	84 2b       	or	r24, r20
    5afa:	89 2b       	or	r24, r25
    5afc:	80 83       	st	Z, r24
    5afe:	df 91       	pop	r29
    5b00:	cf 91       	pop	r28
    5b02:	08 95       	ret
    5b04:	81 11       	cpse	r24, r1
    5b06:	ba cf       	rjmp	.-140    	; 0x5a7c <Logic::init() [clone .constprop.96]+0x7e>
    5b08:	84 81       	ldd	r24, Z+4	; 0x04
    5b0a:	88 23       	and	r24, r24
    5b0c:	09 f4       	brne	.+2      	; 0x5b10 <Logic::init() [clone .constprop.96]+0x112>
    5b0e:	b6 cf       	rjmp	.-148    	; 0x5a7c <Logic::init() [clone .constprop.96]+0x7e>
    5b10:	20 91 e1 05 	lds	r18, 0x05E1	; 0x8005e1 <__TEXT_REGION_LENGTH__+0x7f05e1>
    5b14:	30 81       	ld	r19, Z
    5b16:	81 e0       	ldi	r24, 0x01	; 1
    5b18:	90 e0       	ldi	r25, 0x00	; 0
    5b1a:	01 c0       	rjmp	.+2      	; 0x5b1e <Logic::init() [clone .constprop.96]+0x120>
    5b1c:	88 0f       	add	r24, r24
    5b1e:	3a 95       	dec	r19
    5b20:	ea f7       	brpl	.-6      	; 0x5b1c <Logic::init() [clone .constprop.96]+0x11e>
    5b22:	80 95       	com	r24
    5b24:	82 23       	and	r24, r18
    5b26:	80 93 e1 05 	sts	0x05E1, r24	; 0x8005e1 <__TEXT_REGION_LENGTH__+0x7f05e1>
    5b2a:	eb 85       	ldd	r30, Y+11	; 0x0b
    5b2c:	fc 85       	ldd	r31, Y+12	; 0x0c
    5b2e:	a2 85       	ldd	r26, Z+10	; 0x0a
    5b30:	b3 85       	ldd	r27, Z+11	; 0x0b
    5b32:	84 81       	ldd	r24, Z+4	; 0x04
    5b34:	a1 cf       	rjmp	.-190    	; 0x5a78 <Logic::init() [clone .constprop.96]+0x7a>

00005b36 <K197device::getUnit(bool) [clone .constprop.83]>:
getUnit():
    5b36:	90 91 a5 6f 	lds	r25, 0x6FA5	; 0x806fa5 <k197dev+0xf>
    5b3a:	93 ff       	sbrs	r25, 3
    5b3c:	13 c0       	rjmp	.+38     	; 0x5b64 <K197device::getUnit(bool) [clone .constprop.83]+0x2e>
    5b3e:	91 70       	andi	r25, 0x01	; 1
    5b40:	80 91 96 6f 	lds	r24, 0x6F96	; 0x806f96 <k197dev>
    5b44:	80 ff       	sbrs	r24, 0
    5b46:	09 c0       	rjmp	.+18     	; 0x5b5a <K197device::getUnit(bool) [clone .constprop.83]+0x24>
    5b48:	99 23       	and	r25, r25
    5b4a:	49 f1       	breq	.+82     	; 0x5b9e <K197device::getUnit(bool) [clone .constprop.83]+0x68>
    5b4c:	80 91 a4 6f 	lds	r24, 0x6FA4	; 0x806fa4 <k197dev+0xe>
    5b50:	84 fd       	sbrc	r24, 4
    5b52:	05 c0       	rjmp	.+10     	; 0x5b5e <K197device::getUnit(bool) [clone .constprop.83]+0x28>
    5b54:	8b ef       	ldi	r24, 0xFB	; 251
    5b56:	98 e0       	ldi	r25, 0x08	; 8
    5b58:	08 95       	ret
    5b5a:	99 23       	and	r25, r25
    5b5c:	01 f1       	breq	.+64     	; 0x5b9e <K197device::getUnit(bool) [clone .constprop.83]+0x68>
    5b5e:	88 ef       	ldi	r24, 0xF8	; 248
    5b60:	98 e0       	ldi	r25, 0x08	; 8
    5b62:	08 95       	ret
    5b64:	20 91 a6 6f 	lds	r18, 0x6FA6	; 0x806fa6 <k197dev+0x10>
    5b68:	21 ff       	sbrs	r18, 1
    5b6a:	07 c0       	rjmp	.+14     	; 0x5b7a <K197device::getUnit(bool) [clone .constprop.83]+0x44>
    5b6c:	91 fd       	sbrc	r25, 1
    5b6e:	1a c0       	rjmp	.+52     	; 0x5ba4 <K197device::getUnit(bool) [clone .constprop.83]+0x6e>
    5b70:	94 ff       	sbrs	r25, 4
    5b72:	1b c0       	rjmp	.+54     	; 0x5baa <K197device::getUnit(bool) [clone .constprop.83]+0x74>
    5b74:	8b ee       	ldi	r24, 0xEB	; 235
    5b76:	98 e0       	ldi	r25, 0x08	; 8
    5b78:	08 95       	ret
    5b7a:	22 ff       	sbrs	r18, 2
    5b7c:	07 c0       	rjmp	.+14     	; 0x5b8c <K197device::getUnit(bool) [clone .constprop.83]+0x56>
    5b7e:	92 fd       	sbrc	r25, 2
    5b80:	17 c0       	rjmp	.+46     	; 0x5bb0 <K197device::getUnit(bool) [clone .constprop.83]+0x7a>
    5b82:	95 ff       	sbrs	r25, 5
    5b84:	18 c0       	rjmp	.+48     	; 0x5bb6 <K197device::getUnit(bool) [clone .constprop.83]+0x80>
    5b86:	8f ed       	ldi	r24, 0xDF	; 223
    5b88:	98 e0       	ldi	r25, 0x08	; 8
    5b8a:	08 95       	ret
    5b8c:	88 23       	and	r24, r24
    5b8e:	b1 f0       	breq	.+44     	; 0x5bbc <K197device::getUnit(bool) [clone .constprop.83]+0x86>
    5b90:	80 91 a4 6f 	lds	r24, 0x6FA4	; 0x806fa4 <k197dev+0xe>
    5b94:	83 ff       	sbrs	r24, 3
    5b96:	12 c0       	rjmp	.+36     	; 0x5bbc <K197device::getUnit(bool) [clone .constprop.83]+0x86>
    5b98:	89 ed       	ldi	r24, 0xD9	; 217
    5b9a:	98 e0       	ldi	r25, 0x08	; 8
    5b9c:	08 95       	ret
    5b9e:	85 ef       	ldi	r24, 0xF5	; 245
    5ba0:	98 e0       	ldi	r25, 0x08	; 8
    5ba2:	08 95       	ret
    5ba4:	80 ef       	ldi	r24, 0xF0	; 240
    5ba6:	98 e0       	ldi	r25, 0x08	; 8
    5ba8:	08 95       	ret
    5baa:	86 ee       	ldi	r24, 0xE6	; 230
    5bac:	98 e0       	ldi	r25, 0x08	; 8
    5bae:	08 95       	ret
    5bb0:	82 ee       	ldi	r24, 0xE2	; 226
    5bb2:	98 e0       	ldi	r25, 0x08	; 8
    5bb4:	08 95       	ret
    5bb6:	8c ed       	ldi	r24, 0xDC	; 220
    5bb8:	98 e0       	ldi	r25, 0x08	; 8
    5bba:	08 95       	ret
    5bbc:	86 ed       	ldi	r24, 0xD6	; 214
    5bbe:	98 e0       	ldi	r25, 0x08	; 8
    5bc0:	08 95       	ret

00005bc2 <K197device::isTKModeActive() [clone .constprop.82]>:
isTKModeActive():
    5bc2:	80 91 a5 6f 	lds	r24, 0x6FA5	; 0x806fa5 <k197dev+0xf>
    5bc6:	89 70       	andi	r24, 0x09	; 9
    5bc8:	89 30       	cpi	r24, 0x09	; 9
    5bca:	69 f4       	brne	.+26     	; 0x5be6 <K197device::isTKModeActive() [clone .constprop.82]+0x24>
    5bcc:	90 91 96 6f 	lds	r25, 0x6F96	; 0x806f96 <k197dev>
    5bd0:	89 2f       	mov	r24, r25
    5bd2:	81 70       	andi	r24, 0x01	; 1
    5bd4:	90 ff       	sbrs	r25, 0
    5bd6:	08 c0       	rjmp	.+16     	; 0x5be8 <K197device::isTKModeActive() [clone .constprop.82]+0x26>
    5bd8:	80 91 a4 6f 	lds	r24, 0x6FA4	; 0x806fa4 <k197dev+0xe>
    5bdc:	82 95       	swap	r24
    5bde:	81 70       	andi	r24, 0x01	; 1
    5be0:	91 e0       	ldi	r25, 0x01	; 1
    5be2:	89 27       	eor	r24, r25
    5be4:	08 95       	ret
    5be6:	80 e0       	ldi	r24, 0x00	; 0
    5be8:	08 95       	ret

00005bea <u8x8_byte_SendBytes.constprop.29>:
u8x8_byte_SendBytes():
    5bea:	9b 01       	movw	r18, r22
    5bec:	dc 01       	movw	r26, r24
    5bee:	18 96       	adiw	r26, 0x08	; 8
    5bf0:	ed 91       	ld	r30, X+
    5bf2:	fc 91       	ld	r31, X
    5bf4:	41 e0       	ldi	r20, 0x01	; 1
    5bf6:	67 e1       	ldi	r22, 0x17	; 23
    5bf8:	09 94       	ijmp

00005bfa <NotifyUser_onReceive.constprop.17>:
NotifyUser_onReceive():
    5bfa:	e0 91 ee 64 	lds	r30, 0x64EE	; 0x8064ee <Wire+0x16>
    5bfe:	f0 91 ef 64 	lds	r31, 0x64EF	; 0x8064ef <Wire+0x17>
    5c02:	30 97       	sbiw	r30, 0x00	; 0
    5c04:	31 f0       	breq	.+12     	; 0x5c12 <NotifyUser_onReceive.constprop.17+0x18>
    5c06:	80 91 e9 64 	lds	r24, 0x64E9	; 0x8064e9 <Wire+0x11>
    5c0a:	88 23       	and	r24, r24
    5c0c:	11 f0       	breq	.+4      	; 0x5c12 <NotifyUser_onReceive.constprop.17+0x18>
    5c0e:	90 e0       	ldi	r25, 0x00	; 0
    5c10:	09 94       	ijmp
    5c12:	08 95       	ret

00005c14 <u8g2_font_calc_vref_top>:
u8g2_font_calc_vref_top():
    5c14:	8a 57       	subi	r24, 0x7A	; 122
    5c16:	9f 4f       	sbci	r25, 0xFF	; 255
    5c18:	fc 01       	movw	r30, r24
    5c1a:	80 81       	ld	r24, Z
    5c1c:	08 2e       	mov	r0, r24
    5c1e:	00 0c       	add	r0, r0
    5c20:	99 0b       	sbc	r25, r25
    5c22:	01 96       	adiw	r24, 0x01	; 1
    5c24:	08 95       	ret

00005c26 <Print::print(char)>:
print():
    5c26:	dc 01       	movw	r26, r24
    5c28:	ed 91       	ld	r30, X+
    5c2a:	fc 91       	ld	r31, X
    5c2c:	01 90       	ld	r0, Z+
    5c2e:	f0 81       	ld	r31, Z
    5c30:	e0 2d       	mov	r30, r0
    5c32:	09 94       	ijmp

00005c34 <Print::print(__FlashStringHelper const*)>:
    5c34:	ef 92       	push	r14
    5c36:	ff 92       	push	r15
    5c38:	0f 93       	push	r16
    5c3a:	1f 93       	push	r17
    5c3c:	cf 93       	push	r28
    5c3e:	df 93       	push	r29
    5c40:	8c 01       	movw	r16, r24
    5c42:	7b 01       	movw	r14, r22
    5c44:	d0 e0       	ldi	r29, 0x00	; 0
    5c46:	c0 e0       	ldi	r28, 0x00	; 0
    5c48:	f7 01       	movw	r30, r14
    5c4a:	ec 0f       	add	r30, r28
    5c4c:	fd 1f       	adc	r31, r29
    5c4e:	64 91       	lpm	r22, Z
    5c50:	66 23       	and	r22, r22
    5c52:	61 f0       	breq	.+24     	; 0x5c6c <Print::print(__FlashStringHelper const*)+0x38>
    5c54:	d8 01       	movw	r26, r16
    5c56:	ed 91       	ld	r30, X+
    5c58:	fc 91       	ld	r31, X
    5c5a:	01 90       	ld	r0, Z+
    5c5c:	f0 81       	ld	r31, Z
    5c5e:	e0 2d       	mov	r30, r0
    5c60:	c8 01       	movw	r24, r16
    5c62:	09 95       	icall
    5c64:	89 2b       	or	r24, r25
    5c66:	11 f0       	breq	.+4      	; 0x5c6c <Print::print(__FlashStringHelper const*)+0x38>
    5c68:	21 96       	adiw	r28, 0x01	; 1
    5c6a:	ee cf       	rjmp	.-36     	; 0x5c48 <Print::print(__FlashStringHelper const*)+0x14>
    5c6c:	ce 01       	movw	r24, r28
    5c6e:	df 91       	pop	r29
    5c70:	cf 91       	pop	r28
    5c72:	1f 91       	pop	r17
    5c74:	0f 91       	pop	r16
    5c76:	ff 90       	pop	r15
    5c78:	ef 90       	pop	r14
    5c7a:	08 95       	ret

00005c7c <Print::write(unsigned char const*, unsigned int)>:
write():
    5c7c:	af 92       	push	r10
    5c7e:	bf 92       	push	r11
    5c80:	cf 92       	push	r12
    5c82:	df 92       	push	r13
    5c84:	ef 92       	push	r14
    5c86:	ff 92       	push	r15
    5c88:	0f 93       	push	r16
    5c8a:	1f 93       	push	r17
    5c8c:	cf 93       	push	r28
    5c8e:	df 93       	push	r29
    5c90:	6c 01       	movw	r12, r24
    5c92:	7b 01       	movw	r14, r22
    5c94:	8b 01       	movw	r16, r22
    5c96:	04 0f       	add	r16, r20
    5c98:	15 1f       	adc	r17, r21
    5c9a:	eb 01       	movw	r28, r22
    5c9c:	5e 01       	movw	r10, r28
    5c9e:	ae 18       	sub	r10, r14
    5ca0:	bf 08       	sbc	r11, r15
    5ca2:	c0 17       	cp	r28, r16
    5ca4:	d1 07       	cpc	r29, r17
    5ca6:	59 f0       	breq	.+22     	; 0x5cbe <Print::write(unsigned char const*, unsigned int)+0x42>
    5ca8:	69 91       	ld	r22, Y+
    5caa:	d6 01       	movw	r26, r12
    5cac:	ed 91       	ld	r30, X+
    5cae:	fc 91       	ld	r31, X
    5cb0:	01 90       	ld	r0, Z+
    5cb2:	f0 81       	ld	r31, Z
    5cb4:	e0 2d       	mov	r30, r0
    5cb6:	c6 01       	movw	r24, r12
    5cb8:	09 95       	icall
    5cba:	89 2b       	or	r24, r25
    5cbc:	79 f7       	brne	.-34     	; 0x5c9c <Print::write(unsigned char const*, unsigned int)+0x20>
    5cbe:	c5 01       	movw	r24, r10
    5cc0:	df 91       	pop	r29
    5cc2:	cf 91       	pop	r28
    5cc4:	1f 91       	pop	r17
    5cc6:	0f 91       	pop	r16
    5cc8:	ff 90       	pop	r15
    5cca:	ef 90       	pop	r14
    5ccc:	df 90       	pop	r13
    5cce:	cf 90       	pop	r12
    5cd0:	bf 90       	pop	r11
    5cd2:	af 90       	pop	r10
    5cd4:	08 95       	ret

00005cd6 <UartClass::availableForWrite()>:
availableForWrite():
    5cd6:	fc 01       	movw	r30, r24
    5cd8:	55 89       	ldd	r21, Z+21	; 0x15
    5cda:	46 89       	ldd	r20, Z+22	; 0x16
    5cdc:	25 2f       	mov	r18, r21
    5cde:	30 e0       	ldi	r19, 0x00	; 0
    5ce0:	84 2f       	mov	r24, r20
    5ce2:	90 e0       	ldi	r25, 0x00	; 0
    5ce4:	82 1b       	sub	r24, r18
    5ce6:	93 0b       	sbc	r25, r19
    5ce8:	54 17       	cp	r21, r20
    5cea:	10 f0       	brcs	.+4      	; 0x5cf0 <UartClass::availableForWrite()+0x1a>
    5cec:	cf 96       	adiw	r24, 0x3f	; 63
    5cee:	08 95       	ret
    5cf0:	01 97       	sbiw	r24, 0x01	; 1
    5cf2:	08 95       	ret

00005cf4 <UartClass::read()>:
read():
    5cf4:	fc 01       	movw	r30, r24
    5cf6:	93 89       	ldd	r25, Z+19	; 0x13
    5cf8:	84 89       	ldd	r24, Z+20	; 0x14
    5cfa:	98 17       	cp	r25, r24
    5cfc:	61 f0       	breq	.+24     	; 0x5d16 <UartClass::read()+0x22>
    5cfe:	a4 89       	ldd	r26, Z+20	; 0x14
    5d00:	ae 0f       	add	r26, r30
    5d02:	bf 2f       	mov	r27, r31
    5d04:	b1 1d       	adc	r27, r1
    5d06:	57 96       	adiw	r26, 0x17	; 23
    5d08:	8c 91       	ld	r24, X
    5d0a:	94 89       	ldd	r25, Z+20	; 0x14
    5d0c:	9f 5f       	subi	r25, 0xFF	; 255
    5d0e:	9f 73       	andi	r25, 0x3F	; 63
    5d10:	94 8b       	std	Z+20, r25	; 0x14
    5d12:	90 e0       	ldi	r25, 0x00	; 0
    5d14:	08 95       	ret
    5d16:	8f ef       	ldi	r24, 0xFF	; 255
    5d18:	9f ef       	ldi	r25, 0xFF	; 255
    5d1a:	08 95       	ret

00005d1c <Stream::readBytesUntil(char, char*, unsigned int) [clone .part.0] [clone .constprop.92]>:
_ZN6Stream14readBytesUntilEcPcj.part.0():
    5d1c:	0f 93       	push	r16
    5d1e:	1f 93       	push	r17
    5d20:	cf 93       	push	r28
    5d22:	df 93       	push	r29
    5d24:	8c 01       	movw	r16, r24
    5d26:	d0 e0       	ldi	r29, 0x00	; 0
    5d28:	c0 e0       	ldi	r28, 0x00	; 0
millis():
    5d2a:	2f b7       	in	r18, 0x3f	; 63
    5d2c:	f8 94       	cli
    5d2e:	80 91 35 64 	lds	r24, 0x6435	; 0x806435 <timer_millis>
    5d32:	90 91 36 64 	lds	r25, 0x6436	; 0x806436 <timer_millis+0x1>
    5d36:	a0 91 37 64 	lds	r26, 0x6437	; 0x806437 <timer_millis+0x2>
    5d3a:	b0 91 38 64 	lds	r27, 0x6438	; 0x806438 <timer_millis+0x3>
    5d3e:	2f bf       	out	0x3f, r18	; 63
timedRead():
    5d40:	80 93 49 64 	sts	0x6449, r24	; 0x806449 <Serial0+0x8>
    5d44:	90 93 4a 64 	sts	0x644A, r25	; 0x80644a <Serial0+0x9>
    5d48:	a0 93 4b 64 	sts	0x644B, r26	; 0x80644b <Serial0+0xa>
    5d4c:	b0 93 4c 64 	sts	0x644C, r27	; 0x80644c <Serial0+0xb>
    5d50:	81 e4       	ldi	r24, 0x41	; 65
    5d52:	94 e6       	ldi	r25, 0x64	; 100
    5d54:	cf df       	rcall	.-98     	; 0x5cf4 <UartClass::read()>
    5d56:	97 ff       	sbrs	r25, 7
    5d58:	2a c0       	rjmp	.+84     	; 0x5dae <Stream::readBytesUntil(char, char*, unsigned int) [clone .part.0] [clone .constprop.92]+0x92>
millis():
    5d5a:	2f b7       	in	r18, 0x3f	; 63
    5d5c:	f8 94       	cli
    5d5e:	80 91 35 64 	lds	r24, 0x6435	; 0x806435 <timer_millis>
    5d62:	90 91 36 64 	lds	r25, 0x6436	; 0x806436 <timer_millis+0x1>
    5d66:	a0 91 37 64 	lds	r26, 0x6437	; 0x806437 <timer_millis+0x2>
    5d6a:	b0 91 38 64 	lds	r27, 0x6438	; 0x806438 <timer_millis+0x3>
    5d6e:	2f bf       	out	0x3f, r18	; 63
timedRead():
    5d70:	40 91 49 64 	lds	r20, 0x6449	; 0x806449 <Serial0+0x8>
    5d74:	50 91 4a 64 	lds	r21, 0x644A	; 0x80644a <Serial0+0x9>
    5d78:	60 91 4b 64 	lds	r22, 0x644B	; 0x80644b <Serial0+0xa>
    5d7c:	70 91 4c 64 	lds	r23, 0x644C	; 0x80644c <Serial0+0xb>
    5d80:	84 1b       	sub	r24, r20
    5d82:	95 0b       	sbc	r25, r21
    5d84:	a6 0b       	sbc	r26, r22
    5d86:	b7 0b       	sbc	r27, r23
    5d88:	40 91 45 64 	lds	r20, 0x6445	; 0x806445 <Serial0+0x4>
    5d8c:	50 91 46 64 	lds	r21, 0x6446	; 0x806446 <Serial0+0x5>
    5d90:	60 91 47 64 	lds	r22, 0x6447	; 0x806447 <Serial0+0x6>
    5d94:	70 91 48 64 	lds	r23, 0x6448	; 0x806448 <Serial0+0x7>
    5d98:	84 17       	cp	r24, r20
    5d9a:	95 07       	cpc	r25, r21
    5d9c:	a6 07       	cpc	r26, r22
    5d9e:	b7 07       	cpc	r27, r23
    5da0:	b8 f2       	brcs	.-82     	; 0x5d50 <Stream::readBytesUntil(char, char*, unsigned int) [clone .part.0] [clone .constprop.92]+0x34>
_ZN6Stream14readBytesUntilEcPcj.part.0():
    5da2:	ce 01       	movw	r24, r28
    5da4:	df 91       	pop	r29
    5da6:	cf 91       	pop	r28
    5da8:	1f 91       	pop	r17
    5daa:	0f 91       	pop	r16
    5dac:	08 95       	ret
    5dae:	80 32       	cpi	r24, 0x20	; 32
    5db0:	91 05       	cpc	r25, r1
    5db2:	b9 f3       	breq	.-18     	; 0x5da2 <Stream::readBytesUntil(char, char*, unsigned int) [clone .part.0] [clone .constprop.92]+0x86>
    5db4:	f8 01       	movw	r30, r16
    5db6:	81 93       	st	Z+, r24
    5db8:	8f 01       	movw	r16, r30
    5dba:	21 96       	adiw	r28, 0x01	; 1
    5dbc:	ce 31       	cpi	r28, 0x1E	; 30
    5dbe:	d1 05       	cpc	r29, r1
    5dc0:	09 f0       	breq	.+2      	; 0x5dc4 <Stream::readBytesUntil(char, char*, unsigned int) [clone .part.0] [clone .constprop.92]+0xa8>
    5dc2:	b3 cf       	rjmp	.-154    	; 0x5d2a <Stream::readBytesUntil(char, char*, unsigned int) [clone .part.0] [clone .constprop.92]+0xe>
    5dc4:	ee cf       	rjmp	.-36     	; 0x5da2 <Stream::readBytesUntil(char, char*, unsigned int) [clone .part.0] [clone .constprop.92]+0x86>

00005dc6 <UartClass::peek()>:
peek():
    5dc6:	fc 01       	movw	r30, r24
    5dc8:	93 89       	ldd	r25, Z+19	; 0x13
    5dca:	84 89       	ldd	r24, Z+20	; 0x14
    5dcc:	98 17       	cp	r25, r24
    5dce:	31 f0       	breq	.+12     	; 0x5ddc <UartClass::peek()+0x16>
    5dd0:	84 89       	ldd	r24, Z+20	; 0x14
    5dd2:	e8 0f       	add	r30, r24
    5dd4:	f1 1d       	adc	r31, r1
    5dd6:	87 89       	ldd	r24, Z+23	; 0x17
    5dd8:	90 e0       	ldi	r25, 0x00	; 0
    5dda:	08 95       	ret
    5ddc:	8f ef       	ldi	r24, 0xFF	; 255
    5dde:	9f ef       	ldi	r25, 0xFF	; 255
    5de0:	08 95       	ret

00005de2 <UartClass::available()>:
available():
    5de2:	fc 01       	movw	r30, r24
    5de4:	93 89       	ldd	r25, Z+19	; 0x13
    5de6:	24 89       	ldd	r18, Z+20	; 0x14
    5de8:	89 2f       	mov	r24, r25
    5dea:	90 e0       	ldi	r25, 0x00	; 0
    5dec:	80 5c       	subi	r24, 0xC0	; 192
    5dee:	9f 4f       	sbci	r25, 0xFF	; 255
    5df0:	82 1b       	sub	r24, r18
    5df2:	91 09       	sbc	r25, r1
    5df4:	8f 73       	andi	r24, 0x3F	; 63
    5df6:	99 27       	eor	r25, r25
    5df8:	08 95       	ret

00005dfa <UartClass::end()>:
end():
    5dfa:	cf 93       	push	r28
    5dfc:	df 93       	push	r29
    5dfe:	ec 01       	movw	r28, r24
    5e00:	e8 81       	ld	r30, Y
    5e02:	f9 81       	ldd	r31, Y+1	; 0x01
    5e04:	06 80       	ldd	r0, Z+6	; 0x06
    5e06:	f7 81       	ldd	r31, Z+7	; 0x07
    5e08:	e0 2d       	mov	r30, r0
    5e0a:	09 95       	icall
    5e0c:	ec 85       	ldd	r30, Y+12	; 0x0c
    5e0e:	fd 85       	ldd	r31, Y+13	; 0x0d
    5e10:	86 81       	ldd	r24, Z+6	; 0x06
    5e12:	16 82       	std	Z+6, r1	; 0x06
    5e14:	85 81       	ldd	r24, Z+5	; 0x05
    5e16:	15 82       	std	Z+5, r1	; 0x05
    5e18:	80 e4       	ldi	r24, 0x40	; 64
    5e1a:	84 83       	std	Z+4, r24	; 0x04
    5e1c:	8c 89       	ldd	r24, Y+20	; 0x14
    5e1e:	8b 8b       	std	Y+19, r24	; 0x13
    5e20:	1a 8a       	std	Y+18, r1	; 0x12
    5e22:	df 91       	pop	r29
    5e24:	cf 91       	pop	r28
    5e26:	08 95       	ret

00005e28 <UartClass::begin(unsigned long, unsigned int)>:
begin():
    5e28:	8f 92       	push	r8
    5e2a:	9f 92       	push	r9
    5e2c:	af 92       	push	r10
    5e2e:	bf 92       	push	r11
    5e30:	ff 92       	push	r15
    5e32:	0f 93       	push	r16
    5e34:	1f 93       	push	r17
    5e36:	cf 93       	push	r28
    5e38:	df 93       	push	r29
    5e3a:	8c 01       	movw	r16, r24
    5e3c:	4a 01       	movw	r8, r20
    5e3e:	5b 01       	movw	r10, r22
    5e40:	d2 2f       	mov	r29, r18
    5e42:	c3 2f       	mov	r28, r19
    5e44:	dc 01       	movw	r26, r24
    5e46:	52 96       	adiw	r26, 0x12	; 18
    5e48:	8c 91       	ld	r24, X
    5e4a:	52 97       	sbiw	r26, 0x12	; 18
    5e4c:	80 ff       	sbrs	r24, 0
    5e4e:	07 c0       	rjmp	.+14     	; 0x5e5e <UartClass::begin(unsigned long, unsigned int)+0x36>
    5e50:	ed 91       	ld	r30, X+
    5e52:	fc 91       	ld	r31, X
    5e54:	02 88       	ldd	r0, Z+18	; 0x12
    5e56:	f3 89       	ldd	r31, Z+19	; 0x13
    5e58:	e0 2d       	mov	r30, r0
    5e5a:	c8 01       	movw	r24, r16
    5e5c:	09 95       	icall
    5e5e:	d1 11       	cpse	r29, r1
    5e60:	01 c0       	rjmp	.+2      	; 0x5e64 <UartClass::begin(unsigned long, unsigned int)+0x3c>
    5e62:	d3 e0       	ldi	r29, 0x03	; 3
    5e64:	fd 2e       	mov	r15, r29
    5e66:	e8 94       	clt
    5e68:	f2 f8       	bld	r15, 2
    5e6a:	dc 2f       	mov	r29, r28
    5e6c:	d0 95       	com	r29
    5e6e:	d0 7c       	andi	r29, 0xC0	; 192
    5e70:	b1 e6       	ldi	r27, 0x61	; 97
    5e72:	8b 16       	cp	r8, r27
    5e74:	b3 ee       	ldi	r27, 0xE3	; 227
    5e76:	9b 06       	cpc	r9, r27
    5e78:	b6 e1       	ldi	r27, 0x16	; 22
    5e7a:	ab 06       	cpc	r10, r27
    5e7c:	b1 04       	cpc	r11, r1
    5e7e:	28 f0       	brcs	.+10     	; 0x5e8a <UartClass::begin(unsigned long, unsigned int)+0x62>
    5e80:	d2 60       	ori	r29, 0x02	; 2
    5e82:	b6 94       	lsr	r11
    5e84:	a7 94       	ror	r10
    5e86:	97 94       	ror	r9
    5e88:	87 94       	ror	r8
    5e8a:	60 e0       	ldi	r22, 0x00	; 0
    5e8c:	78 ed       	ldi	r23, 0xD8	; 216
    5e8e:	88 eb       	ldi	r24, 0xB8	; 184
    5e90:	95 e0       	ldi	r25, 0x05	; 5
    5e92:	a5 01       	movw	r20, r10
    5e94:	94 01       	movw	r18, r8
    5e96:	0e 94 29 67 	call	0xce52	; 0xce52 <__udivmodsi4>
    5e9a:	c9 01       	movw	r24, r18
    5e9c:	20 34       	cpi	r18, 0x40	; 64
    5e9e:	31 05       	cpc	r19, r1
    5ea0:	10 f4       	brcc	.+4      	; 0x5ea6 <UartClass::begin(unsigned long, unsigned int)+0x7e>
    5ea2:	80 e4       	ldi	r24, 0x40	; 64
    5ea4:	90 e0       	ldi	r25, 0x00	; 0
    5ea6:	3c 2f       	mov	r19, r28
    5ea8:	3b 72       	andi	r19, 0x2B	; 43
    5eaa:	d7 fd       	sbrc	r29, 7
    5eac:	30 68       	ori	r19, 0x80	; 128
    5eae:	4d 2f       	mov	r20, r29
    5eb0:	48 7c       	andi	r20, 0xC8	; 200
    5eb2:	30 fd       	sbrc	r19, 0
    5eb4:	41 60       	ori	r20, 0x01	; 1
    5eb6:	5f b7       	in	r21, 0x3f	; 63
    5eb8:	f8 94       	cli
    5eba:	d8 01       	movw	r26, r16
    5ebc:	1c 96       	adiw	r26, 0x0c	; 12
    5ebe:	ed 91       	ld	r30, X+
    5ec0:	fc 91       	ld	r31, X
    5ec2:	16 82       	std	Z+6, r1	; 0x06
    5ec4:	f7 82       	std	Z+7, r15	; 0x07
    5ec6:	80 87       	std	Z+8, r24	; 0x08
    5ec8:	91 87       	std	Z+9, r25	; 0x09
    5eca:	35 ff       	sbrs	r19, 5
    5ecc:	8b c0       	rjmp	.+278    	; 0x5fe4 <UartClass::begin(unsigned long, unsigned int)+0x1bc>
    5ece:	4f 77       	andi	r20, 0x7F	; 127
    5ed0:	81 e0       	ldi	r24, 0x01	; 1
    5ed2:	84 87       	std	Z+12, r24	; 0x0c
    5ed4:	8f ef       	ldi	r24, 0xFF	; 255
    5ed6:	85 87       	std	Z+13, r24	; 0x0d
    5ed8:	3f 7d       	andi	r19, 0xDF	; 223
    5eda:	35 83       	std	Z+5, r19	; 0x05
    5edc:	d6 83       	std	Z+6, r29	; 0x06
    5ede:	f8 01       	movw	r30, r16
    5ee0:	21 89       	ldd	r18, Z+17	; 0x11
    5ee2:	c0 89       	ldd	r28, Z+16	; 0x10
    5ee4:	86 85       	ldd	r24, Z+14	; 0x0e
    5ee6:	97 85       	ldd	r25, Z+15	; 0x0f
_set_pins():
    5ee8:	fc 01       	movw	r30, r24
    5eea:	33 e0       	ldi	r19, 0x03	; 3
    5eec:	23 9f       	mul	r18, r19
    5eee:	e0 0d       	add	r30, r0
    5ef0:	f1 1d       	adc	r31, r1
    5ef2:	11 24       	eor	r1, r1
    5ef4:	65 91       	lpm	r22, Z+
    5ef6:	74 91       	lpm	r23, Z
    5ef8:	2c 17       	cp	r18, r28
    5efa:	08 f0       	brcs	.+2      	; 0x5efe <UartClass::begin(unsigned long, unsigned int)+0xd6>
    5efc:	59 c0       	rjmp	.+178    	; 0x5fb0 <UartClass::begin(unsigned long, unsigned int)+0x188>
    5efe:	27 2f       	mov	r18, r23
    5f00:	46 ff       	sbrs	r20, 6
    5f02:	72 c0       	rjmp	.+228    	; 0x5fe8 <UartClass::begin(unsigned long, unsigned int)+0x1c0>
_pinMode():
    5f04:	77 31       	cpi	r23, 0x17	; 23
    5f06:	88 f4       	brcc	.+34     	; 0x5f2a <UartClass::begin(unsigned long, unsigned int)+0x102>
check_valid_digital_pin():
    5f08:	30 e0       	ldi	r19, 0x00	; 0
_pinMode():
    5f0a:	f9 01       	movw	r30, r18
    5f0c:	e2 52       	subi	r30, 0x22	; 34
    5f0e:	ff 49       	sbci	r31, 0x9F	; 159
    5f10:	a0 81       	ld	r26, Z
    5f12:	af 3f       	cpi	r26, 0xFF	; 255
    5f14:	51 f0       	breq	.+20     	; 0x5f2a <UartClass::begin(unsigned long, unsigned int)+0x102>
    5f16:	2b 50       	subi	r18, 0x0B	; 11
    5f18:	3f 49       	sbci	r19, 0x9F	; 159
    5f1a:	f9 01       	movw	r30, r18
    5f1c:	30 81       	ld	r19, Z
    5f1e:	20 e2       	ldi	r18, 0x20	; 32
    5f20:	32 9f       	mul	r19, r18
    5f22:	f0 01       	movw	r30, r0
    5f24:	11 24       	eor	r1, r1
    5f26:	fc 5f       	subi	r31, 0xFC	; 252
    5f28:	a1 83       	std	Z+1, r26	; 0x01
_set_pins():
    5f2a:	47 ff       	sbrs	r20, 7
    5f2c:	2a c0       	rjmp	.+84     	; 0x5f82 <UartClass::begin(unsigned long, unsigned int)+0x15a>
    5f2e:	21 e0       	ldi	r18, 0x01	; 1
    5f30:	27 0f       	add	r18, r23
_pinMode():
    5f32:	27 31       	cpi	r18, 0x17	; 23
    5f34:	30 f5       	brcc	.+76     	; 0x5f82 <UartClass::begin(unsigned long, unsigned int)+0x15a>
check_valid_digital_pin():
    5f36:	30 e0       	ldi	r19, 0x00	; 0
_pinMode():
    5f38:	f9 01       	movw	r30, r18
    5f3a:	e2 52       	subi	r30, 0x22	; 34
    5f3c:	ff 49       	sbci	r31, 0x9F	; 159
    5f3e:	d0 81       	ld	r29, Z
    5f40:	df 3f       	cpi	r29, 0xFF	; 255
    5f42:	f9 f0       	breq	.+62     	; 0x5f82 <UartClass::begin(unsigned long, unsigned int)+0x15a>
    5f44:	f9 01       	movw	r30, r18
    5f46:	eb 50       	subi	r30, 0x0B	; 11
    5f48:	ff 49       	sbci	r31, 0x9F	; 159
    5f4a:	a0 81       	ld	r26, Z
    5f4c:	f0 e2       	ldi	r31, 0x20	; 32
    5f4e:	af 9f       	mul	r26, r31
    5f50:	d0 01       	movw	r26, r0
    5f52:	11 24       	eor	r1, r1
    5f54:	bc 5f       	subi	r27, 0xFC	; 252
    5f56:	24 5f       	subi	r18, 0xF4	; 244
    5f58:	3e 49       	sbci	r19, 0x9E	; 158
    5f5a:	f9 01       	movw	r30, r18
    5f5c:	10 81       	ld	r17, Z
begin():
    5f5e:	f0 e0       	ldi	r31, 0x00	; 0
    5f60:	e0 e0       	ldi	r30, 0x00	; 0
_pinMode():
    5f62:	18 30       	cpi	r17, 0x08	; 8
    5f64:	30 f4       	brcc	.+12     	; 0x5f72 <UartClass::begin(unsigned long, unsigned int)+0x14a>
    5f66:	9d 01       	movw	r18, r26
    5f68:	20 5f       	subi	r18, 0xF0	; 240
    5f6a:	3f 4f       	sbci	r19, 0xFF	; 255
    5f6c:	f9 01       	movw	r30, r18
    5f6e:	e1 0f       	add	r30, r17
    5f70:	f1 1d       	adc	r31, r1
    5f72:	3f b7       	in	r19, 0x3f	; 63
    5f74:	f8 94       	cli
    5f76:	12 96       	adiw	r26, 0x02	; 2
    5f78:	dc 93       	st	X, r29
    5f7a:	20 81       	ld	r18, Z
    5f7c:	28 60       	ori	r18, 0x08	; 8
    5f7e:	20 83       	st	Z, r18
    5f80:	3f bf       	out	0x3f, r19	; 63
_set_pins():
    5f82:	40 ff       	sbrs	r20, 0
    5f84:	15 c0       	rjmp	.+42     	; 0x5fb0 <UartClass::begin(unsigned long, unsigned int)+0x188>
    5f86:	23 e0       	ldi	r18, 0x03	; 3
    5f88:	27 0f       	add	r18, r23
_pinMode():
    5f8a:	27 31       	cpi	r18, 0x17	; 23
    5f8c:	88 f4       	brcc	.+34     	; 0x5fb0 <UartClass::begin(unsigned long, unsigned int)+0x188>
check_valid_digital_pin():
    5f8e:	30 e0       	ldi	r19, 0x00	; 0
_pinMode():
    5f90:	f9 01       	movw	r30, r18
    5f92:	e2 52       	subi	r30, 0x22	; 34
    5f94:	ff 49       	sbci	r31, 0x9F	; 159
    5f96:	40 81       	ld	r20, Z
    5f98:	4f 3f       	cpi	r20, 0xFF	; 255
    5f9a:	51 f0       	breq	.+20     	; 0x5fb0 <UartClass::begin(unsigned long, unsigned int)+0x188>
    5f9c:	2b 50       	subi	r18, 0x0B	; 11
    5f9e:	3f 49       	sbci	r19, 0x9F	; 159
    5fa0:	d9 01       	movw	r26, r18
    5fa2:	ec 91       	ld	r30, X
    5fa4:	b0 e2       	ldi	r27, 0x20	; 32
    5fa6:	eb 9f       	mul	r30, r27
    5fa8:	f0 01       	movw	r30, r0
    5faa:	11 24       	eor	r1, r1
    5fac:	fc 5f       	subi	r31, 0xFC	; 252
    5fae:	41 83       	std	Z+1, r20	; 0x01
_mux_set():
    5fb0:	fc 01       	movw	r30, r24
    5fb2:	23 e0       	ldi	r18, 0x03	; 3
    5fb4:	c2 9f       	mul	r28, r18
    5fb6:	e0 0d       	add	r30, r0
    5fb8:	f1 1d       	adc	r31, r1
    5fba:	11 24       	eor	r1, r1
    5fbc:	32 96       	adiw	r30, 0x02	; 2
    5fbe:	e4 91       	lpm	r30, Z
    5fc0:	80 91 e2 05 	lds	r24, 0x05E2	; 0x8005e2 <__TEXT_REGION_LENGTH__+0x7f05e2>
    5fc4:	e0 95       	com	r30
    5fc6:	e8 23       	and	r30, r24
    5fc8:	e6 2b       	or	r30, r22
    5fca:	e0 93 e2 05 	sts	0x05E2, r30	; 0x8005e2 <__TEXT_REGION_LENGTH__+0x7f05e2>
begin():
    5fce:	5f bf       	out	0x3f, r21	; 63
    5fd0:	df 91       	pop	r29
    5fd2:	cf 91       	pop	r28
    5fd4:	1f 91       	pop	r17
    5fd6:	0f 91       	pop	r16
    5fd8:	ff 90       	pop	r15
    5fda:	bf 90       	pop	r11
    5fdc:	af 90       	pop	r10
    5fde:	9f 90       	pop	r9
    5fe0:	8f 90       	pop	r8
    5fe2:	08 95       	ret
    5fe4:	14 86       	std	Z+12, r1	; 0x0c
    5fe6:	78 cf       	rjmp	.-272    	; 0x5ed8 <UartClass::begin(unsigned long, unsigned int)+0xb0>
_set_pins():
    5fe8:	34 2f       	mov	r19, r20
    5fea:	30 75       	andi	r19, 0x50	; 80
    5fec:	09 f4       	brne	.+2      	; 0x5ff0 <UartClass::begin(unsigned long, unsigned int)+0x1c8>
    5fee:	9d cf       	rjmp	.-198    	; 0x5f2a <UartClass::begin(unsigned long, unsigned int)+0x102>
_pinMode():
    5ff0:	77 31       	cpi	r23, 0x17	; 23
    5ff2:	08 f0       	brcs	.+2      	; 0x5ff6 <UartClass::begin(unsigned long, unsigned int)+0x1ce>
    5ff4:	9a cf       	rjmp	.-204    	; 0x5f2a <UartClass::begin(unsigned long, unsigned int)+0x102>
check_valid_digital_pin():
    5ff6:	30 e0       	ldi	r19, 0x00	; 0
_pinMode():
    5ff8:	f9 01       	movw	r30, r18
    5ffa:	e2 52       	subi	r30, 0x22	; 34
    5ffc:	ff 49       	sbci	r31, 0x9F	; 159
    5ffe:	d0 81       	ld	r29, Z
    6000:	df 3f       	cpi	r29, 0xFF	; 255
    6002:	09 f4       	brne	.+2      	; 0x6006 <UartClass::begin(unsigned long, unsigned int)+0x1de>
    6004:	92 cf       	rjmp	.-220    	; 0x5f2a <UartClass::begin(unsigned long, unsigned int)+0x102>
    6006:	f9 01       	movw	r30, r18
    6008:	eb 50       	subi	r30, 0x0B	; 11
    600a:	ff 49       	sbci	r31, 0x9F	; 159
    600c:	a0 81       	ld	r26, Z
    600e:	e0 e2       	ldi	r30, 0x20	; 32
    6010:	ae 9f       	mul	r26, r30
    6012:	d0 01       	movw	r26, r0
    6014:	11 24       	eor	r1, r1
    6016:	bc 5f       	subi	r27, 0xFC	; 252
    6018:	24 5f       	subi	r18, 0xF4	; 244
    601a:	3e 49       	sbci	r19, 0x9E	; 158
    601c:	f9 01       	movw	r30, r18
    601e:	10 81       	ld	r17, Z
begin():
    6020:	f0 e0       	ldi	r31, 0x00	; 0
    6022:	e0 e0       	ldi	r30, 0x00	; 0
_pinMode():
    6024:	18 30       	cpi	r17, 0x08	; 8
    6026:	30 f4       	brcc	.+12     	; 0x6034 <UartClass::begin(unsigned long, unsigned int)+0x20c>
    6028:	9d 01       	movw	r18, r26
    602a:	20 5f       	subi	r18, 0xF0	; 240
    602c:	3f 4f       	sbci	r19, 0xFF	; 255
    602e:	f9 01       	movw	r30, r18
    6030:	e1 0f       	add	r30, r17
    6032:	f1 1d       	adc	r31, r1
    6034:	3f b7       	in	r19, 0x3f	; 63
    6036:	f8 94       	cli
    6038:	12 96       	adiw	r26, 0x02	; 2
    603a:	dc 93       	st	X, r29
    603c:	20 81       	ld	r18, Z
    603e:	28 60       	ori	r18, 0x08	; 8
    6040:	20 83       	st	Z, r18
    6042:	3f bf       	out	0x3f, r19	; 63
    6044:	72 cf       	rjmp	.-284    	; 0x5f2a <UartClass::begin(unsigned long, unsigned int)+0x102>

00006046 <UartClass::_poll_tx_data_empty()>:
_poll_tx_data_empty():
    6046:	fc 01       	movw	r30, r24
    6048:	0f b6       	in	r0, 0x3f	; 63
    604a:	07 fe       	sbrs	r0, 7
    604c:	04 c0       	rjmp	.+8      	; 0x6056 <UartClass::_poll_tx_data_empty()+0x10>
    604e:	80 91 11 01 	lds	r24, 0x0111	; 0x800111 <__TEXT_REGION_LENGTH__+0x7f0111>
    6052:	88 23       	and	r24, r24
    6054:	a9 f0       	breq	.+42     	; 0x6080 <_poll_dre_done>
    6056:	a4 85       	ldd	r26, Z+12	; 0x0c
    6058:	b5 85       	ldd	r27, Z+13	; 0x0d
    605a:	14 96       	adiw	r26, 0x04	; 4
    605c:	8c 91       	ld	r24, X
    605e:	14 97       	sbiw	r26, 0x04	; 4
    6060:	85 ff       	sbrs	r24, 5
    6062:	0e c0       	rjmp	.+28     	; 0x6080 <_poll_dre_done>
    6064:	95 89       	ldd	r25, Z+21	; 0x15
    6066:	86 89       	ldd	r24, Z+22	; 0x16
    6068:	98 17       	cp	r25, r24
    606a:	39 f0       	breq	.+14     	; 0x607a <UartClass::_poll_tx_data_empty()+0x34>
    606c:	15 96       	adiw	r26, 0x05	; 5
    606e:	8c 91       	ld	r24, X
    6070:	15 97       	sbiw	r26, 0x05	; 5
    6072:	8f 7d       	andi	r24, 0xDF	; 223
    6074:	15 96       	adiw	r26, 0x05	; 5
    6076:	8c 93       	st	X, r24
    6078:	08 95       	ret
    607a:	e8 94       	clt
    607c:	0c 94 04 49 	jmp	0x9208	; 0x9208 <_poll_dre>

00006080 <_poll_dre_done>:
    6080:	08 95       	ret

00006082 <UartClass::write(unsigned char)>:
write():
    6082:	0f 93       	push	r16
    6084:	1f 93       	push	r17
    6086:	cf 93       	push	r28
    6088:	df 93       	push	r29
    608a:	ec 01       	movw	r28, r24
    608c:	8a 89       	ldd	r24, Y+18	; 0x12
    608e:	98 2f       	mov	r25, r24
    6090:	91 60       	ori	r25, 0x01	; 1
    6092:	9a 8b       	std	Y+18, r25	; 0x12
    6094:	2d 89       	ldd	r18, Y+21	; 0x15
    6096:	9e 89       	ldd	r25, Y+22	; 0x16
    6098:	29 13       	cpse	r18, r25
    609a:	0a c0       	rjmp	.+20     	; 0x60b0 <UartClass::write(unsigned char)+0x2e>
    609c:	ec 85       	ldd	r30, Y+12	; 0x0c
    609e:	fd 85       	ldd	r31, Y+13	; 0x0d
    60a0:	94 81       	ldd	r25, Z+4	; 0x04
    60a2:	95 ff       	sbrs	r25, 5
    60a4:	05 c0       	rjmp	.+10     	; 0x60b0 <UartClass::write(unsigned char)+0x2e>
    60a6:	81 fd       	sbrc	r24, 1
    60a8:	0d c0       	rjmp	.+26     	; 0x60c4 <UartClass::write(unsigned char)+0x42>
    60aa:	80 e4       	ldi	r24, 0x40	; 64
    60ac:	84 83       	std	Z+4, r24	; 0x04
    60ae:	12 c0       	rjmp	.+36     	; 0x60d4 <UartClass::write(unsigned char)+0x52>
    60b0:	06 2f       	mov	r16, r22
    60b2:	1d 89       	ldd	r17, Y+21	; 0x15
    60b4:	1f 5f       	subi	r17, 0xFF	; 255
    60b6:	1f 73       	andi	r17, 0x3F	; 63
    60b8:	8e 89       	ldd	r24, Y+22	; 0x16
    60ba:	81 13       	cpse	r24, r17
    60bc:	15 c0       	rjmp	.+42     	; 0x60e8 <UartClass::write(unsigned char)+0x66>
    60be:	ce 01       	movw	r24, r28
    60c0:	c2 df       	rcall	.-124    	; 0x6046 <UartClass::_poll_tx_data_empty()>
    60c2:	fa cf       	rjmp	.-12     	; 0x60b8 <UartClass::write(unsigned char)+0x36>
    60c4:	85 81       	ldd	r24, Z+5	; 0x05
    60c6:	8f 77       	andi	r24, 0x7F	; 127
    60c8:	80 64       	ori	r24, 0x40	; 64
    60ca:	90 e4       	ldi	r25, 0x40	; 64
    60cc:	94 83       	std	Z+4, r25	; 0x04
    60ce:	ec 85       	ldd	r30, Y+12	; 0x0c
    60d0:	fd 85       	ldd	r31, Y+13	; 0x0d
    60d2:	85 83       	std	Z+5, r24	; 0x05
    60d4:	ec 85       	ldd	r30, Y+12	; 0x0c
    60d6:	fd 85       	ldd	r31, Y+13	; 0x0d
    60d8:	62 83       	std	Z+2, r22	; 0x02
    60da:	81 e0       	ldi	r24, 0x01	; 1
    60dc:	90 e0       	ldi	r25, 0x00	; 0
    60de:	df 91       	pop	r29
    60e0:	cf 91       	pop	r28
    60e2:	1f 91       	pop	r17
    60e4:	0f 91       	pop	r16
    60e6:	08 95       	ret
    60e8:	ed 89       	ldd	r30, Y+21	; 0x15
    60ea:	ec 0f       	add	r30, r28
    60ec:	fd 2f       	mov	r31, r29
    60ee:	f1 1d       	adc	r31, r1
    60f0:	e9 5a       	subi	r30, 0xA9	; 169
    60f2:	ff 4f       	sbci	r31, 0xFF	; 255
    60f4:	00 83       	st	Z, r16
    60f6:	1d 8b       	std	Y+21, r17	; 0x15
    60f8:	ec 85       	ldd	r30, Y+12	; 0x0c
    60fa:	fd 85       	ldd	r31, Y+13	; 0x0d
    60fc:	8a 89       	ldd	r24, Y+18	; 0x12
    60fe:	81 ff       	sbrs	r24, 1
    6100:	09 c0       	rjmp	.+18     	; 0x6114 <UartClass::write(unsigned char)+0x92>
    6102:	85 81       	ldd	r24, Z+5	; 0x05
    6104:	8f 77       	andi	r24, 0x7F	; 127
    6106:	80 66       	ori	r24, 0x60	; 96
    6108:	90 e4       	ldi	r25, 0x40	; 64
    610a:	94 83       	std	Z+4, r25	; 0x04
    610c:	ec 85       	ldd	r30, Y+12	; 0x0c
    610e:	fd 85       	ldd	r31, Y+13	; 0x0d
    6110:	85 83       	std	Z+5, r24	; 0x05
    6112:	e3 cf       	rjmp	.-58     	; 0x60da <UartClass::write(unsigned char)+0x58>
    6114:	85 81       	ldd	r24, Z+5	; 0x05
    6116:	80 62       	ori	r24, 0x20	; 32
    6118:	fb cf       	rjmp	.-10     	; 0x6110 <UartClass::write(unsigned char)+0x8e>

0000611a <UartClass::flush()>:
flush():
    611a:	cf 93       	push	r28
    611c:	df 93       	push	r29
    611e:	ec 01       	movw	r28, r24
    6120:	8a 89       	ldd	r24, Y+18	; 0x12
    6122:	80 ff       	sbrs	r24, 0
    6124:	0b c0       	rjmp	.+22     	; 0x613c <UartClass::flush()+0x22>
    6126:	ec 85       	ldd	r30, Y+12	; 0x0c
    6128:	fd 85       	ldd	r31, Y+13	; 0x0d
    612a:	85 81       	ldd	r24, Z+5	; 0x05
    612c:	85 fd       	sbrc	r24, 5
    612e:	03 c0       	rjmp	.+6      	; 0x6136 <UartClass::flush()+0x1c>
    6130:	84 81       	ldd	r24, Z+4	; 0x04
    6132:	86 fd       	sbrc	r24, 6
    6134:	03 c0       	rjmp	.+6      	; 0x613c <UartClass::flush()+0x22>
    6136:	ce 01       	movw	r24, r28
    6138:	86 df       	rcall	.-244    	; 0x6046 <UartClass::_poll_tx_data_empty()>
    613a:	f5 cf       	rjmp	.-22     	; 0x6126 <UartClass::flush()+0xc>
    613c:	df 91       	pop	r29
    613e:	cf 91       	pop	r28
    6140:	08 95       	ret

00006142 <UImenuItem::selectable()>:
selectable():
    6142:	81 e0       	ldi	r24, 0x01	; 1
    6144:	08 95       	ret

00006146 <_delayMicroseconds>:
_delayMicroseconds():
    6146:	01 c0       	rjmp	.+2      	; 0x614a <_delayMicroseconds+0x4>
    6148:	08 95       	ret
    614a:	fe df       	rcall	.-4      	; 0x6148 <_delayMicroseconds+0x2>
    614c:	9c 01       	movw	r18, r24
    614e:	22 0f       	add	r18, r18
    6150:	33 1f       	adc	r19, r19
    6152:	03 97       	sbiw	r24, 0x03	; 3
    6154:	82 0f       	add	r24, r18
    6156:	93 1f       	adc	r25, r19
    6158:	01 97       	sbiw	r24, 0x01	; 1
    615a:	00 c0       	rjmp	.+0      	; 0x615c <_delayMicroseconds+0x16>
    615c:	00 c0       	rjmp	.+0      	; 0x615e <_delayMicroseconds+0x18>
    615e:	e1 f7       	brne	.-8      	; 0x6158 <_delayMicroseconds+0x12>
    6160:	08 95       	ret

00006162 <micros>:
micros():
    6162:	9f b7       	in	r25, 0x3f	; 63
    6164:	f8 94       	cli
    6166:	e0 91 2a 0b 	lds	r30, 0x0B2A	; 0x800b2a <__TEXT_REGION_LENGTH__+0x7f0b2a>
    616a:	f0 91 2b 0b 	lds	r31, 0x0B2B	; 0x800b2b <__TEXT_REGION_LENGTH__+0x7f0b2b>
    616e:	80 91 26 0b 	lds	r24, 0x0B26	; 0x800b26 <__TEXT_REGION_LENGTH__+0x7f0b26>
    6172:	20 91 35 64 	lds	r18, 0x6435	; 0x806435 <timer_millis>
    6176:	30 91 36 64 	lds	r19, 0x6436	; 0x806436 <timer_millis+0x1>
    617a:	40 91 37 64 	lds	r20, 0x6437	; 0x806437 <timer_millis+0x2>
    617e:	50 91 38 64 	lds	r21, 0x6438	; 0x806438 <timer_millis+0x3>
    6182:	9f bf       	out	0x3f, r25	; 63
    6184:	80 ff       	sbrs	r24, 0
    6186:	08 c0       	rjmp	.+16     	; 0x6198 <micros+0x36>
    6188:	ec 3e       	cpi	r30, 0xEC	; 236
    618a:	8c e2       	ldi	r24, 0x2C	; 44
    618c:	f8 07       	cpc	r31, r24
    618e:	20 f4       	brcc	.+8      	; 0x6198 <micros+0x36>
    6190:	2f 5f       	subi	r18, 0xFF	; 255
    6192:	3f 4f       	sbci	r19, 0xFF	; 255
    6194:	4f 4f       	sbci	r20, 0xFF	; 255
    6196:	5f 4f       	sbci	r21, 0xFF	; 255
    6198:	0f 01       	movw	r0, r30
    619a:	16 94       	lsr	r1
    619c:	07 94       	ror	r0
    619e:	16 94       	lsr	r1
    61a0:	07 94       	ror	r0
    61a2:	16 94       	lsr	r1
    61a4:	07 94       	ror	r0
    61a6:	16 94       	lsr	r1
    61a8:	07 94       	ror	r0
    61aa:	f0 01       	movw	r30, r0
    61ac:	16 94       	lsr	r1
    61ae:	07 94       	ror	r0
    61b0:	e0 0d       	add	r30, r0
    61b2:	f1 1d       	adc	r31, r1
    61b4:	16 94       	lsr	r1
    61b6:	07 94       	ror	r0
    61b8:	10 2c       	mov	r1, r0
    61ba:	16 94       	lsr	r1
    61bc:	01 18       	sub	r0, r1
    61be:	16 94       	lsr	r1
    61c0:	01 0c       	add	r0, r1
    61c2:	16 94       	lsr	r1
    61c4:	01 18       	sub	r0, r1
    61c6:	16 94       	lsr	r1
    61c8:	01 0c       	add	r0, r1
    61ca:	16 94       	lsr	r1
    61cc:	01 18       	sub	r0, r1
    61ce:	16 94       	lsr	r1
    61d0:	16 94       	lsr	r1
    61d2:	01 0c       	add	r0, r1
    61d4:	11 24       	eor	r1, r1
    61d6:	e0 19       	sub	r30, r0
    61d8:	f1 09       	sbc	r31, r1
    61da:	a8 ee       	ldi	r26, 0xE8	; 232
    61dc:	b3 e0       	ldi	r27, 0x03	; 3
    61de:	0e 94 f7 65 	call	0xcbee	; 0xcbee <__muluhisi3>
    61e2:	6e 0f       	add	r22, r30
    61e4:	7f 1f       	adc	r23, r31
    61e6:	81 1d       	adc	r24, r1
    61e8:	91 1d       	adc	r25, r1
    61ea:	08 95       	ret

000061ec <delay>:
delay():
    61ec:	8f 92       	push	r8
    61ee:	9f 92       	push	r9
    61f0:	af 92       	push	r10
    61f2:	bf 92       	push	r11
    61f4:	cf 92       	push	r12
    61f6:	df 92       	push	r13
    61f8:	ef 92       	push	r14
    61fa:	ff 92       	push	r15
    61fc:	6b 01       	movw	r12, r22
    61fe:	7c 01       	movw	r14, r24
    6200:	b0 df       	rcall	.-160    	; 0x6162 <micros>
    6202:	4b 01       	movw	r8, r22
    6204:	5c 01       	movw	r10, r24
    6206:	c1 14       	cp	r12, r1
    6208:	d1 04       	cpc	r13, r1
    620a:	e1 04       	cpc	r14, r1
    620c:	f1 04       	cpc	r15, r1
    620e:	b1 f0       	breq	.+44     	; 0x623c <delay+0x50>
    6210:	a8 df       	rcall	.-176    	; 0x6162 <micros>
    6212:	68 19       	sub	r22, r8
    6214:	79 09       	sbc	r23, r9
    6216:	8a 09       	sbc	r24, r10
    6218:	9b 09       	sbc	r25, r11
    621a:	68 3e       	cpi	r22, 0xE8	; 232
    621c:	73 40       	sbci	r23, 0x03	; 3
    621e:	81 05       	cpc	r24, r1
    6220:	91 05       	cpc	r25, r1
    6222:	88 f3       	brcs	.-30     	; 0x6206 <delay+0x1a>
    6224:	21 e0       	ldi	r18, 0x01	; 1
    6226:	c2 1a       	sub	r12, r18
    6228:	d1 08       	sbc	r13, r1
    622a:	e1 08       	sbc	r14, r1
    622c:	f1 08       	sbc	r15, r1
    622e:	88 ee       	ldi	r24, 0xE8	; 232
    6230:	88 0e       	add	r8, r24
    6232:	83 e0       	ldi	r24, 0x03	; 3
    6234:	98 1e       	adc	r9, r24
    6236:	a1 1c       	adc	r10, r1
    6238:	b1 1c       	adc	r11, r1
    623a:	e5 cf       	rjmp	.-54     	; 0x6206 <delay+0x1a>
    623c:	ff 90       	pop	r15
    623e:	ef 90       	pop	r14
    6240:	df 90       	pop	r13
    6242:	cf 90       	pop	r12
    6244:	bf 90       	pop	r11
    6246:	af 90       	pop	r10
    6248:	9f 90       	pop	r9
    624a:	8f 90       	pop	r8
    624c:	08 95       	ret

0000624e <TwoWire::flush()>:
TWI_Flush():
    624e:	dc 01       	movw	r26, r24
    6250:	1c 96       	adiw	r26, 0x0c	; 12
    6252:	ed 91       	ld	r30, X+
    6254:	fc 91       	ld	r31, X
    6256:	93 81       	ldd	r25, Z+3	; 0x03
    6258:	81 85       	ldd	r24, Z+9	; 0x09
    625a:	13 82       	std	Z+3, r1	; 0x03
    625c:	11 86       	std	Z+9, r1	; 0x09
    625e:	93 83       	std	Z+3, r25	; 0x03
    6260:	91 e0       	ldi	r25, 0x01	; 1
    6262:	95 83       	std	Z+5, r25	; 0x05
    6264:	81 87       	std	Z+9, r24	; 0x09
flush():
    6266:	08 95       	ret

00006268 <TwoWire::peek()>:
peek():
    6268:	9c 01       	movw	r18, r24
    626a:	26 56       	subi	r18, 0x66	; 102
    626c:	3f 4f       	sbci	r19, 0xFF	; 255
    626e:	dc 01       	movw	r26, r24
    6270:	52 96       	adiw	r26, 0x12	; 18
    6272:	ec 91       	ld	r30, X
    6274:	52 97       	sbiw	r26, 0x12	; 18
    6276:	51 96       	adiw	r26, 0x11	; 17
    6278:	8c 91       	ld	r24, X
    627a:	e8 17       	cp	r30, r24
    627c:	30 f4       	brcc	.+12     	; 0x628a <TwoWire::peek()+0x22>
    627e:	e2 0f       	add	r30, r18
    6280:	f3 2f       	mov	r31, r19
    6282:	f1 1d       	adc	r31, r1
    6284:	80 81       	ld	r24, Z
    6286:	90 e0       	ldi	r25, 0x00	; 0
    6288:	08 95       	ret
    628a:	8f ef       	ldi	r24, 0xFF	; 255
    628c:	9f ef       	ldi	r25, 0xFF	; 255
    628e:	08 95       	ret

00006290 <TwoWire::read()>:
read():
    6290:	fc 01       	movw	r30, r24
    6292:	dc 01       	movw	r26, r24
    6294:	a6 56       	subi	r26, 0x66	; 102
    6296:	bf 4f       	sbci	r27, 0xFF	; 255
    6298:	92 89       	ldd	r25, Z+18	; 0x12
    629a:	81 89       	ldd	r24, Z+17	; 0x11
    629c:	98 17       	cp	r25, r24
    629e:	40 f4       	brcc	.+16     	; 0x62b0 <TwoWire::read()+0x20>
    62a0:	a9 0f       	add	r26, r25
    62a2:	b1 1d       	adc	r27, r1
    62a4:	2c 91       	ld	r18, X
    62a6:	9f 5f       	subi	r25, 0xFF	; 255
    62a8:	92 8b       	std	Z+18, r25	; 0x12
    62aa:	82 2f       	mov	r24, r18
    62ac:	90 e0       	ldi	r25, 0x00	; 0
    62ae:	08 95       	ret
    62b0:	8f ef       	ldi	r24, 0xFF	; 255
    62b2:	9f ef       	ldi	r25, 0xFF	; 255
    62b4:	08 95       	ret

000062b6 <TwoWire::available()>:
available():
    62b6:	fc 01       	movw	r30, r24
    62b8:	81 89       	ldd	r24, Z+17	; 0x11
    62ba:	92 89       	ldd	r25, Z+18	; 0x12
    62bc:	89 1b       	sub	r24, r25
    62be:	99 0b       	sbc	r25, r25
    62c0:	08 95       	ret

000062c2 <TwoWire::write(unsigned char const*, unsigned int)>:
write():
    62c2:	cf 92       	push	r12
    62c4:	df 92       	push	r13
    62c6:	ef 92       	push	r14
    62c8:	ff 92       	push	r15
    62ca:	0f 93       	push	r16
    62cc:	1f 93       	push	r17
    62ce:	cf 93       	push	r28
    62d0:	6c 01       	movw	r12, r24
    62d2:	43 38       	cpi	r20, 0x83	; 131
    62d4:	51 05       	cpc	r21, r1
    62d6:	10 f0       	brcs	.+4      	; 0x62dc <TwoWire::write(unsigned char const*, unsigned int)+0x1a>
    62d8:	42 e8       	ldi	r20, 0x82	; 130
    62da:	50 e0       	ldi	r21, 0x00	; 0
    62dc:	c4 2f       	mov	r28, r20
    62de:	7b 01       	movw	r14, r22
    62e0:	10 e0       	ldi	r17, 0x00	; 0
    62e2:	00 e0       	ldi	r16, 0x00	; 0
    62e4:	0c 17       	cp	r16, r28
    62e6:	80 f4       	brcc	.+32     	; 0x6308 <TwoWire::write(unsigned char const*, unsigned int)+0x46>
    62e8:	d7 01       	movw	r26, r14
    62ea:	6d 91       	ld	r22, X+
    62ec:	7d 01       	movw	r14, r26
    62ee:	d6 01       	movw	r26, r12
    62f0:	ed 91       	ld	r30, X+
    62f2:	fc 91       	ld	r31, X
    62f4:	01 90       	ld	r0, Z+
    62f6:	f0 81       	ld	r31, Z
    62f8:	e0 2d       	mov	r30, r0
    62fa:	c6 01       	movw	r24, r12
    62fc:	09 95       	icall
    62fe:	98 01       	movw	r18, r16
    6300:	2f 5f       	subi	r18, 0xFF	; 255
    6302:	3f 4f       	sbci	r19, 0xFF	; 255
    6304:	89 2b       	or	r24, r25
    6306:	49 f4       	brne	.+18     	; 0x631a <TwoWire::write(unsigned char const*, unsigned int)+0x58>
    6308:	c8 01       	movw	r24, r16
    630a:	cf 91       	pop	r28
    630c:	1f 91       	pop	r17
    630e:	0f 91       	pop	r16
    6310:	ff 90       	pop	r15
    6312:	ef 90       	pop	r14
    6314:	df 90       	pop	r13
    6316:	cf 90       	pop	r12
    6318:	08 95       	ret
    631a:	89 01       	movw	r16, r18
    631c:	e3 cf       	rjmp	.-58     	; 0x62e4 <TwoWire::write(unsigned char const*, unsigned int)+0x22>

0000631e <TwoWire::write(unsigned char)>:
    631e:	fc 01       	movw	r30, r24
    6320:	a0 89       	ldd	r26, Z+16	; 0x10
    6322:	a2 38       	cpi	r26, 0x82	; 130
    6324:	58 f4       	brcc	.+22     	; 0x633c <TwoWire::write(unsigned char)+0x1e>
    6326:	a8 0f       	add	r26, r24
    6328:	b9 2f       	mov	r27, r25
    632a:	b1 1d       	adc	r27, r1
    632c:	58 96       	adiw	r26, 0x18	; 24
    632e:	6c 93       	st	X, r22
    6330:	80 89       	ldd	r24, Z+16	; 0x10
    6332:	8f 5f       	subi	r24, 0xFF	; 255
    6334:	80 8b       	std	Z+16, r24	; 0x10
    6336:	81 e0       	ldi	r24, 0x01	; 1
    6338:	90 e0       	ldi	r25, 0x00	; 0
    633a:	08 95       	ret
    633c:	90 e0       	ldi	r25, 0x00	; 0
    633e:	80 e0       	ldi	r24, 0x00	; 0
    6340:	08 95       	ret

00006342 <Event::set_generator(unsigned char)>:
set_generator():
    6342:	fc 01       	movw	r30, r24
    6344:	70 e0       	ldi	r23, 0x00	; 0
    6346:	db 01       	movw	r26, r22
    6348:	ab 50       	subi	r26, 0x0B	; 11
    634a:	bf 49       	sbci	r27, 0x9F	; 159
    634c:	2c 91       	ld	r18, X
    634e:	2f 3f       	cpi	r18, 0xFF	; 255
    6350:	79 f0       	breq	.+30     	; 0x6370 <Event::set_generator(unsigned char)+0x2e>
    6352:	64 5f       	subi	r22, 0xF4	; 244
    6354:	7e 49       	sbci	r23, 0x9E	; 158
    6356:	db 01       	movw	r26, r22
    6358:	9c 91       	ld	r25, X
    635a:	9f 3f       	cpi	r25, 0xFF	; 255
    635c:	49 f0       	breq	.+18     	; 0x6370 <Event::set_generator(unsigned char)+0x2e>
    635e:	b8 e0       	ldi	r27, 0x08	; 8
    6360:	2b 9f       	mul	r18, r27
    6362:	90 01       	movw	r18, r0
    6364:	11 24       	eor	r1, r1
    6366:	28 70       	andi	r18, 0x08	; 8
    6368:	90 64       	ori	r25, 0x40	; 64
    636a:	29 2b       	or	r18, r25
    636c:	23 83       	std	Z+3, r18	; 0x03
    636e:	08 95       	ret
    6370:	13 82       	std	Z+3, r1	; 0x03
    6372:	08 95       	ret

00006374 <u8x8_gpio_call>:
u8x8_gpio_call():
    6374:	dc 01       	movw	r26, r24
    6376:	1a 96       	adiw	r26, 0x0a	; 10
    6378:	ed 91       	ld	r30, X+
    637a:	fc 91       	ld	r31, X
    637c:	30 e0       	ldi	r19, 0x00	; 0
    637e:	20 e0       	ldi	r18, 0x00	; 0
    6380:	09 94       	ijmp

00006382 <u8x8_RefreshDisplay>:
u8x8_RefreshDisplay():
    6382:	dc 01       	movw	r26, r24
    6384:	14 96       	adiw	r26, 0x04	; 4
    6386:	ed 91       	ld	r30, X+
    6388:	fc 91       	ld	r31, X
    638a:	30 e0       	ldi	r19, 0x00	; 0
    638c:	20 e0       	ldi	r18, 0x00	; 0
    638e:	40 e0       	ldi	r20, 0x00	; 0
    6390:	60 e1       	ldi	r22, 0x10	; 16
    6392:	09 94       	ijmp

00006394 <u8x8_cad_EndTransfer>:
u8x8_cad_EndTransfer():
    6394:	dc 01       	movw	r26, r24
    6396:	16 96       	adiw	r26, 0x06	; 6
    6398:	ed 91       	ld	r30, X+
    639a:	fc 91       	ld	r31, X
    639c:	30 e0       	ldi	r19, 0x00	; 0
    639e:	20 e0       	ldi	r18, 0x00	; 0
    63a0:	40 e0       	ldi	r20, 0x00	; 0
    63a2:	69 e1       	ldi	r22, 0x19	; 25
    63a4:	09 94       	ijmp

000063a6 <u8x8_cad_StartTransfer>:
u8x8_cad_StartTransfer():
    63a6:	dc 01       	movw	r26, r24
    63a8:	16 96       	adiw	r26, 0x06	; 6
    63aa:	ed 91       	ld	r30, X+
    63ac:	fc 91       	ld	r31, X
    63ae:	30 e0       	ldi	r19, 0x00	; 0
    63b0:	20 e0       	ldi	r18, 0x00	; 0
    63b2:	40 e0       	ldi	r20, 0x00	; 0
    63b4:	68 e1       	ldi	r22, 0x18	; 24
    63b6:	09 94       	ijmp

000063b8 <u8x8_cad_SendData>:
u8x8_cad_SendData():
    63b8:	9a 01       	movw	r18, r20
    63ba:	dc 01       	movw	r26, r24
    63bc:	16 96       	adiw	r26, 0x06	; 6
    63be:	ed 91       	ld	r30, X+
    63c0:	fc 91       	ld	r31, X
    63c2:	46 2f       	mov	r20, r22
    63c4:	67 e1       	ldi	r22, 0x17	; 23
    63c6:	09 94       	ijmp

000063c8 <u8x8_cad_SendSequence>:
u8x8_cad_SendSequence():
    63c8:	ef 92       	push	r14
    63ca:	ff 92       	push	r15
    63cc:	0f 93       	push	r16
    63ce:	1f 93       	push	r17
    63d0:	cf 93       	push	r28
    63d2:	df 93       	push	r29
    63d4:	1f 92       	push	r1
    63d6:	cd b7       	in	r28, 0x3d	; 61
    63d8:	de b7       	in	r29, 0x3e	; 62
    63da:	7c 01       	movw	r14, r24
    63dc:	8b 01       	movw	r16, r22
    63de:	d8 01       	movw	r26, r16
    63e0:	6c 91       	ld	r22, X
    63e2:	67 31       	cpi	r22, 0x17	; 23
    63e4:	21 f1       	breq	.+72     	; 0x642e <u8x8_cad_SendSequence+0x66>
    63e6:	50 f4       	brcc	.+20     	; 0x63fc <u8x8_cad_SendSequence+0x34>
    63e8:	65 31       	cpi	r22, 0x15	; 21
    63ea:	98 f4       	brcc	.+38     	; 0x6412 <u8x8_cad_SendSequence+0x4a>
    63ec:	0f 90       	pop	r0
    63ee:	df 91       	pop	r29
    63f0:	cf 91       	pop	r28
    63f2:	1f 91       	pop	r17
    63f4:	0f 91       	pop	r16
    63f6:	ff 90       	pop	r15
    63f8:	ef 90       	pop	r14
    63fa:	08 95       	ret
    63fc:	6a 31       	cpi	r22, 0x1A	; 26
    63fe:	08 f1       	brcs	.+66     	; 0x6442 <u8x8_cad_SendSequence+0x7a>
    6400:	6e 3f       	cpi	r22, 0xFE	; 254
    6402:	a1 f7       	brne	.-24     	; 0x63ec <u8x8_cad_SendSequence+0x24>
    6404:	f8 01       	movw	r30, r16
    6406:	41 81       	ldd	r20, Z+1	; 0x01
    6408:	49 83       	std	Y+1, r20	; 0x01
    640a:	69 e2       	ldi	r22, 0x29	; 41
    640c:	c7 01       	movw	r24, r14
    640e:	b2 df       	rcall	.-156    	; 0x6374 <u8x8_gpio_call>
    6410:	0b c0       	rjmp	.+22     	; 0x6428 <u8x8_cad_SendSequence+0x60>
    6412:	f8 01       	movw	r30, r16
    6414:	41 81       	ldd	r20, Z+1	; 0x01
    6416:	49 83       	std	Y+1, r20	; 0x01
    6418:	d7 01       	movw	r26, r14
    641a:	16 96       	adiw	r26, 0x06	; 6
    641c:	ed 91       	ld	r30, X+
    641e:	fc 91       	ld	r31, X
    6420:	30 e0       	ldi	r19, 0x00	; 0
    6422:	20 e0       	ldi	r18, 0x00	; 0
    6424:	c7 01       	movw	r24, r14
    6426:	09 95       	icall
    6428:	0e 5f       	subi	r16, 0xFE	; 254
    642a:	1f 4f       	sbci	r17, 0xFF	; 255
    642c:	d8 cf       	rjmp	.-80     	; 0x63de <u8x8_cad_SendSequence+0x16>
    642e:	f8 01       	movw	r30, r16
    6430:	81 81       	ldd	r24, Z+1	; 0x01
    6432:	89 83       	std	Y+1, r24	; 0x01
    6434:	ae 01       	movw	r20, r28
    6436:	4f 5f       	subi	r20, 0xFF	; 255
    6438:	5f 4f       	sbci	r21, 0xFF	; 255
    643a:	61 e0       	ldi	r22, 0x01	; 1
    643c:	c7 01       	movw	r24, r14
    643e:	bc df       	rcall	.-136    	; 0x63b8 <u8x8_cad_SendData>
    6440:	f3 cf       	rjmp	.-26     	; 0x6428 <u8x8_cad_SendSequence+0x60>
    6442:	0f 5f       	subi	r16, 0xFF	; 255
    6444:	1f 4f       	sbci	r17, 0xFF	; 255
    6446:	d7 01       	movw	r26, r14
    6448:	16 96       	adiw	r26, 0x06	; 6
    644a:	ed 91       	ld	r30, X+
    644c:	fc 91       	ld	r31, X
    644e:	30 e0       	ldi	r19, 0x00	; 0
    6450:	20 e0       	ldi	r18, 0x00	; 0
    6452:	40 e0       	ldi	r20, 0x00	; 0
    6454:	c7 01       	movw	r24, r14
    6456:	09 95       	icall
    6458:	c2 cf       	rjmp	.-124    	; 0x63de <u8x8_cad_SendSequence+0x16>

0000645a <u8x8_cad_SendArg>:
u8x8_cad_SendArg():
    645a:	46 2f       	mov	r20, r22
    645c:	dc 01       	movw	r26, r24
    645e:	16 96       	adiw	r26, 0x06	; 6
    6460:	ed 91       	ld	r30, X+
    6462:	fc 91       	ld	r31, X
    6464:	30 e0       	ldi	r19, 0x00	; 0
    6466:	20 e0       	ldi	r18, 0x00	; 0
    6468:	66 e1       	ldi	r22, 0x16	; 22
    646a:	09 94       	ijmp

0000646c <u8x8_cad_SendCmd>:
u8x8_cad_SendCmd():
    646c:	46 2f       	mov	r20, r22
    646e:	dc 01       	movw	r26, r24
    6470:	16 96       	adiw	r26, 0x06	; 6
    6472:	ed 91       	ld	r30, X+
    6474:	fc 91       	ld	r31, X
    6476:	30 e0       	ldi	r19, 0x00	; 0
    6478:	20 e0       	ldi	r18, 0x00	; 0
    647a:	65 e1       	ldi	r22, 0x15	; 21
    647c:	09 94       	ijmp

0000647e <u8x8_d_ssd1322_nhd_256x64>:
u8x8_d_ssd1322_nhd_256x64():
    647e:	7f 92       	push	r7
    6480:	8f 92       	push	r8
    6482:	9f 92       	push	r9
    6484:	af 92       	push	r10
    6486:	bf 92       	push	r11
    6488:	cf 92       	push	r12
    648a:	df 92       	push	r13
    648c:	ef 92       	push	r14
    648e:	ff 92       	push	r15
    6490:	0f 93       	push	r16
    6492:	1f 93       	push	r17
    6494:	cf 93       	push	r28
    6496:	df 93       	push	r29
    6498:	ec 01       	movw	r28, r24
    649a:	b4 2e       	mov	r11, r20
    649c:	79 01       	movw	r14, r18
    649e:	6a 30       	cpi	r22, 0x0A	; 10
    64a0:	d9 f0       	breq	.+54     	; 0x64d8 <u8x8_d_ssd1322_nhd_256x64+0x5a>
    64a2:	6d 30       	cpi	r22, 0x0D	; 13
    64a4:	09 f4       	brne	.+2      	; 0x64a8 <u8x8_d_ssd1322_nhd_256x64+0x2a>
    64a6:	4a c0       	rjmp	.+148    	; 0x653c <u8x8_d_ssd1322_nhd_256x64+0xbe>
    64a8:	69 30       	cpi	r22, 0x09	; 9
    64aa:	09 f0       	breq	.+2      	; 0x64ae <u8x8_d_ssd1322_nhd_256x64+0x30>
    64ac:	57 c0       	rjmp	.+174    	; 0x655c <u8x8_d_ssd1322_nhd_256x64+0xde>
u8x8_d_helper_display_setup_memory():
    64ae:	8f ea       	ldi	r24, 0xAF	; 175
    64b0:	90 e6       	ldi	r25, 0x60	; 96
    64b2:	88 83       	st	Y, r24
    64b4:	99 83       	std	Y+1, r25	; 0x01
    64b6:	8c e1       	ldi	r24, 0x1C	; 28
u8x8_d_ssd1322_nhd_256x64():
    64b8:	8c 8b       	std	Y+20, r24	; 0x14
u8x8_d_ssd1322_common():
    64ba:	81 e0       	ldi	r24, 0x01	; 1
u8x8_d_ssd1322_nhd_256x64():
    64bc:	df 91       	pop	r29
    64be:	cf 91       	pop	r28
    64c0:	1f 91       	pop	r17
    64c2:	0f 91       	pop	r16
    64c4:	ff 90       	pop	r15
    64c6:	ef 90       	pop	r14
    64c8:	df 90       	pop	r13
    64ca:	cf 90       	pop	r12
    64cc:	bf 90       	pop	r11
    64ce:	af 90       	pop	r10
    64d0:	9f 90       	pop	r9
    64d2:	8f 90       	pop	r8
    64d4:	7f 90       	pop	r7
    64d6:	08 95       	ret
u8x8_d_helper_display_init():
    64d8:	ea 85       	ldd	r30, Y+10	; 0x0a
    64da:	fb 85       	ldd	r31, Y+11	; 0x0b
    64dc:	30 e0       	ldi	r19, 0x00	; 0
    64de:	20 e0       	ldi	r18, 0x00	; 0
    64e0:	40 e0       	ldi	r20, 0x00	; 0
    64e2:	68 e2       	ldi	r22, 0x28	; 40
    64e4:	09 95       	icall
    64e6:	ee 81       	ldd	r30, Y+6	; 0x06
    64e8:	ff 81       	ldd	r31, Y+7	; 0x07
    64ea:	30 e0       	ldi	r19, 0x00	; 0
    64ec:	20 e0       	ldi	r18, 0x00	; 0
    64ee:	40 e0       	ldi	r20, 0x00	; 0
    64f0:	64 e1       	ldi	r22, 0x14	; 20
    64f2:	ce 01       	movw	r24, r28
    64f4:	09 95       	icall
    64f6:	41 e0       	ldi	r20, 0x01	; 1
    64f8:	6b e4       	ldi	r22, 0x4B	; 75
    64fa:	ce 01       	movw	r24, r28
    64fc:	3b df       	rcall	.-394    	; 0x6374 <u8x8_gpio_call>
    64fe:	e8 81       	ld	r30, Y
    6500:	f9 81       	ldd	r31, Y+1	; 0x01
    6502:	44 81       	ldd	r20, Z+4	; 0x04
    6504:	69 e2       	ldi	r22, 0x29	; 41
    6506:	ce 01       	movw	r24, r28
    6508:	35 df       	rcall	.-406    	; 0x6374 <u8x8_gpio_call>
    650a:	40 e0       	ldi	r20, 0x00	; 0
    650c:	6b e4       	ldi	r22, 0x4B	; 75
    650e:	ce 01       	movw	r24, r28
    6510:	31 df       	rcall	.-414    	; 0x6374 <u8x8_gpio_call>
    6512:	e8 81       	ld	r30, Y
    6514:	f9 81       	ldd	r31, Y+1	; 0x01
    6516:	44 81       	ldd	r20, Z+4	; 0x04
    6518:	69 e2       	ldi	r22, 0x29	; 41
    651a:	ce 01       	movw	r24, r28
    651c:	2b df       	rcall	.-426    	; 0x6374 <u8x8_gpio_call>
    651e:	41 e0       	ldi	r20, 0x01	; 1
    6520:	6b e4       	ldi	r22, 0x4B	; 75
    6522:	ce 01       	movw	r24, r28
    6524:	27 df       	rcall	.-434    	; 0x6374 <u8x8_gpio_call>
    6526:	e8 81       	ld	r30, Y
    6528:	f9 81       	ldd	r31, Y+1	; 0x01
    652a:	45 81       	ldd	r20, Z+5	; 0x05
    652c:	69 e2       	ldi	r22, 0x29	; 41
    652e:	ce 01       	movw	r24, r28
    6530:	21 df       	rcall	.-446    	; 0x6374 <u8x8_gpio_call>
u8x8_d_ssd1322_nhd_256x64():
    6532:	6c e5       	ldi	r22, 0x5C	; 92
    6534:	70 e6       	ldi	r23, 0x60	; 96
u8x8_d_ssd1322_common():
    6536:	ce 01       	movw	r24, r28
    6538:	47 df       	rcall	.-370    	; 0x63c8 <u8x8_cad_SendSequence>
    653a:	bf cf       	rjmp	.-130    	; 0x64ba <u8x8_d_ssd1322_nhd_256x64+0x3c>
u8x8_d_ssd1322_nhd_256x64():
    653c:	41 11       	cpse	r20, r1
    653e:	07 c0       	rjmp	.+14     	; 0x654e <u8x8_d_ssd1322_nhd_256x64+0xd0>
    6540:	60 e4       	ldi	r22, 0x40	; 64
    6542:	70 e6       	ldi	r23, 0x60	; 96
    6544:	41 df       	rcall	.-382    	; 0x63c8 <u8x8_cad_SendSequence>
    6546:	e8 81       	ld	r30, Y
    6548:	f9 81       	ldd	r31, Y+1	; 0x01
    654a:	82 89       	ldd	r24, Z+18	; 0x12
    654c:	b5 cf       	rjmp	.-150    	; 0x64b8 <u8x8_d_ssd1322_nhd_256x64+0x3a>
    654e:	63 e5       	ldi	r22, 0x53	; 83
    6550:	70 e6       	ldi	r23, 0x60	; 96
    6552:	3a df       	rcall	.-396    	; 0x63c8 <u8x8_cad_SendSequence>
    6554:	e8 81       	ld	r30, Y
    6556:	f9 81       	ldd	r31, Y+1	; 0x01
    6558:	83 89       	ldd	r24, Z+19	; 0x13
    655a:	ae cf       	rjmp	.-164    	; 0x64b8 <u8x8_d_ssd1322_nhd_256x64+0x3a>
u8x8_d_ssd1322_common():
    655c:	6e 30       	cpi	r22, 0x0E	; 14
    655e:	69 f0       	breq	.+26     	; 0x657a <u8x8_d_ssd1322_nhd_256x64+0xfc>
    6560:	6f 30       	cpi	r22, 0x0F	; 15
    6562:	a9 f0       	breq	.+42     	; 0x658e <u8x8_d_ssd1322_nhd_256x64+0x110>
u8x8_d_ssd1322_nhd_256x64():
    6564:	80 e0       	ldi	r24, 0x00	; 0
u8x8_d_ssd1322_common():
    6566:	6b 30       	cpi	r22, 0x0B	; 11
    6568:	09 f0       	breq	.+2      	; 0x656c <u8x8_d_ssd1322_nhd_256x64+0xee>
    656a:	a8 cf       	rjmp	.-176    	; 0x64bc <u8x8_d_ssd1322_nhd_256x64+0x3e>
    656c:	6e e4       	ldi	r22, 0x4E	; 78
    656e:	70 e6       	ldi	r23, 0x60	; 96
    6570:	44 23       	and	r20, r20
    6572:	09 f3       	breq	.-62     	; 0x6536 <u8x8_d_ssd1322_nhd_256x64+0xb8>
    6574:	69 e4       	ldi	r22, 0x49	; 73
    6576:	70 e6       	ldi	r23, 0x60	; 96
    6578:	de cf       	rjmp	.-68     	; 0x6536 <u8x8_d_ssd1322_nhd_256x64+0xb8>
    657a:	15 df       	rcall	.-470    	; 0x63a6 <u8x8_cad_StartTransfer>
    657c:	61 ec       	ldi	r22, 0xC1	; 193
    657e:	ce 01       	movw	r24, r28
    6580:	75 df       	rcall	.-278    	; 0x646c <u8x8_cad_SendCmd>
    6582:	6b 2d       	mov	r22, r11
    6584:	ce 01       	movw	r24, r28
    6586:	69 df       	rcall	.-302    	; 0x645a <u8x8_cad_SendArg>
    6588:	ce 01       	movw	r24, r28
    658a:	04 df       	rcall	.-504    	; 0x6394 <u8x8_cad_EndTransfer>
    658c:	96 cf       	rjmp	.-212    	; 0x64ba <u8x8_d_ssd1322_nhd_256x64+0x3c>
    658e:	0b df       	rcall	.-490    	; 0x63a6 <u8x8_cad_StartTransfer>
    6590:	f7 01       	movw	r30, r14
    6592:	13 81       	ldd	r17, Z+3	; 0x03
    6594:	11 0f       	add	r17, r17
    6596:	8c 89       	ldd	r24, Y+20	; 0x14
    6598:	18 0f       	add	r17, r24
    659a:	04 81       	ldd	r16, Z+4	; 0x04
    659c:	00 0f       	add	r16, r16
    659e:	00 0f       	add	r16, r16
    65a0:	00 0f       	add	r16, r16
    65a2:	65 e7       	ldi	r22, 0x75	; 117
    65a4:	ce 01       	movw	r24, r28
    65a6:	62 df       	rcall	.-316    	; 0x646c <u8x8_cad_SendCmd>
    65a8:	60 2f       	mov	r22, r16
    65aa:	ce 01       	movw	r24, r28
    65ac:	56 df       	rcall	.-340    	; 0x645a <u8x8_cad_SendArg>
    65ae:	67 e0       	ldi	r22, 0x07	; 7
    65b0:	60 0f       	add	r22, r16
    65b2:	ce 01       	movw	r24, r28
    65b4:	52 df       	rcall	.-348    	; 0x645a <u8x8_cad_SendArg>
    65b6:	f7 01       	movw	r30, r14
    65b8:	02 81       	ldd	r16, Z+2	; 0x02
    65ba:	c0 80       	ld	r12, Z
    65bc:	d1 80       	ldd	r13, Z+1	; 0x01
u8x8_d_ssd1322_nhd_256x64():
    65be:	70 2e       	mov	r7, r16
u8x8_d_ssd1322_common():
    65c0:	a1 2e       	mov	r10, r17
    65c2:	65 e1       	ldi	r22, 0x15	; 21
    65c4:	ce 01       	movw	r24, r28
    65c6:	52 df       	rcall	.-348    	; 0x646c <u8x8_cad_SendCmd>
    65c8:	6a 2d       	mov	r22, r10
    65ca:	ce 01       	movw	r24, r28
    65cc:	46 df       	rcall	.-372    	; 0x645a <u8x8_cad_SendArg>
    65ce:	61 e0       	ldi	r22, 0x01	; 1
    65d0:	6a 0d       	add	r22, r10
    65d2:	ce 01       	movw	r24, r28
    65d4:	42 df       	rcall	.-380    	; 0x645a <u8x8_cad_SendArg>
    65d6:	6c e5       	ldi	r22, 0x5C	; 92
    65d8:	ce 01       	movw	r24, r28
    65da:	48 df       	rcall	.-368    	; 0x646c <u8x8_cad_SendCmd>
    65dc:	81 e8       	ldi	r24, 0x81	; 129
    65de:	92 e6       	ldi	r25, 0x62	; 98
    65e0:	46 01       	movw	r8, r12
    65e2:	f8 e0       	ldi	r31, 0x08	; 8
    65e4:	8f 0e       	add	r8, r31
    65e6:	91 1c       	adc	r9, r1
    65e8:	f6 01       	movw	r30, r12
u8x8_ssd1322_8to32.isra.0():
    65ea:	dc 01       	movw	r26, r24
    65ec:	60 81       	ld	r22, Z
    65ee:	51 81       	ldd	r21, Z+1	; 0x01
    65f0:	32 96       	adiw	r30, 0x02	; 2
    65f2:	9c 01       	movw	r18, r24
    65f4:	20 5e       	subi	r18, 0xE0	; 224
    65f6:	3f 4f       	sbci	r19, 0xFF	; 255
u8x8_d_ssd1322_nhd_256x64():
    65f8:	40 ef       	ldi	r20, 0xF0	; 240
u8x8_ssd1322_8to32.isra.0():
    65fa:	60 ff       	sbrs	r22, 0
u8x8_d_ssd1322_nhd_256x64():
    65fc:	40 e0       	ldi	r20, 0x00	; 0
u8x8_ssd1322_8to32.isra.0():
    65fe:	50 fd       	sbrc	r21, 0
    6600:	4f 60       	ori	r20, 0x0F	; 15
    6602:	4c 93       	st	X, r20
    6604:	14 96       	adiw	r26, 0x04	; 4
    6606:	66 95       	lsr	r22
    6608:	56 95       	lsr	r21
    660a:	2a 17       	cp	r18, r26
    660c:	3b 07       	cpc	r19, r27
    660e:	a1 f7       	brne	.-24     	; 0x65f8 <u8x8_d_ssd1322_nhd_256x64+0x17a>
    6610:	01 96       	adiw	r24, 0x01	; 1
    6612:	8e 16       	cp	r8, r30
    6614:	9f 06       	cpc	r9, r31
    6616:	49 f7       	brne	.-46     	; 0x65ea <u8x8_d_ssd1322_nhd_256x64+0x16c>
u8x8_d_ssd1322_common():
    6618:	41 e8       	ldi	r20, 0x81	; 129
    661a:	52 e6       	ldi	r21, 0x62	; 98
    661c:	60 e2       	ldi	r22, 0x20	; 32
    661e:	ce 01       	movw	r24, r28
    6620:	cb de       	rcall	.-618    	; 0x63b8 <u8x8_cad_SendData>
    6622:	64 01       	movw	r12, r8
    6624:	a3 94       	inc	r10
    6626:	a3 94       	inc	r10
    6628:	7a 94       	dec	r7
    662a:	71 10       	cpse	r7, r1
    662c:	ca cf       	rjmp	.-108    	; 0x65c2 <u8x8_d_ssd1322_nhd_256x64+0x144>
    662e:	00 0f       	add	r16, r16
    6630:	10 0f       	add	r17, r16
    6632:	ba 94       	dec	r11
    6634:	b1 10       	cpse	r11, r1
    6636:	bf cf       	rjmp	.-130    	; 0x65b6 <u8x8_d_ssd1322_nhd_256x64+0x138>
    6638:	a7 cf       	rjmp	.-178    	; 0x6588 <u8x8_d_ssd1322_nhd_256x64+0x10a>

0000663a <u8x8_byte_SendByte>:
u8x8_byte_SendByte():
    663a:	cf 93       	push	r28
    663c:	df 93       	push	r29
    663e:	1f 92       	push	r1
    6640:	cd b7       	in	r28, 0x3d	; 61
    6642:	de b7       	in	r29, 0x3e	; 62
    6644:	69 83       	std	Y+1, r22	; 0x01
    6646:	be 01       	movw	r22, r28
    6648:	6f 5f       	subi	r22, 0xFF	; 255
    664a:	7f 4f       	sbci	r23, 0xFF	; 255
    664c:	ce da       	rcall	.-2660   	; 0x5bea <u8x8_byte_SendBytes.constprop.29>
    664e:	0f 90       	pop	r0
    6650:	df 91       	pop	r29
    6652:	cf 91       	pop	r28
    6654:	08 95       	ret

00006656 <u8x8_byte_SetDC>:
u8x8_byte_SetDC():
    6656:	46 2f       	mov	r20, r22
    6658:	dc 01       	movw	r26, r24
    665a:	18 96       	adiw	r26, 0x08	; 8
    665c:	ed 91       	ld	r30, X+
    665e:	fc 91       	ld	r31, X
    6660:	30 e0       	ldi	r19, 0x00	; 0
    6662:	20 e0       	ldi	r18, 0x00	; 0
    6664:	60 e2       	ldi	r22, 0x20	; 32
    6666:	09 94       	ijmp

00006668 <u8x8_cad_011>:
u8x8_cad_011():
    6668:	ef 92       	push	r14
    666a:	ff 92       	push	r15
    666c:	0f 93       	push	r16
    666e:	1f 93       	push	r17
    6670:	cf 93       	push	r28
    6672:	df 93       	push	r29
    6674:	ec 01       	movw	r28, r24
    6676:	16 2f       	mov	r17, r22
    6678:	04 2f       	mov	r16, r20
    667a:	79 01       	movw	r14, r18
    667c:	66 31       	cpi	r22, 0x16	; 22
    667e:	c9 f0       	breq	.+50     	; 0x66b2 <u8x8_cad_011+0x4a>
    6680:	38 f4       	brcc	.+14     	; 0x6690 <u8x8_cad_011+0x28>
    6682:	64 31       	cpi	r22, 0x14	; 20
    6684:	49 f0       	breq	.+18     	; 0x6698 <u8x8_cad_011+0x30>
    6686:	60 e0       	ldi	r22, 0x00	; 0
    6688:	15 31       	cpi	r17, 0x15	; 21
    668a:	a1 f0       	breq	.+40     	; 0x66b4 <u8x8_cad_011+0x4c>
    668c:	80 e0       	ldi	r24, 0x00	; 0
    668e:	18 c0       	rjmp	.+48     	; 0x66c0 <u8x8_cad_011+0x58>
    6690:	67 31       	cpi	r22, 0x17	; 23
    6692:	e9 f0       	breq	.+58     	; 0x66ce <u8x8_cad_011+0x66>
    6694:	6a 31       	cpi	r22, 0x1A	; 26
    6696:	d0 f7       	brcc	.-12     	; 0x668c <u8x8_cad_011+0x24>
    6698:	e8 85       	ldd	r30, Y+8	; 0x08
    669a:	f9 85       	ldd	r31, Y+9	; 0x09
    669c:	97 01       	movw	r18, r14
    669e:	40 2f       	mov	r20, r16
    66a0:	61 2f       	mov	r22, r17
    66a2:	ce 01       	movw	r24, r28
    66a4:	df 91       	pop	r29
    66a6:	cf 91       	pop	r28
    66a8:	1f 91       	pop	r17
    66aa:	0f 91       	pop	r16
    66ac:	ff 90       	pop	r15
    66ae:	ef 90       	pop	r14
    66b0:	09 94       	ijmp
    66b2:	61 e0       	ldi	r22, 0x01	; 1
    66b4:	ce 01       	movw	r24, r28
    66b6:	cf df       	rcall	.-98     	; 0x6656 <u8x8_byte_SetDC>
    66b8:	60 2f       	mov	r22, r16
    66ba:	ce 01       	movw	r24, r28
    66bc:	be df       	rcall	.-132    	; 0x663a <u8x8_byte_SendByte>
    66be:	81 e0       	ldi	r24, 0x01	; 1
    66c0:	df 91       	pop	r29
    66c2:	cf 91       	pop	r28
    66c4:	1f 91       	pop	r17
    66c6:	0f 91       	pop	r16
    66c8:	ff 90       	pop	r15
    66ca:	ef 90       	pop	r14
    66cc:	08 95       	ret
    66ce:	61 e0       	ldi	r22, 0x01	; 1
    66d0:	c2 df       	rcall	.-124    	; 0x6656 <u8x8_byte_SetDC>
    66d2:	e2 cf       	rjmp	.-60     	; 0x6698 <u8x8_cad_011+0x30>

000066d4 <u8x8_utf8_next>:
u8x8_utf8_next():
    66d4:	fc 01       	movw	r30, r24
    66d6:	66 23       	and	r22, r22
    66d8:	d9 f1       	breq	.+118    	; 0x6750 <u8x8_utf8_next+0x7c>
    66da:	6a 30       	cpi	r22, 0x0A	; 10
    66dc:	c9 f1       	breq	.+114    	; 0x6750 <u8x8_utf8_next+0x7c>
    66de:	80 8d       	ldd	r24, Z+24	; 0x18
    66e0:	81 11       	cpse	r24, r1
    66e2:	25 c0       	rjmp	.+74     	; 0x672e <u8x8_utf8_next+0x5a>
    66e4:	6c 3f       	cpi	r22, 0xFC	; 252
    66e6:	48 f0       	brcs	.+18     	; 0x66fa <u8x8_utf8_next+0x26>
    66e8:	85 e0       	ldi	r24, 0x05	; 5
    66ea:	80 8f       	std	Z+24, r24	; 0x18
    66ec:	61 70       	andi	r22, 0x01	; 1
    66ee:	70 e0       	ldi	r23, 0x00	; 0
    66f0:	62 8b       	std	Z+18, r22	; 0x12
    66f2:	73 8b       	std	Z+19, r23	; 0x13
    66f4:	2e ef       	ldi	r18, 0xFE	; 254
    66f6:	3f ef       	ldi	r19, 0xFF	; 255
    66f8:	29 c0       	rjmp	.+82     	; 0x674c <u8x8_utf8_next+0x78>
    66fa:	68 3f       	cpi	r22, 0xF8	; 248
    66fc:	20 f0       	brcs	.+8      	; 0x6706 <u8x8_utf8_next+0x32>
    66fe:	84 e0       	ldi	r24, 0x04	; 4
    6700:	80 8f       	std	Z+24, r24	; 0x18
    6702:	63 70       	andi	r22, 0x03	; 3
    6704:	f4 cf       	rjmp	.-24     	; 0x66ee <u8x8_utf8_next+0x1a>
    6706:	60 3f       	cpi	r22, 0xF0	; 240
    6708:	20 f0       	brcs	.+8      	; 0x6712 <u8x8_utf8_next+0x3e>
    670a:	83 e0       	ldi	r24, 0x03	; 3
    670c:	80 8f       	std	Z+24, r24	; 0x18
    670e:	67 70       	andi	r22, 0x07	; 7
    6710:	ee cf       	rjmp	.-36     	; 0x66ee <u8x8_utf8_next+0x1a>
    6712:	60 3e       	cpi	r22, 0xE0	; 224
    6714:	20 f0       	brcs	.+8      	; 0x671e <u8x8_utf8_next+0x4a>
    6716:	82 e0       	ldi	r24, 0x02	; 2
    6718:	80 8f       	std	Z+24, r24	; 0x18
    671a:	6f 70       	andi	r22, 0x0F	; 15
    671c:	e8 cf       	rjmp	.-48     	; 0x66ee <u8x8_utf8_next+0x1a>
    671e:	26 2f       	mov	r18, r22
    6720:	30 e0       	ldi	r19, 0x00	; 0
    6722:	60 3c       	cpi	r22, 0xC0	; 192
    6724:	98 f0       	brcs	.+38     	; 0x674c <u8x8_utf8_next+0x78>
    6726:	81 e0       	ldi	r24, 0x01	; 1
    6728:	80 8f       	std	Z+24, r24	; 0x18
    672a:	6f 71       	andi	r22, 0x1F	; 31
    672c:	e0 cf       	rjmp	.-64     	; 0x66ee <u8x8_utf8_next+0x1a>
    672e:	81 50       	subi	r24, 0x01	; 1
    6730:	80 8f       	std	Z+24, r24	; 0x18
    6732:	22 89       	ldd	r18, Z+18	; 0x12
    6734:	33 89       	ldd	r19, Z+19	; 0x13
    6736:	96 e0       	ldi	r25, 0x06	; 6
    6738:	22 0f       	add	r18, r18
    673a:	33 1f       	adc	r19, r19
    673c:	9a 95       	dec	r25
    673e:	e1 f7       	brne	.-8      	; 0x6738 <u8x8_utf8_next+0x64>
    6740:	6f 73       	andi	r22, 0x3F	; 63
    6742:	26 2b       	or	r18, r22
    6744:	22 8b       	std	Z+18, r18	; 0x12
    6746:	33 8b       	std	Z+19, r19	; 0x13
    6748:	81 11       	cpse	r24, r1
    674a:	d4 cf       	rjmp	.-88     	; 0x66f4 <u8x8_utf8_next+0x20>
    674c:	c9 01       	movw	r24, r18
    674e:	08 95       	ret
    6750:	2f ef       	ldi	r18, 0xFF	; 255
    6752:	3f ef       	ldi	r19, 0xFF	; 255
    6754:	fb cf       	rjmp	.-10     	; 0x674c <u8x8_utf8_next+0x78>

00006756 <u8log_WriteChar>:
u8log_WriteChar():
    6756:	0f 93       	push	r16
    6758:	1f 93       	push	r17
    675a:	cf 93       	push	r28
    675c:	df 93       	push	r29
    675e:	fc 01       	movw	r30, r24
u8log_write_char():
    6760:	6a 30       	cpi	r22, 0x0A	; 10
    6762:	99 f1       	breq	.+102    	; 0x67ca <u8log_WriteChar+0x74>
    6764:	48 f5       	brcc	.+82     	; 0x67b8 <u8log_WriteChar+0x62>
    6766:	69 30       	cpi	r22, 0x09	; 9
    6768:	09 f4       	brne	.+2      	; 0x676c <u8log_WriteChar+0x16>
    676a:	4f c0       	rjmp	.+158    	; 0x680a <u8log_WriteChar+0xb4>
u8log_cursor_on_screen():
    676c:	92 85       	ldd	r25, Z+10	; 0x0a
    676e:	82 81       	ldd	r24, Z+2	; 0x02
    6770:	98 17       	cp	r25, r24
    6772:	20 f0       	brcs	.+8      	; 0x677c <u8log_WriteChar+0x26>
    6774:	83 85       	ldd	r24, Z+11	; 0x0b
    6776:	12 86       	std	Z+10, r1	; 0x0a
    6778:	8f 5f       	subi	r24, 0xFF	; 255
    677a:	83 87       	std	Z+11, r24	; 0x0b
u8log_scroll_up():
    677c:	10 e2       	ldi	r17, 0x20	; 32
    677e:	71 e0       	ldi	r23, 0x01	; 1
u8log_cursor_on_screen():
    6780:	33 85       	ldd	r19, Z+11	; 0x0b
    6782:	23 81       	ldd	r18, Z+3	; 0x03
    6784:	86 81       	ldd	r24, Z+6	; 0x06
    6786:	97 81       	ldd	r25, Z+7	; 0x07
    6788:	a2 81       	ldd	r26, Z+2	; 0x02
    678a:	32 17       	cp	r19, r18
    678c:	08 f0       	brcs	.+2      	; 0x6790 <u8log_WriteChar+0x3a>
    678e:	56 c0       	rjmp	.+172    	; 0x683c <u8log_WriteChar+0xe6>
u8log_write_to_screen():
    6790:	22 85       	ldd	r18, Z+10	; 0x0a
    6792:	3a 9f       	mul	r19, r26
    6794:	80 0d       	add	r24, r0
    6796:	91 1d       	adc	r25, r1
    6798:	11 24       	eor	r1, r1
    679a:	82 0f       	add	r24, r18
    679c:	91 1d       	adc	r25, r1
    679e:	dc 01       	movw	r26, r24
    67a0:	6c 93       	st	X, r22
    67a2:	82 85       	ldd	r24, Z+10	; 0x0a
    67a4:	8f 5f       	subi	r24, 0xFF	; 255
    67a6:	82 87       	std	Z+10, r24	; 0x0a
    67a8:	80 85       	ldd	r24, Z+8	; 0x08
    67aa:	88 23       	and	r24, r24
    67ac:	c9 f0       	breq	.+50     	; 0x67e0 <u8log_WriteChar+0x8a>
    67ae:	81 e0       	ldi	r24, 0x01	; 1
    67b0:	85 87       	std	Z+13, r24	; 0x0d
    67b2:	83 85       	ldd	r24, Z+11	; 0x0b
    67b4:	84 87       	std	Z+12, r24	; 0x0c
    67b6:	14 c0       	rjmp	.+40     	; 0x67e0 <u8log_WriteChar+0x8a>
u8log_write_char():
    67b8:	6c 30       	cpi	r22, 0x0C	; 12
    67ba:	61 f1       	breq	.+88     	; 0x6814 <u8log_WriteChar+0xbe>
    67bc:	6d 30       	cpi	r22, 0x0D	; 13
    67be:	b1 f6       	brne	.-84     	; 0x676c <u8log_WriteChar+0x16>
    67c0:	81 e0       	ldi	r24, 0x01	; 1
    67c2:	85 87       	std	Z+13, r24	; 0x0d
    67c4:	83 85       	ldd	r24, Z+11	; 0x0b
    67c6:	84 87       	std	Z+12, r24	; 0x0c
    67c8:	0a c0       	rjmp	.+20     	; 0x67de <u8log_WriteChar+0x88>
    67ca:	91 e0       	ldi	r25, 0x01	; 1
    67cc:	95 87       	std	Z+13, r25	; 0x0d
    67ce:	83 85       	ldd	r24, Z+11	; 0x0b
    67d0:	84 87       	std	Z+12, r24	; 0x0c
    67d2:	27 85       	ldd	r18, Z+15	; 0x0f
    67d4:	21 11       	cpse	r18, r1
    67d6:	96 87       	std	Z+14, r25	; 0x0e
    67d8:	17 86       	std	Z+15, r1	; 0x0f
    67da:	8f 5f       	subi	r24, 0xFF	; 255
    67dc:	83 87       	std	Z+11, r24	; 0x0b
    67de:	12 86       	std	Z+10, r1	; 0x0a
u8log_WriteChar():
    67e0:	85 85       	ldd	r24, Z+13	; 0x0d
    67e2:	81 11       	cpse	r24, r1
    67e4:	03 c0       	rjmp	.+6      	; 0x67ec <u8log_WriteChar+0x96>
    67e6:	86 85       	ldd	r24, Z+14	; 0x0e
    67e8:	88 23       	and	r24, r24
    67ea:	51 f0       	breq	.+20     	; 0x6800 <u8log_WriteChar+0xaa>
    67ec:	ef 01       	movw	r28, r30
    67ee:	04 80       	ldd	r0, Z+4	; 0x04
    67f0:	f5 81       	ldd	r31, Z+5	; 0x05
    67f2:	e0 2d       	mov	r30, r0
    67f4:	30 97       	sbiw	r30, 0x00	; 0
    67f6:	11 f0       	breq	.+4      	; 0x67fc <u8log_WriteChar+0xa6>
    67f8:	ce 01       	movw	r24, r28
    67fa:	09 95       	icall
    67fc:	1d 86       	std	Y+13, r1	; 0x0d
    67fe:	1e 86       	std	Y+14, r1	; 0x0e
    6800:	df 91       	pop	r29
    6802:	cf 91       	pop	r28
    6804:	1f 91       	pop	r17
    6806:	0f 91       	pop	r16
    6808:	08 95       	ret
u8log_write_char():
    680a:	82 85       	ldd	r24, Z+10	; 0x0a
    680c:	88 5f       	subi	r24, 0xF8	; 248
    680e:	88 7f       	andi	r24, 0xF8	; 248
    6810:	82 87       	std	Z+10, r24	; 0x0a
    6812:	e6 cf       	rjmp	.-52     	; 0x67e0 <u8log_WriteChar+0x8a>
    6814:	a6 81       	ldd	r26, Z+6	; 0x06
    6816:	b7 81       	ldd	r27, Z+7	; 0x07
u8log_clear_screen():
    6818:	93 81       	ldd	r25, Z+3	; 0x03
    681a:	82 81       	ldd	r24, Z+2	; 0x02
    681c:	9d 01       	movw	r18, r26
    681e:	98 9f       	mul	r25, r24
    6820:	20 0d       	add	r18, r0
    6822:	31 1d       	adc	r19, r1
    6824:	11 24       	eor	r1, r1
    6826:	c9 01       	movw	r24, r18
    6828:	20 e2       	ldi	r18, 0x20	; 32
    682a:	2d 93       	st	X+, r18
    682c:	8a 17       	cp	r24, r26
    682e:	9b 07       	cpc	r25, r27
    6830:	e1 f7       	brne	.-8      	; 0x682a <u8log_WriteChar+0xd4>
u8log_write_char():
    6832:	81 e0       	ldi	r24, 0x01	; 1
    6834:	86 87       	std	Z+14, r24	; 0x0e
    6836:	12 86       	std	Z+10, r1	; 0x0a
    6838:	13 86       	std	Z+11, r1	; 0x0b
    683a:	d2 cf       	rjmp	.-92     	; 0x67e0 <u8log_WriteChar+0x8a>
u8log_scroll_up():
    683c:	b0 e0       	ldi	r27, 0x00	; 0
    683e:	21 50       	subi	r18, 0x01	; 1
    6840:	33 0b       	sbc	r19, r19
    6842:	a2 9f       	mul	r26, r18
    6844:	a0 01       	movw	r20, r0
    6846:	a3 9f       	mul	r26, r19
    6848:	50 0d       	add	r21, r0
    684a:	b2 9f       	mul	r27, r18
    684c:	50 0d       	add	r21, r0
    684e:	11 24       	eor	r1, r1
    6850:	a8 0f       	add	r26, r24
    6852:	b9 1f       	adc	r27, r25
    6854:	ec 01       	movw	r28, r24
    6856:	9a 01       	movw	r18, r20
    6858:	2a 0f       	add	r18, r26
    685a:	3b 1f       	adc	r19, r27
    685c:	0d 91       	ld	r16, X+
    685e:	09 93       	st	Y+, r16
    6860:	2a 17       	cp	r18, r26
    6862:	3b 07       	cpc	r19, r27
    6864:	d9 f7       	brne	.-10     	; 0x685c <u8log_WriteChar+0x106>
    6866:	22 81       	ldd	r18, Z+2	; 0x02
    6868:	30 e0       	ldi	r19, 0x00	; 0
    686a:	dc 01       	movw	r26, r24
    686c:	a4 0f       	add	r26, r20
    686e:	b5 1f       	adc	r27, r21
    6870:	1d 93       	st	X+, r17
    6872:	21 50       	subi	r18, 0x01	; 1
    6874:	31 09       	sbc	r19, r1
    6876:	e1 f7       	brne	.-8      	; 0x6870 <u8log_WriteChar+0x11a>
    6878:	80 85       	ldd	r24, Z+8	; 0x08
    687a:	88 23       	and	r24, r24
    687c:	29 f0       	breq	.+10     	; 0x6888 <u8log_WriteChar+0x132>
    687e:	76 87       	std	Z+14, r23	; 0x0e
u8log_cursor_on_screen():
    6880:	83 85       	ldd	r24, Z+11	; 0x0b
    6882:	81 50       	subi	r24, 0x01	; 1
    6884:	83 87       	std	Z+11, r24	; 0x0b
    6886:	7c cf       	rjmp	.-264    	; 0x6780 <u8log_WriteChar+0x2a>
u8log_scroll_up():
    6888:	77 87       	std	Z+15, r23	; 0x0f
    688a:	fa cf       	rjmp	.-12     	; 0x6880 <u8log_WriteChar+0x12a>

0000688c <u8log_WriteString.constprop.39>:
u8log_WriteString():
    688c:	cf 93       	push	r28
    688e:	df 93       	push	r29
    6890:	ec 01       	movw	r28, r24
    6892:	69 91       	ld	r22, Y+
    6894:	61 11       	cpse	r22, r1
    6896:	03 c0       	rjmp	.+6      	; 0x689e <u8log_WriteString.constprop.39+0x12>
    6898:	df 91       	pop	r29
    689a:	cf 91       	pop	r28
    689c:	08 95       	ret
    689e:	83 ed       	ldi	r24, 0xD3	; 211
    68a0:	9e e6       	ldi	r25, 0x6E	; 110
    68a2:	59 df       	rcall	.-334    	; 0x6756 <u8log_WriteChar>
    68a4:	f6 cf       	rjmp	.-20     	; 0x6892 <u8log_WriteString.constprop.39+0x6>

000068a6 <u8g2_draw_l90_r0>:
u8g2_draw_l90_r0():
    68a6:	0f 93       	push	r16
u8g2_draw_hv_line_2dir():
    68a8:	fc 01       	movw	r30, r24
    68aa:	e0 5c       	subi	r30, 0xC0	; 192
    68ac:	ff 4f       	sbci	r31, 0xFF	; 255
    68ae:	01 90       	ld	r0, Z+
    68b0:	f0 81       	ld	r31, Z
    68b2:	e0 2d       	mov	r30, r0
    68b4:	4e 1b       	sub	r20, r30
    68b6:	5f 0b       	sbc	r21, r31
    68b8:	dc 01       	movw	r26, r24
    68ba:	d4 96       	adiw	r26, 0x34	; 52
    68bc:	ed 91       	ld	r30, X+
    68be:	fc 91       	ld	r31, X
    68c0:	09 95       	icall
u8g2_draw_l90_r0():
    68c2:	0f 91       	pop	r16
    68c4:	08 95       	ret

000068c6 <u8g2_update_dimension_r0>:
u8g2_update_dimension_r0():
    68c6:	cf 93       	push	r28
    68c8:	df 93       	push	r29
    68ca:	fc 01       	movw	r30, r24
u8g2_update_dimension_common():
    68cc:	a0 81       	ld	r26, Z
    68ce:	b1 81       	ldd	r27, Z+1	; 0x01
    68d0:	82 ad       	ldd	r24, Z+58	; 0x3a
    68d2:	90 e0       	ldi	r25, 0x00	; 0
    68d4:	9c 01       	movw	r18, r24
    68d6:	43 e0       	ldi	r20, 0x03	; 3
    68d8:	22 0f       	add	r18, r18
    68da:	33 1f       	adc	r19, r19
    68dc:	4a 95       	dec	r20
    68de:	e1 f7       	brne	.-8      	; 0x68d8 <u8g2_update_dimension_r0+0x12>
    68e0:	26 af       	std	Z+62, r18	; 0x3e
    68e2:	37 af       	std	Z+63, r19	; 0x3f
    68e4:	50 96       	adiw	r26, 0x10	; 16
    68e6:	2c 91       	ld	r18, X
    68e8:	50 97       	sbiw	r26, 0x10	; 16
    68ea:	48 e0       	ldi	r20, 0x08	; 8
    68ec:	24 9f       	mul	r18, r20
    68ee:	90 01       	movw	r18, r0
    68f0:	11 24       	eor	r1, r1
    68f2:	24 af       	std	Z+60, r18	; 0x3c
    68f4:	35 af       	std	Z+61, r19	; 0x3d
    68f6:	23 ad       	ldd	r18, Z+59	; 0x3b
    68f8:	30 e0       	ldi	r19, 0x00	; 0
    68fa:	b9 01       	movw	r22, r18
    68fc:	53 e0       	ldi	r21, 0x03	; 3
    68fe:	66 0f       	add	r22, r22
    6900:	77 1f       	adc	r23, r23
    6902:	5a 95       	dec	r21
    6904:	e1 f7       	brne	.-8      	; 0x68fe <u8g2_update_dimension_r0+0x38>
    6906:	ef 01       	movw	r28, r30
    6908:	c0 5c       	subi	r28, 0xC0	; 192
    690a:	df 4f       	sbci	r29, 0xFF	; 255
    690c:	68 83       	st	Y, r22
    690e:	79 83       	std	Y+1, r23	; 0x01
    6910:	51 96       	adiw	r26, 0x11	; 17
    6912:	4c 91       	ld	r20, X
    6914:	51 97       	sbiw	r26, 0x11	; 17
    6916:	e9 01       	movw	r28, r18
    6918:	c8 0f       	add	r28, r24
    691a:	d9 1f       	adc	r29, r25
    691c:	50 e0       	ldi	r21, 0x00	; 0
    691e:	4c 17       	cp	r20, r28
    6920:	5d 07       	cpc	r21, r29
    6922:	18 f4       	brcc	.+6      	; 0x692a <u8g2_update_dimension_r0+0x64>
    6924:	ca 01       	movw	r24, r20
    6926:	82 1b       	sub	r24, r18
    6928:	93 0b       	sbc	r25, r19
    692a:	ef 01       	movw	r28, r30
    692c:	ce 5b       	subi	r28, 0xBE	; 190
    692e:	df 4f       	sbci	r29, 0xFF	; 255
    6930:	68 83       	st	Y, r22
    6932:	79 83       	std	Y+1, r23	; 0x01
    6934:	22 96       	adiw	r28, 0x02	; 2
    6936:	23 e0       	ldi	r18, 0x03	; 3
    6938:	88 0f       	add	r24, r24
    693a:	99 1f       	adc	r25, r25
    693c:	2a 95       	dec	r18
    693e:	e1 f7       	brne	.-8      	; 0x6938 <u8g2_update_dimension_r0+0x72>
    6940:	86 0f       	add	r24, r22
    6942:	97 1f       	adc	r25, r23
    6944:	88 83       	st	Y, r24
    6946:	99 83       	std	Y+1, r25	; 0x01
    6948:	22 96       	adiw	r28, 0x02	; 2
    694a:	54 96       	adiw	r26, 0x14	; 20
    694c:	8d 91       	ld	r24, X+
    694e:	9c 91       	ld	r25, X
    6950:	55 97       	sbiw	r26, 0x15	; 21
    6952:	88 83       	st	Y, r24
    6954:	99 83       	std	Y+1, r25	; 0x01
    6956:	e8 5b       	subi	r30, 0xB8	; 184
    6958:	ff 4f       	sbci	r31, 0xFF	; 255
    695a:	56 96       	adiw	r26, 0x16	; 22
    695c:	8d 91       	ld	r24, X+
    695e:	9c 91       	ld	r25, X
    6960:	80 83       	st	Z, r24
    6962:	91 83       	std	Z+1, r25	; 0x01
u8g2_update_dimension_r0():
    6964:	df 91       	pop	r29
    6966:	cf 91       	pop	r28
    6968:	08 95       	ret

0000696a <u8g2_IsIntersection>:
u8g2_IsIntersection():
    696a:	0f 93       	push	r16
    696c:	1f 93       	push	r17
    696e:	fc 01       	movw	r30, r24
    6970:	e2 5b       	subi	r30, 0xB2	; 178
    6972:	ff 4f       	sbci	r31, 0xFF	; 255
    6974:	01 90       	ld	r0, Z+
    6976:	f0 81       	ld	r31, Z
    6978:	e0 2d       	mov	r30, r0
    697a:	dc 01       	movw	r26, r24
    697c:	a0 5b       	subi	r26, 0xB0	; 176
    697e:	bf 4f       	sbci	r27, 0xFF	; 255
u8g2_is_intersection_decision_tree():
    6980:	0d 90       	ld	r0, X+
    6982:	bc 91       	ld	r27, X
    6984:	a0 2d       	mov	r26, r0
    6986:	4a 17       	cp	r20, r26
    6988:	5b 07       	cpc	r21, r27
    698a:	40 f4       	brcc	.+16     	; 0x699c <u8g2_IsIntersection+0x32>
    698c:	e0 17       	cp	r30, r16
    698e:	f1 07       	cpc	r31, r17
    6990:	48 f0       	brcs	.+18     	; 0x69a4 <u8g2_IsIntersection+0x3a>
    6992:	04 17       	cp	r16, r20
    6994:	15 07       	cpc	r17, r21
    6996:	30 f0       	brcs	.+12     	; 0x69a4 <u8g2_IsIntersection+0x3a>
u8g2_IsIntersection():
    6998:	80 e0       	ldi	r24, 0x00	; 0
    699a:	19 c0       	rjmp	.+50     	; 0x69ce <u8g2_IsIntersection+0x64>
u8g2_is_intersection_decision_tree():
    699c:	e0 17       	cp	r30, r16
    699e:	f1 07       	cpc	r31, r17
    69a0:	c0 f3       	brcs	.-16     	; 0x6992 <u8g2_IsIntersection+0x28>
    69a2:	fa cf       	rjmp	.-12     	; 0x6998 <u8g2_IsIntersection+0x2e>
u8g2_IsIntersection():
    69a4:	fc 01       	movw	r30, r24
    69a6:	e6 5b       	subi	r30, 0xB6	; 182
    69a8:	ff 4f       	sbci	r31, 0xFF	; 255
    69aa:	40 81       	ld	r20, Z
    69ac:	51 81       	ldd	r21, Z+1	; 0x01
    69ae:	84 5b       	subi	r24, 0xB4	; 180
    69b0:	9f 4f       	sbci	r25, 0xFF	; 255
u8g2_is_intersection_decision_tree():
    69b2:	fc 01       	movw	r30, r24
    69b4:	80 81       	ld	r24, Z
    69b6:	91 81       	ldd	r25, Z+1	; 0x01
    69b8:	68 17       	cp	r22, r24
    69ba:	79 07       	cpc	r23, r25
    69bc:	58 f4       	brcc	.+22     	; 0x69d4 <u8g2_IsIntersection+0x6a>
u8g2_IsIntersection():
    69be:	81 e0       	ldi	r24, 0x01	; 1
u8g2_is_intersection_decision_tree():
    69c0:	42 17       	cp	r20, r18
    69c2:	53 07       	cpc	r21, r19
    69c4:	20 f0       	brcs	.+8      	; 0x69ce <u8g2_IsIntersection+0x64>
    69c6:	81 e0       	ldi	r24, 0x01	; 1
    69c8:	26 17       	cp	r18, r22
    69ca:	37 07       	cpc	r19, r23
    69cc:	28 f7       	brcc	.-54     	; 0x6998 <u8g2_IsIntersection+0x2e>
u8g2_IsIntersection():
    69ce:	1f 91       	pop	r17
    69d0:	0f 91       	pop	r16
    69d2:	08 95       	ret
u8g2_is_intersection_decision_tree():
    69d4:	42 17       	cp	r20, r18
    69d6:	53 07       	cpc	r21, r19
    69d8:	b0 f3       	brcs	.-20     	; 0x69c6 <u8g2_IsIntersection+0x5c>
    69da:	de cf       	rjmp	.-68     	; 0x6998 <u8g2_IsIntersection+0x2e>

000069dc <u8g2_update_page_win_r0>:
u8g2_update_page_win_r0():
    69dc:	2f 92       	push	r2
    69de:	3f 92       	push	r3
    69e0:	4f 92       	push	r4
    69e2:	5f 92       	push	r5
    69e4:	6f 92       	push	r6
    69e6:	7f 92       	push	r7
    69e8:	8f 92       	push	r8
    69ea:	9f 92       	push	r9
    69ec:	af 92       	push	r10
    69ee:	bf 92       	push	r11
    69f0:	cf 92       	push	r12
    69f2:	df 92       	push	r13
    69f4:	ef 92       	push	r14
    69f6:	ff 92       	push	r15
    69f8:	0f 93       	push	r16
    69fa:	1f 93       	push	r17
    69fc:	cf 93       	push	r28
    69fe:	df 93       	push	r29
    6a00:	cd b7       	in	r28, 0x3d	; 61
    6a02:	de b7       	in	r29, 0x3e	; 62
    6a04:	2a 97       	sbiw	r28, 0x0a	; 10
    6a06:	cd bf       	out	0x3d, r28	; 61
    6a08:	de bf       	out	0x3e, r29	; 62
    6a0a:	89 87       	std	Y+9, r24	; 0x09
    6a0c:	9a 87       	std	Y+10, r25	; 0x0a
    6a0e:	86 5b       	subi	r24, 0xB6	; 182
    6a10:	9f 4f       	sbci	r25, 0xFF	; 255
    6a12:	89 83       	std	Y+1, r24	; 0x01
    6a14:	9a 83       	std	Y+2, r25	; 0x02
    6a16:	fc 01       	movw	r30, r24
    6a18:	10 82       	st	Z, r1
    6a1a:	11 82       	std	Z+1, r1	; 0x01
    6a1c:	e9 85       	ldd	r30, Y+9	; 0x09
    6a1e:	fa 85       	ldd	r31, Y+10	; 0x0a
    6a20:	ea 5b       	subi	r30, 0xBA	; 186
    6a22:	ff 4f       	sbci	r31, 0xFF	; 255
    6a24:	40 80       	ld	r4, Z
    6a26:	51 80       	ldd	r5, Z+1	; 0x01
    6a28:	29 85       	ldd	r18, Y+9	; 0x09
    6a2a:	3a 85       	ldd	r19, Y+10	; 0x0a
    6a2c:	24 5b       	subi	r18, 0xB4	; 180
    6a2e:	3f 4f       	sbci	r19, 0xFF	; 255
    6a30:	2b 83       	std	Y+3, r18	; 0x03
    6a32:	3c 83       	std	Y+4, r19	; 0x04
    6a34:	f9 01       	movw	r30, r18
    6a36:	40 82       	st	Z, r4
    6a38:	51 82       	std	Z+1, r5	; 0x01
    6a3a:	e9 85       	ldd	r30, Y+9	; 0x09
    6a3c:	fa 85       	ldd	r31, Y+10	; 0x0a
    6a3e:	ee 5b       	subi	r30, 0xBE	; 190
    6a40:	ff 4f       	sbci	r31, 0xFF	; 255
    6a42:	20 80       	ld	r2, Z
    6a44:	31 80       	ldd	r3, Z+1	; 0x01
    6a46:	29 85       	ldd	r18, Y+9	; 0x09
    6a48:	3a 85       	ldd	r19, Y+10	; 0x0a
    6a4a:	22 5b       	subi	r18, 0xB2	; 178
    6a4c:	3f 4f       	sbci	r19, 0xFF	; 255
    6a4e:	2d 83       	std	Y+5, r18	; 0x05
    6a50:	3e 83       	std	Y+6, r19	; 0x06
    6a52:	f9 01       	movw	r30, r18
    6a54:	20 82       	st	Z, r2
    6a56:	31 82       	std	Z+1, r3	; 0x01
    6a58:	e9 85       	ldd	r30, Y+9	; 0x09
    6a5a:	fa 85       	ldd	r31, Y+10	; 0x0a
    6a5c:	ec 5b       	subi	r30, 0xBC	; 188
    6a5e:	ff 4f       	sbci	r31, 0xFF	; 255
    6a60:	60 80       	ld	r6, Z
    6a62:	71 80       	ldd	r7, Z+1	; 0x01
    6a64:	29 85       	ldd	r18, Y+9	; 0x09
    6a66:	3a 85       	ldd	r19, Y+10	; 0x0a
    6a68:	20 5b       	subi	r18, 0xB0	; 176
    6a6a:	3f 4f       	sbci	r19, 0xFF	; 255
    6a6c:	2f 83       	std	Y+7, r18	; 0x07
    6a6e:	38 87       	std	Y+8, r19	; 0x08
    6a70:	f9 01       	movw	r30, r18
    6a72:	60 82       	st	Z, r6
    6a74:	71 82       	std	Z+1, r7	; 0x01
u8g2_apply_clip_window():
    6a76:	e9 85       	ldd	r30, Y+9	; 0x09
    6a78:	fa 85       	ldd	r31, Y+10	; 0x0a
    6a7a:	e8 5a       	subi	r30, 0xA8	; 168
    6a7c:	ff 4f       	sbci	r31, 0xFF	; 255
    6a7e:	e0 80       	ld	r14, Z
    6a80:	f1 80       	ldd	r15, Z+1	; 0x01
    6a82:	e9 85       	ldd	r30, Y+9	; 0x09
    6a84:	fa 85       	ldd	r31, Y+10	; 0x0a
    6a86:	ec 5a       	subi	r30, 0xAC	; 172
    6a88:	ff 4f       	sbci	r31, 0xFF	; 255
    6a8a:	a0 80       	ld	r10, Z
    6a8c:	b1 80       	ldd	r11, Z+1	; 0x01
    6a8e:	e9 85       	ldd	r30, Y+9	; 0x09
    6a90:	fa 85       	ldd	r31, Y+10	; 0x0a
    6a92:	ea 5a       	subi	r30, 0xAA	; 170
    6a94:	ff 4f       	sbci	r31, 0xFF	; 255
    6a96:	c0 80       	ld	r12, Z
    6a98:	d1 80       	ldd	r13, Z+1	; 0x01
    6a9a:	e9 85       	ldd	r30, Y+9	; 0x09
    6a9c:	fa 85       	ldd	r31, Y+10	; 0x0a
    6a9e:	ee 5a       	subi	r30, 0xAE	; 174
    6aa0:	ff 4f       	sbci	r31, 0xFF	; 255
    6aa2:	80 80       	ld	r8, Z
    6aa4:	91 80       	ldd	r9, Z+1	; 0x01
    6aa6:	87 01       	movw	r16, r14
    6aa8:	95 01       	movw	r18, r10
    6aaa:	a6 01       	movw	r20, r12
    6aac:	b4 01       	movw	r22, r8
    6aae:	89 85       	ldd	r24, Y+9	; 0x09
    6ab0:	9a 85       	ldd	r25, Y+10	; 0x0a
    6ab2:	5b df       	rcall	.-330    	; 0x696a <u8g2_IsIntersection>
    6ab4:	29 85       	ldd	r18, Y+9	; 0x09
    6ab6:	3a 85       	ldd	r19, Y+10	; 0x0a
    6ab8:	2c 57       	subi	r18, 0x7C	; 124
    6aba:	3f 4f       	sbci	r19, 0xFF	; 255
    6abc:	29 87       	std	Y+9, r18	; 0x09
    6abe:	3a 87       	std	Y+10, r19	; 0x0a
    6ac0:	81 11       	cpse	r24, r1
    6ac2:	18 c0       	rjmp	.+48     	; 0x6af4 <u8g2_update_page_win_r0+0x118>
    6ac4:	f9 01       	movw	r30, r18
    6ac6:	10 82       	st	Z, r1
u8g2_update_page_win_r0():
    6ac8:	2a 96       	adiw	r28, 0x0a	; 10
    6aca:	cd bf       	out	0x3d, r28	; 61
    6acc:	de bf       	out	0x3e, r29	; 62
    6ace:	df 91       	pop	r29
    6ad0:	cf 91       	pop	r28
    6ad2:	1f 91       	pop	r17
    6ad4:	0f 91       	pop	r16
    6ad6:	ff 90       	pop	r15
    6ad8:	ef 90       	pop	r14
    6ada:	df 90       	pop	r13
    6adc:	cf 90       	pop	r12
    6ade:	bf 90       	pop	r11
    6ae0:	af 90       	pop	r10
    6ae2:	9f 90       	pop	r9
    6ae4:	8f 90       	pop	r8
    6ae6:	7f 90       	pop	r7
    6ae8:	6f 90       	pop	r6
    6aea:	5f 90       	pop	r5
    6aec:	4f 90       	pop	r4
    6aee:	3f 90       	pop	r3
    6af0:	2f 90       	pop	r2
    6af2:	08 95       	ret
u8g2_apply_clip_window():
    6af4:	81 e0       	ldi	r24, 0x01	; 1
    6af6:	e9 85       	ldd	r30, Y+9	; 0x09
    6af8:	fa 85       	ldd	r31, Y+10	; 0x0a
    6afa:	80 83       	st	Z, r24
    6afc:	81 14       	cp	r8, r1
    6afe:	91 04       	cpc	r9, r1
    6b00:	21 f0       	breq	.+8      	; 0x6b0a <u8g2_update_page_win_r0+0x12e>
    6b02:	e9 81       	ldd	r30, Y+1	; 0x01
    6b04:	fa 81       	ldd	r31, Y+2	; 0x02
    6b06:	80 82       	st	Z, r8
    6b08:	91 82       	std	Z+1, r9	; 0x01
    6b0a:	a4 14       	cp	r10, r4
    6b0c:	b5 04       	cpc	r11, r5
    6b0e:	20 f4       	brcc	.+8      	; 0x6b18 <u8g2_update_page_win_r0+0x13c>
    6b10:	eb 81       	ldd	r30, Y+3	; 0x03
    6b12:	fc 81       	ldd	r31, Y+4	; 0x04
    6b14:	a0 82       	st	Z, r10
    6b16:	b1 82       	std	Z+1, r11	; 0x01
    6b18:	2c 14       	cp	r2, r12
    6b1a:	3d 04       	cpc	r3, r13
    6b1c:	20 f4       	brcc	.+8      	; 0x6b26 <u8g2_update_page_win_r0+0x14a>
    6b1e:	ed 81       	ldd	r30, Y+5	; 0x05
    6b20:	fe 81       	ldd	r31, Y+6	; 0x06
    6b22:	c0 82       	st	Z, r12
    6b24:	d1 82       	std	Z+1, r13	; 0x01
    6b26:	e6 14       	cp	r14, r6
    6b28:	f7 04       	cpc	r15, r7
    6b2a:	70 f6       	brcc	.-100    	; 0x6ac8 <u8g2_update_page_win_r0+0xec>
    6b2c:	ef 81       	ldd	r30, Y+7	; 0x07
    6b2e:	f8 85       	ldd	r31, Y+8	; 0x08
    6b30:	e0 82       	st	Z, r14
    6b32:	f1 82       	std	Z+1, r15	; 0x01
    6b34:	c9 cf       	rjmp	.-110    	; 0x6ac8 <u8g2_update_page_win_r0+0xec>

00006b36 <u8g2_SetDrawColor>:
u8g2_SetDrawColor():
    6b36:	86 57       	subi	r24, 0x76	; 118
    6b38:	9f 4f       	sbci	r25, 0xFF	; 255
    6b3a:	fc 01       	movw	r30, r24
    6b3c:	60 83       	st	Z, r22
    6b3e:	08 95       	ret

00006b40 <u8g2_DrawHVLine>:
u8g2_DrawHVLine():
    6b40:	0f 93       	push	r16
    6b42:	cf 93       	push	r28
    6b44:	df 93       	push	r29
    6b46:	e0 2f       	mov	r30, r16
    6b48:	dc 01       	movw	r26, r24
    6b4a:	ac 57       	subi	r26, 0x7C	; 124
    6b4c:	bf 4f       	sbci	r27, 0xFF	; 255
    6b4e:	fc 91       	ld	r31, X
    6b50:	ff 23       	and	r31, r31
    6b52:	09 f4       	brne	.+2      	; 0x6b56 <u8g2_DrawHVLine+0x16>
    6b54:	60 c0       	rjmp	.+192    	; 0x6c16 <u8g2_DrawHVLine+0xd6>
    6b56:	21 15       	cp	r18, r1
    6b58:	31 05       	cpc	r19, r1
    6b5a:	09 f4       	brne	.+2      	; 0x6b5e <u8g2_DrawHVLine+0x1e>
    6b5c:	5c c0       	rjmp	.+184    	; 0x6c16 <u8g2_DrawHVLine+0xd6>
    6b5e:	22 30       	cpi	r18, 0x02	; 2
    6b60:	31 05       	cpc	r19, r1
    6b62:	38 f0       	brcs	.+14     	; 0x6b72 <u8g2_DrawHVLine+0x32>
    6b64:	02 30       	cpi	r16, 0x02	; 2
    6b66:	09 f0       	breq	.+2      	; 0x6b6a <u8g2_DrawHVLine+0x2a>
    6b68:	4a c0       	rjmp	.+148    	; 0x6bfe <u8g2_DrawHVLine+0xbe>
    6b6a:	6f 5f       	subi	r22, 0xFF	; 255
    6b6c:	7f 4f       	sbci	r23, 0xFF	; 255
    6b6e:	62 1b       	sub	r22, r18
    6b70:	73 0b       	sbc	r23, r19
    6b72:	0e 2f       	mov	r16, r30
    6b74:	01 70       	andi	r16, 0x01	; 1
    6b76:	e0 fd       	sbrc	r30, 0
    6b78:	52 c0       	rjmp	.+164    	; 0x6c1e <u8g2_DrawHVLine+0xde>
    6b7a:	fc 01       	movw	r30, r24
    6b7c:	e2 5b       	subi	r30, 0xB2	; 178
    6b7e:	ff 4f       	sbci	r31, 0xFF	; 255
    6b80:	01 90       	ld	r0, Z+
    6b82:	f0 81       	ld	r31, Z
    6b84:	e0 2d       	mov	r30, r0
    6b86:	4e 17       	cp	r20, r30
    6b88:	5f 07       	cpc	r21, r31
    6b8a:	08 f4       	brcc	.+2      	; 0x6b8e <u8g2_DrawHVLine+0x4e>
    6b8c:	44 c0       	rjmp	.+136    	; 0x6c16 <u8g2_DrawHVLine+0xd6>
    6b8e:	fc 01       	movw	r30, r24
    6b90:	e0 5b       	subi	r30, 0xB0	; 176
    6b92:	ff 4f       	sbci	r31, 0xFF	; 255
    6b94:	01 90       	ld	r0, Z+
    6b96:	f0 81       	ld	r31, Z
    6b98:	e0 2d       	mov	r30, r0
    6b9a:	4e 17       	cp	r20, r30
    6b9c:	5f 07       	cpc	r21, r31
    6b9e:	d8 f5       	brcc	.+118    	; 0x6c16 <u8g2_DrawHVLine+0xd6>
    6ba0:	fc 01       	movw	r30, r24
    6ba2:	e4 5b       	subi	r30, 0xB4	; 180
    6ba4:	ff 4f       	sbci	r31, 0xFF	; 255
    6ba6:	01 90       	ld	r0, Z+
    6ba8:	f0 81       	ld	r31, Z
    6baa:	e0 2d       	mov	r30, r0
    6bac:	dc 01       	movw	r26, r24
    6bae:	a6 5b       	subi	r26, 0xB6	; 182
    6bb0:	bf 4f       	sbci	r27, 0xFF	; 255
    6bb2:	0d 90       	ld	r0, X+
    6bb4:	bc 91       	ld	r27, X
    6bb6:	a0 2d       	mov	r26, r0
u8g2_clip_intersection2():
    6bb8:	26 0f       	add	r18, r22
    6bba:	37 1f       	adc	r19, r23
    6bbc:	26 17       	cp	r18, r22
    6bbe:	37 07       	cpc	r19, r23
    6bc0:	38 f5       	brcc	.+78     	; 0x6c10 <u8g2_DrawHVLine+0xd0>
    6bc2:	6e 17       	cp	r22, r30
    6bc4:	7f 07       	cpc	r23, r31
    6bc6:	18 f5       	brcc	.+70     	; 0x6c0e <u8g2_DrawHVLine+0xce>
    6bc8:	9f 01       	movw	r18, r30
    6bca:	21 50       	subi	r18, 0x01	; 1
    6bcc:	31 09       	sbc	r19, r1
    6bce:	a2 17       	cp	r26, r18
    6bd0:	b3 07       	cpc	r27, r19
    6bd2:	08 f5       	brcc	.+66     	; 0x6c16 <u8g2_DrawHVLine+0xd6>
    6bd4:	6a 17       	cp	r22, r26
    6bd6:	7b 07       	cpc	r23, r27
    6bd8:	08 f4       	brcc	.+2      	; 0x6bdc <u8g2_DrawHVLine+0x9c>
    6bda:	bd 01       	movw	r22, r26
    6bdc:	2e 17       	cp	r18, r30
    6bde:	3f 07       	cpc	r19, r31
    6be0:	08 f4       	brcc	.+2      	; 0x6be4 <u8g2_DrawHVLine+0xa4>
    6be2:	f9 01       	movw	r30, r18
    6be4:	e6 1b       	sub	r30, r22
    6be6:	f7 0b       	sbc	r31, r23
u8g2_DrawHVLine():
    6be8:	ec 01       	movw	r28, r24
    6bea:	ae a9       	ldd	r26, Y+54	; 0x36
    6bec:	bf a9       	ldd	r27, Y+55	; 0x37
    6bee:	14 96       	adiw	r26, 0x04	; 4
    6bf0:	0d 90       	ld	r0, X+
    6bf2:	bc 91       	ld	r27, X
    6bf4:	a0 2d       	mov	r26, r0
    6bf6:	9f 01       	movw	r18, r30
    6bf8:	fd 01       	movw	r30, r26
    6bfa:	09 95       	icall
    6bfc:	0c c0       	rjmp	.+24     	; 0x6c16 <u8g2_DrawHVLine+0xd6>
    6bfe:	03 30       	cpi	r16, 0x03	; 3
    6c00:	09 f0       	breq	.+2      	; 0x6c04 <u8g2_DrawHVLine+0xc4>
    6c02:	b7 cf       	rjmp	.-146    	; 0x6b72 <u8g2_DrawHVLine+0x32>
    6c04:	4f 5f       	subi	r20, 0xFF	; 255
    6c06:	5f 4f       	sbci	r21, 0xFF	; 255
    6c08:	42 1b       	sub	r20, r18
    6c0a:	53 0b       	sbc	r21, r19
    6c0c:	b2 cf       	rjmp	.-156    	; 0x6b72 <u8g2_DrawHVLine+0x32>
    6c0e:	bd 01       	movw	r22, r26
u8g2_clip_intersection2():
    6c10:	6e 17       	cp	r22, r30
    6c12:	7f 07       	cpc	r23, r31
    6c14:	e0 f2       	brcs	.-72     	; 0x6bce <u8g2_DrawHVLine+0x8e>
u8g2_DrawHVLine():
    6c16:	df 91       	pop	r29
    6c18:	cf 91       	pop	r28
    6c1a:	0f 91       	pop	r16
    6c1c:	08 95       	ret
    6c1e:	fc 01       	movw	r30, r24
    6c20:	e6 5b       	subi	r30, 0xB6	; 182
    6c22:	ff 4f       	sbci	r31, 0xFF	; 255
    6c24:	01 90       	ld	r0, Z+
    6c26:	f0 81       	ld	r31, Z
    6c28:	e0 2d       	mov	r30, r0
    6c2a:	6e 17       	cp	r22, r30
    6c2c:	7f 07       	cpc	r23, r31
    6c2e:	98 f3       	brcs	.-26     	; 0x6c16 <u8g2_DrawHVLine+0xd6>
    6c30:	fc 01       	movw	r30, r24
    6c32:	e4 5b       	subi	r30, 0xB4	; 180
    6c34:	ff 4f       	sbci	r31, 0xFF	; 255
    6c36:	01 90       	ld	r0, Z+
    6c38:	f0 81       	ld	r31, Z
    6c3a:	e0 2d       	mov	r30, r0
    6c3c:	6e 17       	cp	r22, r30
    6c3e:	7f 07       	cpc	r23, r31
    6c40:	50 f7       	brcc	.-44     	; 0x6c16 <u8g2_DrawHVLine+0xd6>
    6c42:	fc 01       	movw	r30, r24
    6c44:	e0 5b       	subi	r30, 0xB0	; 176
    6c46:	ff 4f       	sbci	r31, 0xFF	; 255
    6c48:	01 90       	ld	r0, Z+
    6c4a:	f0 81       	ld	r31, Z
    6c4c:	e0 2d       	mov	r30, r0
    6c4e:	dc 01       	movw	r26, r24
    6c50:	a2 5b       	subi	r26, 0xB2	; 178
    6c52:	bf 4f       	sbci	r27, 0xFF	; 255
    6c54:	0d 90       	ld	r0, X+
    6c56:	bc 91       	ld	r27, X
    6c58:	a0 2d       	mov	r26, r0
u8g2_clip_intersection2():
    6c5a:	24 0f       	add	r18, r20
    6c5c:	35 1f       	adc	r19, r21
    6c5e:	24 17       	cp	r18, r20
    6c60:	35 07       	cpc	r19, r21
    6c62:	a8 f4       	brcc	.+42     	; 0x6c8e <u8g2_DrawHVLine+0x14e>
    6c64:	4e 17       	cp	r20, r30
    6c66:	5f 07       	cpc	r21, r31
    6c68:	88 f4       	brcc	.+34     	; 0x6c8c <u8g2_DrawHVLine+0x14c>
    6c6a:	9f 01       	movw	r18, r30
    6c6c:	21 50       	subi	r18, 0x01	; 1
    6c6e:	31 09       	sbc	r19, r1
    6c70:	a2 17       	cp	r26, r18
    6c72:	b3 07       	cpc	r27, r19
    6c74:	80 f6       	brcc	.-96     	; 0x6c16 <u8g2_DrawHVLine+0xd6>
    6c76:	4a 17       	cp	r20, r26
    6c78:	5b 07       	cpc	r21, r27
    6c7a:	08 f4       	brcc	.+2      	; 0x6c7e <u8g2_DrawHVLine+0x13e>
    6c7c:	ad 01       	movw	r20, r26
    6c7e:	2e 17       	cp	r18, r30
    6c80:	3f 07       	cpc	r19, r31
    6c82:	08 f4       	brcc	.+2      	; 0x6c86 <u8g2_DrawHVLine+0x146>
    6c84:	f9 01       	movw	r30, r18
    6c86:	e4 1b       	sub	r30, r20
    6c88:	f5 0b       	sbc	r31, r21
    6c8a:	ae cf       	rjmp	.-164    	; 0x6be8 <u8g2_DrawHVLine+0xa8>
u8g2_DrawHVLine():
    6c8c:	ad 01       	movw	r20, r26
u8g2_clip_intersection2():
    6c8e:	4e 17       	cp	r20, r30
    6c90:	5f 07       	cpc	r21, r31
    6c92:	08 f6       	brcc	.-126    	; 0x6c16 <u8g2_DrawHVLine+0xd6>
    6c94:	ed cf       	rjmp	.-38     	; 0x6c70 <u8g2_DrawHVLine+0x130>

00006c96 <u8g2_DrawPixel>:
u8g2_DrawPixel():
    6c96:	0f 93       	push	r16
    6c98:	fc 01       	movw	r30, r24
    6c9a:	e2 5b       	subi	r30, 0xB2	; 178
    6c9c:	ff 4f       	sbci	r31, 0xFF	; 255
    6c9e:	20 81       	ld	r18, Z
    6ca0:	31 81       	ldd	r19, Z+1	; 0x01
    6ca2:	42 17       	cp	r20, r18
    6ca4:	53 07       	cpc	r21, r19
    6ca6:	b0 f0       	brcs	.+44     	; 0x6cd4 <u8g2_DrawPixel+0x3e>
    6ca8:	32 96       	adiw	r30, 0x02	; 2
    6caa:	20 81       	ld	r18, Z
    6cac:	31 81       	ldd	r19, Z+1	; 0x01
    6cae:	42 17       	cp	r20, r18
    6cb0:	53 07       	cpc	r21, r19
    6cb2:	80 f4       	brcc	.+32     	; 0x6cd4 <u8g2_DrawPixel+0x3e>
    6cb4:	36 97       	sbiw	r30, 0x06	; 6
    6cb6:	20 81       	ld	r18, Z
    6cb8:	31 81       	ldd	r19, Z+1	; 0x01
    6cba:	62 17       	cp	r22, r18
    6cbc:	73 07       	cpc	r23, r19
    6cbe:	50 f0       	brcs	.+20     	; 0x6cd4 <u8g2_DrawPixel+0x3e>
    6cc0:	32 96       	adiw	r30, 0x02	; 2
    6cc2:	20 81       	ld	r18, Z
    6cc4:	31 81       	ldd	r19, Z+1	; 0x01
    6cc6:	62 17       	cp	r22, r18
    6cc8:	73 07       	cpc	r23, r19
    6cca:	20 f4       	brcc	.+8      	; 0x6cd4 <u8g2_DrawPixel+0x3e>
    6ccc:	00 e0       	ldi	r16, 0x00	; 0
    6cce:	21 e0       	ldi	r18, 0x01	; 1
    6cd0:	30 e0       	ldi	r19, 0x00	; 0
    6cd2:	36 df       	rcall	.-404    	; 0x6b40 <u8g2_DrawHVLine>
    6cd4:	0f 91       	pop	r16
    6cd6:	08 95       	ret

00006cd8 <u8g2_DrawLine>:
u8g2_DrawLine():
    6cd8:	3f 92       	push	r3
    6cda:	4f 92       	push	r4
    6cdc:	5f 92       	push	r5
    6cde:	6f 92       	push	r6
    6ce0:	7f 92       	push	r7
    6ce2:	8f 92       	push	r8
    6ce4:	9f 92       	push	r9
    6ce6:	af 92       	push	r10
    6ce8:	bf 92       	push	r11
    6cea:	cf 92       	push	r12
    6cec:	df 92       	push	r13
    6cee:	ef 92       	push	r14
    6cf0:	ff 92       	push	r15
    6cf2:	0f 93       	push	r16
    6cf4:	1f 93       	push	r17
    6cf6:	cf 93       	push	r28
    6cf8:	df 93       	push	r29
    6cfa:	2c 01       	movw	r4, r24
    6cfc:	7b 01       	movw	r14, r22
    6cfe:	6a 01       	movw	r12, r20
    6d00:	e9 01       	movw	r28, r18
    6d02:	5b 01       	movw	r10, r22
    6d04:	a2 1a       	sub	r10, r18
    6d06:	b3 0a       	sbc	r11, r19
    6d08:	26 17       	cp	r18, r22
    6d0a:	37 07       	cpc	r19, r23
    6d0c:	18 f0       	brcs	.+6      	; 0x6d14 <u8g2_DrawLine+0x3c>
    6d0e:	59 01       	movw	r10, r18
    6d10:	a6 1a       	sub	r10, r22
    6d12:	b7 0a       	sbc	r11, r23
    6d14:	0c 15       	cp	r16, r12
    6d16:	1d 05       	cpc	r17, r13
    6d18:	60 f4       	brcc	.+24     	; 0x6d32 <u8g2_DrawLine+0x5a>
    6d1a:	c6 01       	movw	r24, r12
    6d1c:	80 1b       	sub	r24, r16
    6d1e:	91 0b       	sbc	r25, r17
    6d20:	a8 16       	cp	r10, r24
    6d22:	b9 06       	cpc	r11, r25
    6d24:	40 f1       	brcs	.+80     	; 0x6d76 <u8g2_DrawLine+0x9e>
    6d26:	ce 15       	cp	r28, r14
    6d28:	df 05       	cpc	r29, r15
    6d2a:	08 f4       	brcc	.+2      	; 0x6d2e <u8g2_DrawLine+0x56>
    6d2c:	48 c0       	rjmp	.+144    	; 0x6dbe <u8g2_DrawLine+0xe6>
    6d2e:	31 2c       	mov	r3, r1
    6d30:	18 c0       	rjmp	.+48     	; 0x6d62 <u8g2_DrawLine+0x8a>
    6d32:	c8 01       	movw	r24, r16
    6d34:	8c 19       	sub	r24, r12
    6d36:	9d 09       	sbc	r25, r13
    6d38:	a8 16       	cp	r10, r24
    6d3a:	b9 06       	cpc	r11, r25
    6d3c:	08 f0       	brcs	.+2      	; 0x6d40 <u8g2_DrawLine+0x68>
    6d3e:	68 c0       	rjmp	.+208    	; 0x6e10 <u8g2_DrawLine+0x138>
    6d40:	3a 2d       	mov	r19, r10
    6d42:	2b 2d       	mov	r18, r11
    6d44:	5c 01       	movw	r10, r24
    6d46:	83 2f       	mov	r24, r19
    6d48:	92 2f       	mov	r25, r18
    6d4a:	3c 2f       	mov	r19, r28
    6d4c:	2d 2f       	mov	r18, r29
    6d4e:	e8 01       	movw	r28, r16
    6d50:	03 2f       	mov	r16, r19
    6d52:	12 2f       	mov	r17, r18
    6d54:	3e 2d       	mov	r19, r14
    6d56:	2f 2d       	mov	r18, r15
    6d58:	76 01       	movw	r14, r12
    6d5a:	c3 2e       	mov	r12, r19
    6d5c:	d2 2e       	mov	r13, r18
    6d5e:	33 24       	eor	r3, r3
    6d60:	33 94       	inc	r3
    6d62:	45 01       	movw	r8, r10
    6d64:	96 94       	lsr	r9
    6d66:	87 94       	ror	r8
    6d68:	c0 16       	cp	r12, r16
    6d6a:	d1 06       	cpc	r13, r17
    6d6c:	90 f1       	brcs	.+100    	; 0x6dd2 <u8g2_DrawLine+0xfa>
    6d6e:	66 24       	eor	r6, r6
    6d70:	6a 94       	dec	r6
    6d72:	76 2c       	mov	r7, r6
    6d74:	31 c0       	rjmp	.+98     	; 0x6dd8 <u8g2_DrawLine+0x100>
    6d76:	3a 2d       	mov	r19, r10
    6d78:	2b 2d       	mov	r18, r11
    6d7a:	5c 01       	movw	r10, r24
    6d7c:	83 2f       	mov	r24, r19
    6d7e:	92 2f       	mov	r25, r18
    6d80:	3c 2d       	mov	r19, r12
    6d82:	2d 2d       	mov	r18, r13
    6d84:	6e 01       	movw	r12, r28
    6d86:	c3 2f       	mov	r28, r19
    6d88:	d2 2f       	mov	r29, r18
    6d8a:	3e 2d       	mov	r19, r14
    6d8c:	2f 2d       	mov	r18, r15
    6d8e:	78 01       	movw	r14, r16
    6d90:	03 2f       	mov	r16, r19
    6d92:	12 2f       	mov	r17, r18
    6d94:	e4 cf       	rjmp	.-56     	; 0x6d5e <u8g2_DrawLine+0x86>
    6d96:	a6 01       	movw	r20, r12
    6d98:	b7 01       	movw	r22, r14
    6d9a:	33 20       	and	r3, r3
    6d9c:	11 f0       	breq	.+4      	; 0x6da2 <u8g2_DrawLine+0xca>
    6d9e:	a7 01       	movw	r20, r14
    6da0:	b6 01       	movw	r22, r12
    6da2:	c2 01       	movw	r24, r4
    6da4:	78 df       	rcall	.-272    	; 0x6c96 <u8g2_DrawPixel>
    6da6:	80 1a       	sub	r8, r16
    6da8:	91 0a       	sbc	r9, r17
    6daa:	97 fe       	sbrs	r9, 7
    6dac:	04 c0       	rjmp	.+8      	; 0x6db6 <u8g2_DrawLine+0xde>
    6dae:	c6 0c       	add	r12, r6
    6db0:	d7 1c       	adc	r13, r7
    6db2:	8a 0c       	add	r8, r10
    6db4:	9b 1c       	adc	r9, r11
    6db6:	8f ef       	ldi	r24, 0xFF	; 255
    6db8:	e8 1a       	sub	r14, r24
    6dba:	f8 0a       	sbc	r15, r24
    6dbc:	14 c0       	rjmp	.+40     	; 0x6de6 <u8g2_DrawLine+0x10e>
    6dbe:	45 01       	movw	r8, r10
    6dc0:	96 94       	lsr	r9
    6dc2:	87 94       	ror	r8
    6dc4:	68 01       	movw	r12, r16
    6dc6:	3e 2d       	mov	r19, r14
    6dc8:	2f 2d       	mov	r18, r15
    6dca:	7e 01       	movw	r14, r28
    6dcc:	c3 2f       	mov	r28, r19
    6dce:	d2 2f       	mov	r29, r18
    6dd0:	31 2c       	mov	r3, r1
    6dd2:	66 24       	eor	r6, r6
    6dd4:	63 94       	inc	r6
    6dd6:	71 2c       	mov	r7, r1
    6dd8:	cf 3f       	cpi	r28, 0xFF	; 255
    6dda:	dc 07       	cpc	r29, r28
    6ddc:	11 f4       	brne	.+4      	; 0x6de2 <u8g2_DrawLine+0x10a>
    6dde:	ce ef       	ldi	r28, 0xFE	; 254
    6de0:	df ef       	ldi	r29, 0xFF	; 255
    6de2:	8c 01       	movw	r16, r24
    6de4:	11 27       	eor	r17, r17
    6de6:	ce 15       	cp	r28, r14
    6de8:	df 05       	cpc	r29, r15
    6dea:	a8 f6       	brcc	.-86     	; 0x6d96 <u8g2_DrawLine+0xbe>
    6dec:	df 91       	pop	r29
    6dee:	cf 91       	pop	r28
    6df0:	1f 91       	pop	r17
    6df2:	0f 91       	pop	r16
    6df4:	ff 90       	pop	r15
    6df6:	ef 90       	pop	r14
    6df8:	df 90       	pop	r13
    6dfa:	cf 90       	pop	r12
    6dfc:	bf 90       	pop	r11
    6dfe:	af 90       	pop	r10
    6e00:	9f 90       	pop	r9
    6e02:	8f 90       	pop	r8
    6e04:	7f 90       	pop	r7
    6e06:	6f 90       	pop	r6
    6e08:	5f 90       	pop	r5
    6e0a:	4f 90       	pop	r4
    6e0c:	3f 90       	pop	r3
    6e0e:	08 95       	ret
    6e10:	ce 15       	cp	r28, r14
    6e12:	df 05       	cpc	r29, r15
    6e14:	08 f0       	brcs	.+2      	; 0x6e18 <u8g2_DrawLine+0x140>
    6e16:	8b cf       	rjmp	.-234    	; 0x6d2e <u8g2_DrawLine+0x56>
    6e18:	45 01       	movw	r8, r10
    6e1a:	96 94       	lsr	r9
    6e1c:	87 94       	ror	r8
    6e1e:	68 01       	movw	r12, r16
    6e20:	3e 2d       	mov	r19, r14
    6e22:	2f 2d       	mov	r18, r15
    6e24:	7e 01       	movw	r14, r28
    6e26:	c3 2f       	mov	r28, r19
    6e28:	d2 2f       	mov	r29, r18
    6e2a:	31 2c       	mov	r3, r1
    6e2c:	a0 cf       	rjmp	.-192    	; 0x6d6e <u8g2_DrawLine+0x96>

00006e2e <u8g2_UpdateRefHeight>:
u8g2_UpdateRefHeight():
    6e2e:	cf 93       	push	r28
    6e30:	df 93       	push	r29
    6e32:	fc 01       	movw	r30, r24
    6e34:	e6 5a       	subi	r30, 0xA6	; 166
    6e36:	ff 4f       	sbci	r31, 0xFF	; 255
    6e38:	20 81       	ld	r18, Z
    6e3a:	31 81       	ldd	r19, Z+1	; 0x01
    6e3c:	23 2b       	or	r18, r19
    6e3e:	f1 f0       	breq	.+60     	; 0x6e7c <u8g2_UpdateRefHeight+0x4e>
    6e40:	b0 96       	adiw	r30, 0x20	; 32
    6e42:	20 81       	ld	r18, Z
    6e44:	dc 01       	movw	r26, r24
    6e46:	aa 57       	subi	r26, 0x7A	; 122
    6e48:	bf 4f       	sbci	r27, 0xFF	; 255
    6e4a:	2c 93       	st	X, r18
    6e4c:	31 96       	adiw	r30, 0x01	; 1
    6e4e:	50 81       	ld	r21, Z
    6e50:	3c 96       	adiw	r30, 0x0c	; 12
    6e52:	50 83       	st	Z, r21
    6e54:	ec 01       	movw	r28, r24
    6e56:	cb 57       	subi	r28, 0x7B	; 123
    6e58:	df 4f       	sbci	r29, 0xFF	; 255
    6e5a:	38 81       	ld	r19, Y
    6e5c:	33 23       	and	r19, r19
    6e5e:	71 f0       	breq	.+28     	; 0x6e7c <u8g2_UpdateRefHeight+0x4e>
    6e60:	31 30       	cpi	r19, 0x01	; 1
    6e62:	79 f4       	brne	.+30     	; 0x6e82 <u8g2_UpdateRefHeight+0x54>
    6e64:	29 97       	sbiw	r28, 0x09	; 9
    6e66:	38 81       	ld	r19, Y
    6e68:	23 17       	cp	r18, r19
    6e6a:	0c f4       	brge	.+2      	; 0x6e6e <u8g2_UpdateRefHeight+0x40>
    6e6c:	3c 93       	st	X, r19
    6e6e:	83 58       	subi	r24, 0x83	; 131
    6e70:	9f 4f       	sbci	r25, 0xFF	; 255
    6e72:	dc 01       	movw	r26, r24
    6e74:	8c 91       	ld	r24, X
    6e76:	85 17       	cp	r24, r21
    6e78:	0c f4       	brge	.+2      	; 0x6e7c <u8g2_UpdateRefHeight+0x4e>
    6e7a:	80 83       	st	Z, r24
    6e7c:	df 91       	pop	r29
    6e7e:	cf 91       	pop	r28
    6e80:	08 95       	ret
    6e82:	ec 01       	movw	r28, r24
    6e84:	c9 58       	subi	r28, 0x89	; 137
    6e86:	df 4f       	sbci	r29, 0xFF	; 255
    6e88:	48 81       	ld	r20, Y
    6e8a:	87 58       	subi	r24, 0x87	; 135
    6e8c:	9f 4f       	sbci	r25, 0xFF	; 255
    6e8e:	ec 01       	movw	r28, r24
    6e90:	38 81       	ld	r19, Y
    6e92:	82 2f       	mov	r24, r18
    6e94:	22 0f       	add	r18, r18
    6e96:	99 0b       	sbc	r25, r25
    6e98:	63 2f       	mov	r22, r19
    6e9a:	03 2e       	mov	r0, r19
    6e9c:	00 0c       	add	r0, r0
    6e9e:	77 0b       	sbc	r23, r23
    6ea0:	64 0f       	add	r22, r20
    6ea2:	71 1d       	adc	r23, r1
    6ea4:	47 fd       	sbrc	r20, 7
    6ea6:	7a 95       	dec	r23
    6ea8:	86 17       	cp	r24, r22
    6eaa:	97 07       	cpc	r25, r23
    6eac:	14 f4       	brge	.+4      	; 0x6eb2 <u8g2_UpdateRefHeight+0x84>
    6eae:	43 0f       	add	r20, r19
    6eb0:	4c 93       	st	X, r20
    6eb2:	35 17       	cp	r19, r21
    6eb4:	1c f7       	brge	.-58     	; 0x6e7c <u8g2_UpdateRefHeight+0x4e>
    6eb6:	30 83       	st	Z, r19
    6eb8:	e1 cf       	rjmp	.-62     	; 0x6e7c <u8g2_UpdateRefHeight+0x4e>

00006eba <u8g2_add_vector_x>:
u8g2_add_vector_x():
    6eba:	21 30       	cpi	r18, 0x01	; 1
    6ebc:	69 f0       	breq	.+26     	; 0x6ed8 <u8g2_add_vector_x+0x1e>
    6ebe:	38 f0       	brcs	.+14     	; 0x6ece <u8g2_add_vector_x+0x14>
    6ec0:	22 30       	cpi	r18, 0x02	; 2
    6ec2:	79 f0       	breq	.+30     	; 0x6ee2 <u8g2_add_vector_x+0x28>
    6ec4:	84 0f       	add	r24, r20
    6ec6:	91 1d       	adc	r25, r1
    6ec8:	47 fd       	sbrc	r20, 7
    6eca:	9a 95       	dec	r25
    6ecc:	08 95       	ret
    6ece:	86 0f       	add	r24, r22
    6ed0:	91 1d       	adc	r25, r1
    6ed2:	67 fd       	sbrc	r22, 7
    6ed4:	9a 95       	dec	r25
    6ed6:	08 95       	ret
    6ed8:	84 1b       	sub	r24, r20
    6eda:	91 09       	sbc	r25, r1
    6edc:	47 fd       	sbrc	r20, 7
    6ede:	93 95       	inc	r25
    6ee0:	08 95       	ret
    6ee2:	86 1b       	sub	r24, r22
    6ee4:	91 09       	sbc	r25, r1
    6ee6:	67 fd       	sbrc	r22, 7
    6ee8:	93 95       	inc	r25
    6eea:	08 95       	ret

00006eec <u8g2_add_vector_y>:
u8g2_add_vector_y():
    6eec:	21 30       	cpi	r18, 0x01	; 1
    6eee:	69 f0       	breq	.+26     	; 0x6f0a <u8g2_add_vector_y+0x1e>
    6ef0:	38 f0       	brcs	.+14     	; 0x6f00 <u8g2_add_vector_y+0x14>
    6ef2:	22 30       	cpi	r18, 0x02	; 2
    6ef4:	79 f0       	breq	.+30     	; 0x6f14 <u8g2_add_vector_y+0x28>
    6ef6:	86 1b       	sub	r24, r22
    6ef8:	91 09       	sbc	r25, r1
    6efa:	67 fd       	sbrc	r22, 7
    6efc:	93 95       	inc	r25
    6efe:	08 95       	ret
    6f00:	84 0f       	add	r24, r20
    6f02:	91 1d       	adc	r25, r1
    6f04:	47 fd       	sbrc	r20, 7
    6f06:	9a 95       	dec	r25
    6f08:	08 95       	ret
    6f0a:	86 0f       	add	r24, r22
    6f0c:	91 1d       	adc	r25, r1
    6f0e:	67 fd       	sbrc	r22, 7
    6f10:	9a 95       	dec	r25
    6f12:	08 95       	ret
    6f14:	84 1b       	sub	r24, r20
    6f16:	91 09       	sbc	r25, r1
    6f18:	47 fd       	sbrc	r20, 7
    6f1a:	93 95       	inc	r25
    6f1c:	08 95       	ret

00006f1e <u8g2_font_decode_len>:
u8g2_font_decode_len():
    6f1e:	3f 92       	push	r3
    6f20:	4f 92       	push	r4
    6f22:	5f 92       	push	r5
    6f24:	6f 92       	push	r6
    6f26:	7f 92       	push	r7
    6f28:	8f 92       	push	r8
    6f2a:	9f 92       	push	r9
    6f2c:	af 92       	push	r10
    6f2e:	bf 92       	push	r11
    6f30:	cf 92       	push	r12
    6f32:	df 92       	push	r13
    6f34:	ef 92       	push	r14
    6f36:	ff 92       	push	r15
    6f38:	0f 93       	push	r16
    6f3a:	1f 93       	push	r17
    6f3c:	cf 93       	push	r28
    6f3e:	df 93       	push	r29
    6f40:	7c 01       	movw	r14, r24
    6f42:	16 2f       	mov	r17, r22
    6f44:	44 2e       	mov	r4, r20
    6f46:	ec 01       	movw	r28, r24
    6f48:	c2 5a       	subi	r28, 0xA2	; 162
    6f4a:	df 4f       	sbci	r29, 0xFF	; 255
    6f4c:	5e 80       	ldd	r5, Y+6	; 0x06
    6f4e:	6f 80       	ldd	r6, Y+7	; 0x07
    6f50:	6c 01       	movw	r12, r24
    6f52:	8a e8       	ldi	r24, 0x8A	; 138
    6f54:	c8 0e       	add	r12, r24
    6f56:	d1 1c       	adc	r13, r1
    6f58:	78 84       	ldd	r7, Y+8	; 0x08
    6f5a:	75 18       	sub	r7, r5
    6f5c:	31 2e       	mov	r3, r17
    6f5e:	71 16       	cp	r7, r17
    6f60:	08 f4       	brcc	.+2      	; 0x6f64 <u8g2_font_decode_len+0x46>
    6f62:	37 2c       	mov	r3, r7
    6f64:	8c 80       	ldd	r8, Y+4	; 0x04
    6f66:	9d 80       	ldd	r9, Y+5	; 0x05
    6f68:	0e 85       	ldd	r16, Y+14	; 0x0e
    6f6a:	20 2f       	mov	r18, r16
    6f6c:	46 2d       	mov	r20, r6
    6f6e:	65 2d       	mov	r22, r5
    6f70:	8a 81       	ldd	r24, Y+2	; 0x02
    6f72:	9b 81       	ldd	r25, Y+3	; 0x03
    6f74:	a2 df       	rcall	.-188    	; 0x6eba <u8g2_add_vector_x>
    6f76:	5c 01       	movw	r10, r24
    6f78:	20 2f       	mov	r18, r16
    6f7a:	46 2d       	mov	r20, r6
    6f7c:	65 2d       	mov	r22, r5
    6f7e:	c4 01       	movw	r24, r8
    6f80:	b5 df       	rcall	.-150    	; 0x6eec <u8g2_add_vector_y>
    6f82:	ac 01       	movw	r20, r24
    6f84:	44 20       	and	r4, r4
    6f86:	71 f0       	breq	.+28     	; 0x6fa4 <u8g2_font_decode_len+0x86>
    6f88:	8c 85       	ldd	r24, Y+12	; 0x0c
    6f8a:	f6 01       	movw	r30, r12
    6f8c:	80 83       	st	Z, r24
    6f8e:	23 2d       	mov	r18, r3
    6f90:	30 e0       	ldi	r19, 0x00	; 0
    6f92:	b5 01       	movw	r22, r10
    6f94:	c7 01       	movw	r24, r14
    6f96:	d4 dd       	rcall	.-1112   	; 0x6b40 <u8g2_DrawHVLine>
    6f98:	17 15       	cp	r17, r7
    6f9a:	48 f0       	brcs	.+18     	; 0x6fae <u8g2_font_decode_len+0x90>
    6f9c:	17 19       	sub	r17, r7
    6f9e:	63 94       	inc	r6
    6fa0:	51 2c       	mov	r5, r1
    6fa2:	da cf       	rjmp	.-76     	; 0x6f58 <u8g2_font_decode_len+0x3a>
    6fa4:	8b 85       	ldd	r24, Y+11	; 0x0b
    6fa6:	81 11       	cpse	r24, r1
    6fa8:	f7 cf       	rjmp	.-18     	; 0x6f98 <u8g2_font_decode_len+0x7a>
    6faa:	8d 85       	ldd	r24, Y+13	; 0x0d
    6fac:	ee cf       	rjmp	.-36     	; 0x6f8a <u8g2_font_decode_len+0x6c>
    6fae:	15 0d       	add	r17, r5
    6fb0:	1e 83       	std	Y+6, r17	; 0x06
    6fb2:	6f 82       	std	Y+7, r6	; 0x07
    6fb4:	df 91       	pop	r29
    6fb6:	cf 91       	pop	r28
    6fb8:	1f 91       	pop	r17
    6fba:	0f 91       	pop	r16
    6fbc:	ff 90       	pop	r15
    6fbe:	ef 90       	pop	r14
    6fc0:	df 90       	pop	r13
    6fc2:	cf 90       	pop	r12
    6fc4:	bf 90       	pop	r11
    6fc6:	af 90       	pop	r10
    6fc8:	9f 90       	pop	r9
    6fca:	8f 90       	pop	r8
    6fcc:	7f 90       	pop	r7
    6fce:	6f 90       	pop	r6
    6fd0:	5f 90       	pop	r5
    6fd2:	4f 90       	pop	r4
    6fd4:	3f 90       	pop	r3
    6fd6:	08 95       	ret

00006fd8 <u8g2_font_decode_get_unsigned_bits>:
u8g2_font_decode_get_unsigned_bits():
    6fd8:	dc 01       	movw	r26, r24
    6fda:	1a 96       	adiw	r26, 0x0a	; 10
    6fdc:	4c 91       	ld	r20, X
    6fde:	1a 97       	sbiw	r26, 0x0a	; 10
    6fe0:	ed 91       	ld	r30, X+
    6fe2:	fc 91       	ld	r31, X
    6fe4:	11 97       	sbiw	r26, 0x01	; 1
    6fe6:	24 91       	lpm	r18, Z
    6fe8:	30 e0       	ldi	r19, 0x00	; 0
    6fea:	04 2e       	mov	r0, r20
    6fec:	02 c0       	rjmp	.+4      	; 0x6ff2 <u8g2_font_decode_get_unsigned_bits+0x1a>
    6fee:	35 95       	asr	r19
    6ff0:	27 95       	ror	r18
    6ff2:	0a 94       	dec	r0
    6ff4:	e2 f7       	brpl	.-8      	; 0x6fee <u8g2_font_decode_get_unsigned_bits+0x16>
    6ff6:	84 2f       	mov	r24, r20
    6ff8:	86 0f       	add	r24, r22
    6ffa:	88 30       	cpi	r24, 0x08	; 8
    6ffc:	68 f0       	brcs	.+26     	; 0x7018 <u8g2_font_decode_get_unsigned_bits+0x40>
    6ffe:	31 96       	adiw	r30, 0x01	; 1
    7000:	ed 93       	st	X+, r30
    7002:	fc 93       	st	X, r31
    7004:	11 97       	sbiw	r26, 0x01	; 1
    7006:	e4 91       	lpm	r30, Z
    7008:	98 e0       	ldi	r25, 0x08	; 8
    700a:	94 1b       	sub	r25, r20
    700c:	01 c0       	rjmp	.+2      	; 0x7010 <u8g2_font_decode_get_unsigned_bits+0x38>
    700e:	ee 0f       	add	r30, r30
    7010:	9a 95       	dec	r25
    7012:	ea f7       	brpl	.-6      	; 0x700e <u8g2_font_decode_get_unsigned_bits+0x36>
    7014:	2e 2b       	or	r18, r30
    7016:	88 50       	subi	r24, 0x08	; 8
    7018:	1a 96       	adiw	r26, 0x0a	; 10
    701a:	8c 93       	st	X, r24
    701c:	8f ef       	ldi	r24, 0xFF	; 255
    701e:	9f ef       	ldi	r25, 0xFF	; 255
    7020:	01 c0       	rjmp	.+2      	; 0x7024 <u8g2_font_decode_get_unsigned_bits+0x4c>
    7022:	88 0f       	add	r24, r24
    7024:	6a 95       	dec	r22
    7026:	ea f7       	brpl	.-6      	; 0x7022 <u8g2_font_decode_get_unsigned_bits+0x4a>
    7028:	80 95       	com	r24
    702a:	82 23       	and	r24, r18
    702c:	08 95       	ret

0000702e <u8g2_font_setup_decode>:
u8g2_font_setup_decode():
    702e:	0f 93       	push	r16
    7030:	1f 93       	push	r17
    7032:	cf 93       	push	r28
    7034:	df 93       	push	r29
    7036:	8c 01       	movw	r16, r24
    7038:	ec 01       	movw	r28, r24
    703a:	c2 5a       	subi	r28, 0xA2	; 162
    703c:	df 4f       	sbci	r29, 0xFF	; 255
    703e:	68 83       	st	Y, r22
    7040:	79 83       	std	Y+1, r23	; 0x01
    7042:	1a 86       	std	Y+10, r1	; 0x0a
    7044:	fc 01       	movw	r30, r24
    7046:	ef 58       	subi	r30, 0x8F	; 143
    7048:	ff 4f       	sbci	r31, 0xFF	; 255
    704a:	60 81       	ld	r22, Z
    704c:	ce 01       	movw	r24, r28
    704e:	c4 df       	rcall	.-120    	; 0x6fd8 <u8g2_font_decode_get_unsigned_bits>
    7050:	88 87       	std	Y+8, r24	; 0x08
    7052:	f8 01       	movw	r30, r16
    7054:	ee 58       	subi	r30, 0x8E	; 142
    7056:	ff 4f       	sbci	r31, 0xFF	; 255
    7058:	60 81       	ld	r22, Z
    705a:	ce 01       	movw	r24, r28
    705c:	bd df       	rcall	.-134    	; 0x6fd8 <u8g2_font_decode_get_unsigned_bits>
    705e:	89 87       	std	Y+9, r24	; 0x09
    7060:	f8 01       	movw	r30, r16
    7062:	e6 57       	subi	r30, 0x76	; 118
    7064:	ff 4f       	sbci	r31, 0xFF	; 255
    7066:	90 81       	ld	r25, Z
    7068:	9c 87       	std	Y+12, r25	; 0x0c
    706a:	81 e0       	ldi	r24, 0x01	; 1
    706c:	91 11       	cpse	r25, r1
    706e:	80 e0       	ldi	r24, 0x00	; 0
    7070:	8d 87       	std	Y+13, r24	; 0x0d
    7072:	df 91       	pop	r29
    7074:	cf 91       	pop	r28
    7076:	1f 91       	pop	r17
    7078:	0f 91       	pop	r16
    707a:	08 95       	ret

0000707c <u8g2_font_decode_get_signed_bits>:
u8g2_font_decode_get_signed_bits():
    707c:	cf 93       	push	r28
    707e:	c6 2f       	mov	r28, r22
    7080:	ab df       	rcall	.-170    	; 0x6fd8 <u8g2_font_decode_get_unsigned_bits>
    7082:	c1 50       	subi	r28, 0x01	; 1
    7084:	21 e0       	ldi	r18, 0x01	; 1
    7086:	30 e0       	ldi	r19, 0x00	; 0
    7088:	01 c0       	rjmp	.+2      	; 0x708c <u8g2_font_decode_get_signed_bits+0x10>
    708a:	22 0f       	add	r18, r18
    708c:	ca 95       	dec	r28
    708e:	ea f7       	brpl	.-6      	; 0x708a <u8g2_font_decode_get_signed_bits+0xe>
    7090:	82 1b       	sub	r24, r18
    7092:	cf 91       	pop	r28
    7094:	08 95       	ret

00007096 <u8g2_font_get_word>:
u8g2_font_get_word():
    7096:	fc 01       	movw	r30, r24
    7098:	e6 0f       	add	r30, r22
    709a:	f1 1d       	adc	r31, r1
    709c:	84 91       	lpm	r24, Z
    709e:	90 e0       	ldi	r25, 0x00	; 0
    70a0:	98 2f       	mov	r25, r24
    70a2:	88 27       	eor	r24, r24
    70a4:	31 96       	adiw	r30, 0x01	; 1
    70a6:	e4 91       	lpm	r30, Z
    70a8:	8e 0f       	add	r24, r30
    70aa:	91 1d       	adc	r25, r1
    70ac:	08 95       	ret

000070ae <u8g2_SetFont>:
u8g2_SetFont():
    70ae:	0f 93       	push	r16
    70b0:	1f 93       	push	r17
    70b2:	cf 93       	push	r28
    70b4:	df 93       	push	r29
    70b6:	fc 01       	movw	r30, r24
    70b8:	e6 5a       	subi	r30, 0xA6	; 166
    70ba:	ff 4f       	sbci	r31, 0xFF	; 255
    70bc:	20 81       	ld	r18, Z
    70be:	31 81       	ldd	r19, Z+1	; 0x01
    70c0:	26 17       	cp	r18, r22
    70c2:	37 07       	cpc	r19, r23
    70c4:	09 f4       	brne	.+2      	; 0x70c8 <u8g2_SetFont+0x1a>
    70c6:	72 c0       	rjmp	.+228    	; 0x71ac <u8g2_SetFont+0xfe>
    70c8:	eb 01       	movw	r28, r22
    70ca:	8c 01       	movw	r16, r24
    70cc:	60 83       	st	Z, r22
    70ce:	71 83       	std	Z+1, r23	; 0x01
u8g2_font_get_byte():
    70d0:	fb 01       	movw	r30, r22
    70d2:	84 91       	lpm	r24, Z
u8g2_read_font_info():
    70d4:	80 93 54 6f 	sts	0x6F54, r24	; 0x806f54 <u8g2+0x71>
u8g2_font_get_byte():
    70d8:	31 96       	adiw	r30, 0x01	; 1
    70da:	e4 91       	lpm	r30, Z
u8g2_read_font_info():
    70dc:	e0 93 55 6f 	sts	0x6F55, r30	; 0x806f55 <u8g2+0x72>
u8g2_font_get_byte():
    70e0:	fb 01       	movw	r30, r22
    70e2:	32 96       	adiw	r30, 0x02	; 2
    70e4:	e4 91       	lpm	r30, Z
u8g2_read_font_info():
    70e6:	e0 93 56 6f 	sts	0x6F56, r30	; 0x806f56 <u8g2+0x73>
u8g2_font_get_byte():
    70ea:	fb 01       	movw	r30, r22
    70ec:	33 96       	adiw	r30, 0x03	; 3
    70ee:	e4 91       	lpm	r30, Z
u8g2_read_font_info():
    70f0:	e0 93 57 6f 	sts	0x6F57, r30	; 0x806f57 <u8g2+0x74>
u8g2_font_get_byte():
    70f4:	fb 01       	movw	r30, r22
    70f6:	34 96       	adiw	r30, 0x04	; 4
    70f8:	e4 91       	lpm	r30, Z
u8g2_read_font_info():
    70fa:	e0 93 58 6f 	sts	0x6F58, r30	; 0x806f58 <u8g2+0x75>
u8g2_font_get_byte():
    70fe:	fb 01       	movw	r30, r22
    7100:	35 96       	adiw	r30, 0x05	; 5
    7102:	e4 91       	lpm	r30, Z
u8g2_read_font_info():
    7104:	e0 93 59 6f 	sts	0x6F59, r30	; 0x806f59 <u8g2+0x76>
u8g2_font_get_byte():
    7108:	fb 01       	movw	r30, r22
    710a:	36 96       	adiw	r30, 0x06	; 6
    710c:	e4 91       	lpm	r30, Z
u8g2_read_font_info():
    710e:	e0 93 5a 6f 	sts	0x6F5A, r30	; 0x806f5a <u8g2+0x77>
u8g2_font_get_byte():
    7112:	fb 01       	movw	r30, r22
    7114:	37 96       	adiw	r30, 0x07	; 7
    7116:	e4 91       	lpm	r30, Z
u8g2_read_font_info():
    7118:	e0 93 5b 6f 	sts	0x6F5B, r30	; 0x806f5b <u8g2+0x78>
u8g2_font_get_byte():
    711c:	fb 01       	movw	r30, r22
    711e:	38 96       	adiw	r30, 0x08	; 8
    7120:	e4 91       	lpm	r30, Z
u8g2_read_font_info():
    7122:	e0 93 5c 6f 	sts	0x6F5C, r30	; 0x806f5c <u8g2+0x79>
u8g2_font_get_byte():
    7126:	fb 01       	movw	r30, r22
    7128:	39 96       	adiw	r30, 0x09	; 9
    712a:	e4 91       	lpm	r30, Z
u8g2_read_font_info():
    712c:	e0 93 5d 6f 	sts	0x6F5D, r30	; 0x806f5d <u8g2+0x7a>
u8g2_font_get_byte():
    7130:	fb 01       	movw	r30, r22
    7132:	3a 96       	adiw	r30, 0x0a	; 10
    7134:	e4 91       	lpm	r30, Z
u8g2_read_font_info():
    7136:	e0 93 5e 6f 	sts	0x6F5E, r30	; 0x806f5e <u8g2+0x7b>
u8g2_font_get_byte():
    713a:	fb 01       	movw	r30, r22
    713c:	3b 96       	adiw	r30, 0x0b	; 11
    713e:	e4 91       	lpm	r30, Z
u8g2_read_font_info():
    7140:	e0 93 5f 6f 	sts	0x6F5F, r30	; 0x806f5f <u8g2+0x7c>
u8g2_font_get_byte():
    7144:	fb 01       	movw	r30, r22
    7146:	3c 96       	adiw	r30, 0x0c	; 12
    7148:	e4 91       	lpm	r30, Z
u8g2_read_font_info():
    714a:	e0 93 60 6f 	sts	0x6F60, r30	; 0x806f60 <u8g2+0x7d>
u8g2_font_get_byte():
    714e:	fb 01       	movw	r30, r22
    7150:	3d 96       	adiw	r30, 0x0d	; 13
    7152:	e4 91       	lpm	r30, Z
u8g2_read_font_info():
    7154:	e0 93 61 6f 	sts	0x6F61, r30	; 0x806f61 <u8g2+0x7e>
u8g2_font_get_byte():
    7158:	fb 01       	movw	r30, r22
    715a:	3e 96       	adiw	r30, 0x0e	; 14
    715c:	e4 91       	lpm	r30, Z
u8g2_read_font_info():
    715e:	e0 93 62 6f 	sts	0x6F62, r30	; 0x806f62 <u8g2+0x7f>
u8g2_font_get_byte():
    7162:	fb 01       	movw	r30, r22
    7164:	3f 96       	adiw	r30, 0x0f	; 15
    7166:	e4 91       	lpm	r30, Z
u8g2_read_font_info():
    7168:	e0 93 63 6f 	sts	0x6F63, r30	; 0x806f63 <u8g2+0x80>
u8g2_font_get_byte():
    716c:	fb 01       	movw	r30, r22
    716e:	70 96       	adiw	r30, 0x10	; 16
    7170:	e4 91       	lpm	r30, Z
u8g2_read_font_info():
    7172:	e0 93 64 6f 	sts	0x6F64, r30	; 0x806f64 <u8g2+0x81>
    7176:	61 e1       	ldi	r22, 0x11	; 17
    7178:	ce 01       	movw	r24, r28
    717a:	8d df       	rcall	.-230    	; 0x7096 <u8g2_font_get_word>
    717c:	80 93 65 6f 	sts	0x6F65, r24	; 0x806f65 <u8g2+0x82>
    7180:	90 93 66 6f 	sts	0x6F66, r25	; 0x806f66 <u8g2+0x83>
    7184:	63 e1       	ldi	r22, 0x13	; 19
    7186:	ce 01       	movw	r24, r28
    7188:	86 df       	rcall	.-244    	; 0x7096 <u8g2_font_get_word>
    718a:	80 93 67 6f 	sts	0x6F67, r24	; 0x806f67 <u8g2+0x84>
    718e:	90 93 68 6f 	sts	0x6F68, r25	; 0x806f68 <u8g2+0x85>
    7192:	65 e1       	ldi	r22, 0x15	; 21
    7194:	ce 01       	movw	r24, r28
    7196:	7f df       	rcall	.-258    	; 0x7096 <u8g2_font_get_word>
    7198:	80 93 69 6f 	sts	0x6F69, r24	; 0x806f69 <u8g2+0x86>
    719c:	90 93 6a 6f 	sts	0x6F6A, r25	; 0x806f6a <u8g2+0x87>
u8g2_SetFont():
    71a0:	c8 01       	movw	r24, r16
    71a2:	df 91       	pop	r29
    71a4:	cf 91       	pop	r28
    71a6:	1f 91       	pop	r17
    71a8:	0f 91       	pop	r16
    71aa:	41 ce       	rjmp	.-894    	; 0x6e2e <u8g2_UpdateRefHeight>
    71ac:	df 91       	pop	r29
    71ae:	cf 91       	pop	r28
    71b0:	1f 91       	pop	r17
    71b2:	0f 91       	pop	r16
    71b4:	08 95       	ret

000071b6 <u8g2_font_get_glyph_data>:
u8g2_font_get_glyph_data():
    71b6:	ef 92       	push	r14
    71b8:	ff 92       	push	r15
    71ba:	0f 93       	push	r16
    71bc:	1f 93       	push	r17
    71be:	cf 93       	push	r28
    71c0:	df 93       	push	r29
    71c2:	fc 01       	movw	r30, r24
    71c4:	e6 5a       	subi	r30, 0xA6	; 166
    71c6:	ff 4f       	sbci	r31, 0xFF	; 255
    71c8:	20 81       	ld	r18, Z
    71ca:	31 81       	ldd	r19, Z+1	; 0x01
    71cc:	29 5e       	subi	r18, 0xE9	; 233
    71ce:	3f 4f       	sbci	r19, 0xFF	; 255
    71d0:	6f 3f       	cpi	r22, 0xFF	; 255
    71d2:	71 05       	cpc	r23, r1
    71d4:	09 f0       	breq	.+2      	; 0x71d8 <u8g2_font_get_glyph_data+0x22>
    71d6:	48 f5       	brcc	.+82     	; 0x722a <u8g2_font_get_glyph_data+0x74>
    71d8:	61 36       	cpi	r22, 0x61	; 97
    71da:	71 05       	cpc	r23, r1
    71dc:	d8 f0       	brcs	.+54     	; 0x7214 <u8g2_font_get_glyph_data+0x5e>
    71de:	80 58       	subi	r24, 0x80	; 128
    71e0:	9f 4f       	sbci	r25, 0xFF	; 255
    71e2:	fc 01       	movw	r30, r24
    71e4:	80 81       	ld	r24, Z
    71e6:	91 81       	ldd	r25, Z+1	; 0x01
    71e8:	28 0f       	add	r18, r24
    71ea:	39 1f       	adc	r19, r25
    71ec:	c9 01       	movw	r24, r18
    71ee:	01 96       	adiw	r24, 0x01	; 1
    71f0:	fc 01       	movw	r30, r24
    71f2:	44 91       	lpm	r20, Z
    71f4:	44 23       	and	r20, r20
    71f6:	09 f4       	brne	.+2      	; 0x71fa <u8g2_font_get_glyph_data+0x44>
    71f8:	45 c0       	rjmp	.+138    	; 0x7284 <u8g2_font_get_glyph_data+0xce>
    71fa:	f9 01       	movw	r30, r18
    71fc:	44 91       	lpm	r20, Z
    71fe:	46 17       	cp	r20, r22
    7200:	17 06       	cpc	r1, r23
    7202:	71 f4       	brne	.+28     	; 0x7220 <u8g2_font_get_glyph_data+0x6a>
    7204:	01 96       	adiw	r24, 0x01	; 1
    7206:	df 91       	pop	r29
    7208:	cf 91       	pop	r28
    720a:	1f 91       	pop	r17
    720c:	0f 91       	pop	r16
    720e:	ff 90       	pop	r15
    7210:	ef 90       	pop	r14
    7212:	08 95       	ret
    7214:	61 34       	cpi	r22, 0x41	; 65
    7216:	71 05       	cpc	r23, r1
    7218:	48 f3       	brcs	.-46     	; 0x71ec <u8g2_font_get_glyph_data+0x36>
    721a:	82 58       	subi	r24, 0x82	; 130
    721c:	9f 4f       	sbci	r25, 0xFF	; 255
    721e:	e1 cf       	rjmp	.-62     	; 0x71e2 <u8g2_font_get_glyph_data+0x2c>
    7220:	fc 01       	movw	r30, r24
    7222:	84 91       	lpm	r24, Z
    7224:	28 0f       	add	r18, r24
    7226:	31 1d       	adc	r19, r1
    7228:	e1 cf       	rjmp	.-62     	; 0x71ec <u8g2_font_get_glyph_data+0x36>
    722a:	8b 01       	movw	r16, r22
    722c:	fc 01       	movw	r30, r24
    722e:	ee 57       	subi	r30, 0x7E	; 126
    7230:	ff 4f       	sbci	r31, 0xFF	; 255
    7232:	c0 81       	ld	r28, Z
    7234:	d1 81       	ldd	r29, Z+1	; 0x01
    7236:	c2 0f       	add	r28, r18
    7238:	d3 1f       	adc	r29, r19
    723a:	7e 01       	movw	r14, r28
    723c:	60 e0       	ldi	r22, 0x00	; 0
    723e:	c7 01       	movw	r24, r14
    7240:	2a df       	rcall	.-428    	; 0x7096 <u8g2_font_get_word>
    7242:	c8 0f       	add	r28, r24
    7244:	d9 1f       	adc	r29, r25
    7246:	62 e0       	ldi	r22, 0x02	; 2
    7248:	c7 01       	movw	r24, r14
    724a:	25 df       	rcall	.-438    	; 0x7096 <u8g2_font_get_word>
    724c:	f4 e0       	ldi	r31, 0x04	; 4
    724e:	ef 0e       	add	r14, r31
    7250:	f1 1c       	adc	r15, r1
    7252:	80 17       	cp	r24, r16
    7254:	91 07       	cpc	r25, r17
    7256:	90 f3       	brcs	.-28     	; 0x723c <u8g2_font_get_glyph_data+0x86>
    7258:	fe 01       	movw	r30, r28
    725a:	84 91       	lpm	r24, Z
    725c:	90 e0       	ldi	r25, 0x00	; 0
    725e:	98 2f       	mov	r25, r24
    7260:	88 27       	eor	r24, r24
    7262:	31 96       	adiw	r30, 0x01	; 1
    7264:	e4 91       	lpm	r30, Z
    7266:	8e 2b       	or	r24, r30
    7268:	00 97       	sbiw	r24, 0x00	; 0
    726a:	61 f0       	breq	.+24     	; 0x7284 <u8g2_font_get_glyph_data+0xce>
    726c:	08 17       	cp	r16, r24
    726e:	19 07       	cpc	r17, r25
    7270:	19 f4       	brne	.+6      	; 0x7278 <u8g2_font_get_glyph_data+0xc2>
    7272:	ce 01       	movw	r24, r28
    7274:	03 96       	adiw	r24, 0x03	; 3
    7276:	c7 cf       	rjmp	.-114    	; 0x7206 <u8g2_font_get_glyph_data+0x50>
    7278:	fe 01       	movw	r30, r28
    727a:	32 96       	adiw	r30, 0x02	; 2
    727c:	e4 91       	lpm	r30, Z
    727e:	ce 0f       	add	r28, r30
    7280:	d1 1d       	adc	r29, r1
    7282:	ea cf       	rjmp	.-44     	; 0x7258 <u8g2_font_get_glyph_data+0xa2>
    7284:	90 e0       	ldi	r25, 0x00	; 0
    7286:	80 e0       	ldi	r24, 0x00	; 0
    7288:	be cf       	rjmp	.-132    	; 0x7206 <u8g2_font_get_glyph_data+0x50>

0000728a <u8g2_string_width.constprop.86>:
u8g2_string_width():
    728a:	cf 92       	push	r12
    728c:	df 92       	push	r13
    728e:	ff 92       	push	r15
    7290:	0f 93       	push	r16
    7292:	1f 93       	push	r17
    7294:	cf 93       	push	r28
    7296:	df 93       	push	r29
    7298:	10 92 4d 6f 	sts	0x6F4D, r1	; 0x806f4d <u8g2+0x6a>
u8x8_utf8_init():
    729c:	10 92 ff 6e 	sts	0x6EFF, r1	; 0x806eff <u8g2+0x1c>
    72a0:	8f e5       	ldi	r24, 0x5F	; 95
    72a2:	c8 2e       	mov	r12, r24
    72a4:	82 e6       	ldi	r24, 0x62	; 98
    72a6:	d8 2e       	mov	r13, r24
u8g2_string_width():
    72a8:	90 ec       	ldi	r25, 0xC0	; 192
    72aa:	f9 2e       	mov	r15, r25
    72ac:	10 e0       	ldi	r17, 0x00	; 0
    72ae:	00 e0       	ldi	r16, 0x00	; 0
    72b0:	d0 e0       	ldi	r29, 0x00	; 0
    72b2:	c0 e0       	ldi	r28, 0x00	; 0
    72b4:	f6 01       	movw	r30, r12
    72b6:	61 91       	ld	r22, Z+
    72b8:	6f 01       	movw	r12, r30
    72ba:	e0 91 e9 6e 	lds	r30, 0x6EE9	; 0x806ee9 <u8g2+0x6>
    72be:	f0 91 ea 6e 	lds	r31, 0x6EEA	; 0x806eea <u8g2+0x7>
    72c2:	87 ee       	ldi	r24, 0xE7	; 231
    72c4:	9e e6       	ldi	r25, 0x6E	; 110
    72c6:	09 95       	icall
    72c8:	8f 3f       	cpi	r24, 0xFF	; 255
    72ca:	98 07       	cpc	r25, r24
    72cc:	61 f1       	breq	.+88     	; 0x7326 <u8g2_string_width.constprop.86+0x9c>
    72ce:	8e 3f       	cpi	r24, 0xFE	; 254
    72d0:	2f ef       	ldi	r18, 0xFF	; 255
    72d2:	92 07       	cpc	r25, r18
    72d4:	79 f3       	breq	.-34     	; 0x72b4 <u8g2_string_width.constprop.86+0x2a>
u8g2_GetGlyphWidth():
    72d6:	bc 01       	movw	r22, r24
    72d8:	87 ee       	ldi	r24, 0xE7	; 231
    72da:	9e e6       	ldi	r25, 0x6E	; 110
    72dc:	6c df       	rcall	.-296    	; 0x71b6 <u8g2_font_get_glyph_data>
    72de:	00 97       	sbiw	r24, 0x00	; 0
    72e0:	01 f1       	breq	.+64     	; 0x7322 <u8g2_string_width.constprop.86+0x98>
    72e2:	bc 01       	movw	r22, r24
    72e4:	87 ee       	ldi	r24, 0xE7	; 231
    72e6:	9e e6       	ldi	r25, 0x6E	; 110
    72e8:	a2 de       	rcall	.-700    	; 0x702e <u8g2_font_setup_decode>
    72ea:	60 91 5a 6f 	lds	r22, 0x6F5A	; 0x806f5a <u8g2+0x77>
    72ee:	85 e4       	ldi	r24, 0x45	; 69
    72f0:	9f e6       	ldi	r25, 0x6F	; 111
    72f2:	c4 de       	rcall	.-632    	; 0x707c <u8g2_font_decode_get_signed_bits>
    72f4:	80 93 6f 6f 	sts	0x6F6F, r24	; 0x806f6f <u8g2+0x8c>
    72f8:	60 91 5b 6f 	lds	r22, 0x6F5B	; 0x806f5b <u8g2+0x78>
    72fc:	85 e4       	ldi	r24, 0x45	; 69
    72fe:	9f e6       	ldi	r25, 0x6F	; 111
    7300:	bd de       	rcall	.-646    	; 0x707c <u8g2_font_decode_get_signed_bits>
    7302:	60 91 5c 6f 	lds	r22, 0x6F5C	; 0x806f5c <u8g2+0x79>
    7306:	85 e4       	ldi	r24, 0x45	; 69
    7308:	9f e6       	ldi	r25, 0x6F	; 111
    730a:	b8 de       	rcall	.-656    	; 0x707c <u8g2_font_decode_get_signed_bits>
u8g2_string_width():
    730c:	08 2f       	mov	r16, r24
    730e:	88 0f       	add	r24, r24
    7310:	11 0b       	sbc	r17, r17
    7312:	80 ec       	ldi	r24, 0xC0	; 192
    7314:	f8 12       	cpse	r15, r24
    7316:	02 c0       	rjmp	.+4      	; 0x731c <u8g2_string_width.constprop.86+0x92>
    7318:	f0 90 6f 6f 	lds	r15, 0x6F6F	; 0x806f6f <u8g2+0x8c>
    731c:	c0 0f       	add	r28, r16
    731e:	d1 1f       	adc	r29, r17
    7320:	c9 cf       	rjmp	.-110    	; 0x72b4 <u8g2_string_width.constprop.86+0x2a>
    7322:	80 e0       	ldi	r24, 0x00	; 0
    7324:	f3 cf       	rjmp	.-26     	; 0x730c <u8g2_string_width.constprop.86+0x82>
    7326:	20 91 4d 6f 	lds	r18, 0x6F4D	; 0x806f4d <u8g2+0x6a>
    732a:	22 23       	and	r18, r18
    732c:	99 f0       	breq	.+38     	; 0x7354 <u8g2_string_width.constprop.86+0xca>
    732e:	80 91 6f 6f 	lds	r24, 0x6F6F	; 0x806f6f <u8g2+0x8c>
    7332:	02 2e       	mov	r0, r18
    7334:	00 0c       	add	r0, r0
    7336:	33 0b       	sbc	r19, r19
    7338:	28 0f       	add	r18, r24
    733a:	31 1d       	adc	r19, r1
    733c:	87 fd       	sbrc	r24, 7
    733e:	3a 95       	dec	r19
    7340:	c2 0f       	add	r28, r18
    7342:	d3 1f       	adc	r29, r19
    7344:	c0 1b       	sub	r28, r16
    7346:	d1 0b       	sbc	r29, r17
    7348:	1f 14       	cp	r1, r15
    734a:	24 f4       	brge	.+8      	; 0x7354 <u8g2_string_width.constprop.86+0xca>
    734c:	cf 0d       	add	r28, r15
    734e:	d1 1d       	adc	r29, r1
    7350:	f7 fc       	sbrc	r15, 7
    7352:	da 95       	dec	r29
    7354:	ce 01       	movw	r24, r28
    7356:	df 91       	pop	r29
    7358:	cf 91       	pop	r28
    735a:	1f 91       	pop	r17
    735c:	0f 91       	pop	r16
    735e:	ff 90       	pop	r15
    7360:	df 90       	pop	r13
    7362:	cf 90       	pop	r12
    7364:	08 95       	ret

00007366 <u8g2_DrawGlyph>:
u8g2_DrawGlyph():
    7366:	8f 92       	push	r8
    7368:	9f 92       	push	r9
    736a:	af 92       	push	r10
    736c:	bf 92       	push	r11
    736e:	cf 92       	push	r12
    7370:	df 92       	push	r13
    7372:	ef 92       	push	r14
    7374:	ff 92       	push	r15
    7376:	0f 93       	push	r16
    7378:	1f 93       	push	r17
    737a:	cf 93       	push	r28
    737c:	df 93       	push	r29
    737e:	ec 01       	movw	r28, r24
    7380:	7b 01       	movw	r14, r22
    7382:	8a 01       	movw	r16, r20
    7384:	69 01       	movw	r12, r18
    7386:	fc 01       	movw	r30, r24
    7388:	e4 59       	subi	r30, 0x94	; 148
    738a:	ff 4f       	sbci	r31, 0xFF	; 255
    738c:	80 81       	ld	r24, Z
    738e:	81 30       	cpi	r24, 0x01	; 1
    7390:	09 f4       	brne	.+2      	; 0x7394 <u8g2_DrawGlyph+0x2e>
    7392:	68 c0       	rjmp	.+208    	; 0x7464 <u8g2_DrawGlyph+0xfe>
    7394:	08 f4       	brcc	.+2      	; 0x7398 <u8g2_DrawGlyph+0x32>
    7396:	5b c0       	rjmp	.+182    	; 0x744e <u8g2_DrawGlyph+0xe8>
    7398:	82 30       	cpi	r24, 0x02	; 2
    739a:	09 f4       	brne	.+2      	; 0x739e <u8g2_DrawGlyph+0x38>
    739c:	6e c0       	rjmp	.+220    	; 0x747a <u8g2_DrawGlyph+0x114>
    739e:	83 30       	cpi	r24, 0x03	; 3
    73a0:	09 f4       	brne	.+2      	; 0x73a4 <u8g2_DrawGlyph+0x3e>
    73a2:	76 c0       	rjmp	.+236    	; 0x7490 <u8g2_DrawGlyph+0x12a>
u8g2_font_draw_glyph():
    73a4:	fe 01       	movw	r30, r28
    73a6:	e0 5a       	subi	r30, 0xA0	; 160
    73a8:	ff 4f       	sbci	r31, 0xFF	; 255
    73aa:	e0 82       	st	Z, r14
    73ac:	f1 82       	std	Z+1, r15	; 0x01
    73ae:	32 96       	adiw	r30, 0x02	; 2
    73b0:	00 83       	st	Z, r16
    73b2:	11 83       	std	Z+1, r17	; 0x01
    73b4:	b6 01       	movw	r22, r12
    73b6:	ce 01       	movw	r24, r28
    73b8:	fe de       	rcall	.-516    	; 0x71b6 <u8g2_font_get_glyph_data>
    73ba:	00 97       	sbiw	r24, 0x00	; 0
    73bc:	09 f4       	brne	.+2      	; 0x73c0 <u8g2_DrawGlyph+0x5a>
    73be:	f3 c0       	rjmp	.+486    	; 0x75a6 <u8g2_DrawGlyph+0x240>
u8g2_font_decode_glyph():
    73c0:	7e 01       	movw	r14, r28
    73c2:	2e e5       	ldi	r18, 0x5E	; 94
    73c4:	e2 0e       	add	r14, r18
    73c6:	f1 1c       	adc	r15, r1
    73c8:	bc 01       	movw	r22, r24
    73ca:	ce 01       	movw	r24, r28
    73cc:	30 de       	rcall	.-928    	; 0x702e <u8g2_font_setup_decode>
    73ce:	fe 01       	movw	r30, r28
    73d0:	e9 59       	subi	r30, 0x99	; 153
    73d2:	ff 4f       	sbci	r31, 0xFF	; 255
    73d4:	b0 80       	ld	r11, Z
    73d6:	3c 96       	adiw	r30, 0x0c	; 12
    73d8:	60 81       	ld	r22, Z
    73da:	c7 01       	movw	r24, r14
    73dc:	4f de       	rcall	.-866    	; 0x707c <u8g2_font_decode_get_signed_bits>
    73de:	88 2e       	mov	r8, r24
    73e0:	fe 01       	movw	r30, r28
    73e2:	ec 58       	subi	r30, 0x8C	; 140
    73e4:	ff 4f       	sbci	r31, 0xFF	; 255
    73e6:	60 81       	ld	r22, Z
    73e8:	c7 01       	movw	r24, r14
    73ea:	48 de       	rcall	.-880    	; 0x707c <u8g2_font_decode_get_signed_bits>
    73ec:	08 2f       	mov	r16, r24
    73ee:	fe 01       	movw	r30, r28
    73f0:	eb 58       	subi	r30, 0x8B	; 139
    73f2:	ff 4f       	sbci	r31, 0xFF	; 255
    73f4:	60 81       	ld	r22, Z
    73f6:	c7 01       	movw	r24, r14
    73f8:	41 de       	rcall	.-894    	; 0x707c <u8g2_font_decode_get_signed_bits>
    73fa:	a8 2e       	mov	r10, r24
    73fc:	f7 01       	movw	r30, r14
    73fe:	90 84       	ldd	r9, Z+8	; 0x08
    7400:	19 14       	cp	r1, r9
    7402:	0c f0       	brlt	.+2      	; 0x7406 <u8g2_DrawGlyph+0xa0>
    7404:	88 c0       	rjmp	.+272    	; 0x7516 <u8g2_DrawGlyph+0x1b0>
    7406:	16 85       	ldd	r17, Z+14	; 0x0e
    7408:	0b 0d       	add	r16, r11
    740a:	01 95       	neg	r16
    740c:	21 2f       	mov	r18, r17
    740e:	40 2f       	mov	r20, r16
    7410:	68 2d       	mov	r22, r8
    7412:	82 81       	ldd	r24, Z+2	; 0x02
    7414:	93 81       	ldd	r25, Z+3	; 0x03
    7416:	51 dd       	rcall	.-1374   	; 0x6eba <u8g2_add_vector_x>
    7418:	6c 01       	movw	r12, r24
    741a:	f7 01       	movw	r30, r14
    741c:	82 83       	std	Z+2, r24	; 0x02
    741e:	93 83       	std	Z+3, r25	; 0x03
    7420:	21 2f       	mov	r18, r17
    7422:	40 2f       	mov	r20, r16
    7424:	68 2d       	mov	r22, r8
    7426:	84 81       	ldd	r24, Z+4	; 0x04
    7428:	95 81       	ldd	r25, Z+5	; 0x05
    742a:	60 dd       	rcall	.-1344   	; 0x6eec <u8g2_add_vector_y>
    742c:	ac 01       	movw	r20, r24
    742e:	f7 01       	movw	r30, r14
    7430:	84 83       	std	Z+4, r24	; 0x04
    7432:	95 83       	std	Z+5, r25	; 0x05
    7434:	11 30       	cpi	r17, 0x01	; 1
    7436:	09 f4       	brne	.+2      	; 0x743a <u8g2_DrawGlyph+0xd4>
    7438:	7e c0       	rjmp	.+252    	; 0x7536 <u8g2_DrawGlyph+0x1d0>
    743a:	a8 f1       	brcs	.+106    	; 0x74a6 <u8g2_DrawGlyph+0x140>
    743c:	12 30       	cpi	r17, 0x02	; 2
    743e:	09 f4       	brne	.+2      	; 0x7442 <u8g2_DrawGlyph+0xdc>
    7440:	8b c0       	rjmp	.+278    	; 0x7558 <u8g2_DrawGlyph+0x1f2>
    7442:	13 30       	cpi	r17, 0x03	; 3
    7444:	09 f4       	brne	.+2      	; 0x7448 <u8g2_DrawGlyph+0xe2>
    7446:	9e c0       	rjmp	.+316    	; 0x7584 <u8g2_DrawGlyph+0x21e>
u8g2_DrawGlyph():
    7448:	8c 01       	movw	r16, r24
    744a:	96 01       	movw	r18, r12
    744c:	36 c0       	rjmp	.+108    	; 0x74ba <u8g2_DrawGlyph+0x154>
    744e:	fe 01       	movw	r30, r28
    7450:	e4 5a       	subi	r30, 0xA4	; 164
    7452:	ff 4f       	sbci	r31, 0xFF	; 255
    7454:	01 90       	ld	r0, Z+
    7456:	f0 81       	ld	r31, Z
    7458:	e0 2d       	mov	r30, r0
    745a:	ce 01       	movw	r24, r28
    745c:	09 95       	icall
    745e:	08 0f       	add	r16, r24
    7460:	19 1f       	adc	r17, r25
    7462:	a0 cf       	rjmp	.-192    	; 0x73a4 <u8g2_DrawGlyph+0x3e>
    7464:	fe 01       	movw	r30, r28
    7466:	e4 5a       	subi	r30, 0xA4	; 164
    7468:	ff 4f       	sbci	r31, 0xFF	; 255
    746a:	01 90       	ld	r0, Z+
    746c:	f0 81       	ld	r31, Z
    746e:	e0 2d       	mov	r30, r0
    7470:	ce 01       	movw	r24, r28
    7472:	09 95       	icall
    7474:	e8 1a       	sub	r14, r24
    7476:	f9 0a       	sbc	r15, r25
    7478:	95 cf       	rjmp	.-214    	; 0x73a4 <u8g2_DrawGlyph+0x3e>
    747a:	fe 01       	movw	r30, r28
    747c:	e4 5a       	subi	r30, 0xA4	; 164
    747e:	ff 4f       	sbci	r31, 0xFF	; 255
    7480:	01 90       	ld	r0, Z+
    7482:	f0 81       	ld	r31, Z
    7484:	e0 2d       	mov	r30, r0
    7486:	ce 01       	movw	r24, r28
    7488:	09 95       	icall
    748a:	08 1b       	sub	r16, r24
    748c:	19 0b       	sbc	r17, r25
    748e:	8a cf       	rjmp	.-236    	; 0x73a4 <u8g2_DrawGlyph+0x3e>
    7490:	fe 01       	movw	r30, r28
    7492:	e4 5a       	subi	r30, 0xA4	; 164
    7494:	ff 4f       	sbci	r31, 0xFF	; 255
    7496:	01 90       	ld	r0, Z+
    7498:	f0 81       	ld	r31, Z
    749a:	e0 2d       	mov	r30, r0
    749c:	ce 01       	movw	r24, r28
    749e:	09 95       	icall
    74a0:	e8 0e       	add	r14, r24
    74a2:	f9 1e       	adc	r15, r25
    74a4:	7f cf       	rjmp	.-258    	; 0x73a4 <u8g2_DrawGlyph+0x3e>
u8g2_font_decode_glyph():
    74a6:	96 01       	movw	r18, r12
    74a8:	29 0d       	add	r18, r9
    74aa:	31 1d       	adc	r19, r1
    74ac:	97 fc       	sbrc	r9, 7
    74ae:	3a 95       	dec	r19
    74b0:	8c 01       	movw	r16, r24
    74b2:	0b 0d       	add	r16, r11
    74b4:	11 1d       	adc	r17, r1
    74b6:	b7 fc       	sbrc	r11, 7
    74b8:	1a 95       	dec	r17
    74ba:	b6 01       	movw	r22, r12
    74bc:	ce 01       	movw	r24, r28
    74be:	55 da       	rcall	.-2902   	; 0x696a <u8g2_IsIntersection>
    74c0:	88 23       	and	r24, r24
    74c2:	49 f1       	breq	.+82     	; 0x7516 <u8g2_DrawGlyph+0x1b0>
    74c4:	f7 01       	movw	r30, r14
    74c6:	16 82       	std	Z+6, r1	; 0x06
    74c8:	17 82       	std	Z+7, r1	; 0x07
    74ca:	8e 01       	movw	r16, r28
    74cc:	01 59       	subi	r16, 0x91	; 145
    74ce:	1f 4f       	sbci	r17, 0xFF	; 255
    74d0:	6e 01       	movw	r12, r28
    74d2:	f0 e7       	ldi	r31, 0x70	; 112
    74d4:	cf 0e       	add	r12, r31
    74d6:	d1 1c       	adc	r13, r1
    74d8:	f8 01       	movw	r30, r16
    74da:	60 81       	ld	r22, Z
    74dc:	c7 01       	movw	r24, r14
    74de:	7c dd       	rcall	.-1288   	; 0x6fd8 <u8g2_font_decode_get_unsigned_bits>
    74e0:	88 2e       	mov	r8, r24
    74e2:	f6 01       	movw	r30, r12
    74e4:	60 81       	ld	r22, Z
    74e6:	c7 01       	movw	r24, r14
    74e8:	77 dd       	rcall	.-1298   	; 0x6fd8 <u8g2_font_decode_get_unsigned_bits>
    74ea:	98 2e       	mov	r9, r24
    74ec:	40 e0       	ldi	r20, 0x00	; 0
    74ee:	68 2d       	mov	r22, r8
    74f0:	ce 01       	movw	r24, r28
    74f2:	15 dd       	rcall	.-1494   	; 0x6f1e <u8g2_font_decode_len>
    74f4:	41 e0       	ldi	r20, 0x01	; 1
    74f6:	69 2d       	mov	r22, r9
    74f8:	ce 01       	movw	r24, r28
    74fa:	11 dd       	rcall	.-1502   	; 0x6f1e <u8g2_font_decode_len>
    74fc:	61 e0       	ldi	r22, 0x01	; 1
    74fe:	c7 01       	movw	r24, r14
    7500:	6b dd       	rcall	.-1322   	; 0x6fd8 <u8g2_font_decode_get_unsigned_bits>
    7502:	81 11       	cpse	r24, r1
    7504:	f3 cf       	rjmp	.-26     	; 0x74ec <u8g2_DrawGlyph+0x186>
    7506:	f7 01       	movw	r30, r14
    7508:	87 81       	ldd	r24, Z+7	; 0x07
    750a:	8b 15       	cp	r24, r11
    750c:	2c f3       	brlt	.-54     	; 0x74d8 <u8g2_DrawGlyph+0x172>
    750e:	c6 57       	subi	r28, 0x76	; 118
    7510:	df 4f       	sbci	r29, 0xFF	; 255
    7512:	84 85       	ldd	r24, Z+12	; 0x0c
    7514:	88 83       	st	Y, r24
u8g2_font_draw_glyph():
    7516:	8a 2d       	mov	r24, r10
    7518:	aa 0c       	add	r10, r10
    751a:	99 0b       	sbc	r25, r25
u8g2_DrawGlyph():
    751c:	df 91       	pop	r29
    751e:	cf 91       	pop	r28
    7520:	1f 91       	pop	r17
    7522:	0f 91       	pop	r16
    7524:	ff 90       	pop	r15
    7526:	ef 90       	pop	r14
    7528:	df 90       	pop	r13
    752a:	cf 90       	pop	r12
    752c:	bf 90       	pop	r11
    752e:	af 90       	pop	r10
    7530:	9f 90       	pop	r9
    7532:	8f 90       	pop	r8
    7534:	08 95       	ret
u8g2_font_decode_glyph():
    7536:	81 e0       	ldi	r24, 0x01	; 1
    7538:	90 e0       	ldi	r25, 0x00	; 0
    753a:	8b 19       	sub	r24, r11
    753c:	91 09       	sbc	r25, r1
    753e:	b7 fc       	sbrc	r11, 7
    7540:	93 95       	inc	r25
    7542:	96 01       	movw	r18, r12
    7544:	2f 5f       	subi	r18, 0xFF	; 255
    7546:	3f 4f       	sbci	r19, 0xFF	; 255
    7548:	8a 01       	movw	r16, r20
    754a:	09 0d       	add	r16, r9
    754c:	11 1d       	adc	r17, r1
    754e:	97 fc       	sbrc	r9, 7
    7550:	1a 95       	dec	r17
u8g2_DrawGlyph():
    7552:	c8 0e       	add	r12, r24
    7554:	d9 1e       	adc	r13, r25
    7556:	b1 cf       	rjmp	.-158    	; 0x74ba <u8g2_DrawGlyph+0x154>
u8g2_font_decode_glyph():
    7558:	81 e0       	ldi	r24, 0x01	; 1
    755a:	90 e0       	ldi	r25, 0x00	; 0
    755c:	bc 01       	movw	r22, r24
    755e:	69 19       	sub	r22, r9
    7560:	71 09       	sbc	r23, r1
    7562:	97 fc       	sbrc	r9, 7
    7564:	73 95       	inc	r23
    7566:	96 01       	movw	r18, r12
    7568:	2f 5f       	subi	r18, 0xFF	; 255
    756a:	3f 4f       	sbci	r19, 0xFF	; 255
    756c:	8b 19       	sub	r24, r11
    756e:	91 09       	sbc	r25, r1
    7570:	b7 fc       	sbrc	r11, 7
    7572:	93 95       	inc	r25
    7574:	8a 01       	movw	r16, r20
    7576:	0f 5f       	subi	r16, 0xFF	; 255
    7578:	1f 4f       	sbci	r17, 0xFF	; 255
u8g2_DrawGlyph():
    757a:	48 0f       	add	r20, r24
    757c:	59 1f       	adc	r21, r25
    757e:	c6 0e       	add	r12, r22
    7580:	d7 1e       	adc	r13, r23
    7582:	9b cf       	rjmp	.-202    	; 0x74ba <u8g2_DrawGlyph+0x154>
u8g2_font_decode_glyph():
    7584:	96 01       	movw	r18, r12
    7586:	2b 0d       	add	r18, r11
    7588:	31 1d       	adc	r19, r1
    758a:	b7 fc       	sbrc	r11, 7
    758c:	3a 95       	dec	r19
    758e:	81 e0       	ldi	r24, 0x01	; 1
    7590:	90 e0       	ldi	r25, 0x00	; 0
    7592:	89 19       	sub	r24, r9
    7594:	91 09       	sbc	r25, r1
    7596:	97 fc       	sbrc	r9, 7
    7598:	93 95       	inc	r25
    759a:	8a 01       	movw	r16, r20
    759c:	0f 5f       	subi	r16, 0xFF	; 255
    759e:	1f 4f       	sbci	r17, 0xFF	; 255
u8g2_DrawGlyph():
    75a0:	48 0f       	add	r20, r24
    75a2:	59 1f       	adc	r21, r25
    75a4:	8a cf       	rjmp	.-236    	; 0x74ba <u8g2_DrawGlyph+0x154>
    75a6:	90 e0       	ldi	r25, 0x00	; 0
    75a8:	80 e0       	ldi	r24, 0x00	; 0
    75aa:	b8 cf       	rjmp	.-144    	; 0x751c <u8g2_DrawGlyph+0x1b6>

000075ac <u8g2_draw_string.constprop.77>:
u8g2_draw_string():
    75ac:	cf 92       	push	r12
    75ae:	df 92       	push	r13
    75b0:	ef 92       	push	r14
    75b2:	ff 92       	push	r15
    75b4:	0f 93       	push	r16
    75b6:	1f 93       	push	r17
    75b8:	cf 93       	push	r28
    75ba:	df 93       	push	r29
    75bc:	8c 01       	movw	r16, r24
u8x8_utf8_init():
    75be:	10 92 ff 6e 	sts	0x6EFF, r1	; 0x806eff <u8g2+0x1c>
    75c2:	87 e9       	ldi	r24, 0x97	; 151
    75c4:	c8 2e       	mov	r12, r24
    75c6:	8f e6       	ldi	r24, 0x6F	; 111
    75c8:	d8 2e       	mov	r13, r24
u8g2_draw_string():
    75ca:	f1 2c       	mov	r15, r1
    75cc:	e1 2c       	mov	r14, r1
u8x8_utf8_init():
    75ce:	cf e0       	ldi	r28, 0x0F	; 15
    75d0:	d0 e0       	ldi	r29, 0x00	; 0
u8g2_draw_string():
    75d2:	f6 01       	movw	r30, r12
    75d4:	61 91       	ld	r22, Z+
    75d6:	6f 01       	movw	r12, r30
    75d8:	e0 91 e9 6e 	lds	r30, 0x6EE9	; 0x806ee9 <u8g2+0x6>
    75dc:	f0 91 ea 6e 	lds	r31, 0x6EEA	; 0x806eea <u8g2+0x7>
    75e0:	87 ee       	ldi	r24, 0xE7	; 231
    75e2:	9e e6       	ldi	r25, 0x6E	; 110
    75e4:	09 95       	icall
    75e6:	8f 3f       	cpi	r24, 0xFF	; 255
    75e8:	98 07       	cpc	r25, r24
    75ea:	11 f1       	breq	.+68     	; 0x7630 <u8g2_draw_string.constprop.77+0x84>
    75ec:	8e 3f       	cpi	r24, 0xFE	; 254
    75ee:	2f ef       	ldi	r18, 0xFF	; 255
    75f0:	92 07       	cpc	r25, r18
    75f2:	79 f3       	breq	.-34     	; 0x75d2 <u8g2_draw_string.constprop.77+0x26>
    75f4:	9c 01       	movw	r18, r24
    75f6:	ae 01       	movw	r20, r28
    75f8:	b8 01       	movw	r22, r16
    75fa:	87 ee       	ldi	r24, 0xE7	; 231
    75fc:	9e e6       	ldi	r25, 0x6E	; 110
    75fe:	b3 de       	rcall	.-666    	; 0x7366 <u8g2_DrawGlyph>
    7600:	20 91 53 6f 	lds	r18, 0x6F53	; 0x806f53 <u8g2+0x70>
    7604:	21 30       	cpi	r18, 0x01	; 1
    7606:	59 f0       	breq	.+22     	; 0x761e <u8g2_draw_string.constprop.77+0x72>
    7608:	38 f0       	brcs	.+14     	; 0x7618 <u8g2_draw_string.constprop.77+0x6c>
    760a:	22 30       	cpi	r18, 0x02	; 2
    760c:	59 f0       	breq	.+22     	; 0x7624 <u8g2_draw_string.constprop.77+0x78>
    760e:	23 30       	cpi	r18, 0x03	; 3
    7610:	61 f0       	breq	.+24     	; 0x762a <u8g2_draw_string.constprop.77+0x7e>
    7612:	e8 0e       	add	r14, r24
    7614:	f9 1e       	adc	r15, r25
    7616:	dd cf       	rjmp	.-70     	; 0x75d2 <u8g2_draw_string.constprop.77+0x26>
    7618:	08 0f       	add	r16, r24
    761a:	19 1f       	adc	r17, r25
    761c:	fa cf       	rjmp	.-12     	; 0x7612 <u8g2_draw_string.constprop.77+0x66>
    761e:	c8 0f       	add	r28, r24
    7620:	d9 1f       	adc	r29, r25
    7622:	f7 cf       	rjmp	.-18     	; 0x7612 <u8g2_draw_string.constprop.77+0x66>
    7624:	08 1b       	sub	r16, r24
    7626:	19 0b       	sbc	r17, r25
    7628:	f4 cf       	rjmp	.-24     	; 0x7612 <u8g2_draw_string.constprop.77+0x66>
    762a:	c8 1b       	sub	r28, r24
    762c:	d9 0b       	sbc	r29, r25
    762e:	f1 cf       	rjmp	.-30     	; 0x7612 <u8g2_draw_string.constprop.77+0x66>
    7630:	c7 01       	movw	r24, r14
    7632:	df 91       	pop	r29
    7634:	cf 91       	pop	r28
    7636:	1f 91       	pop	r17
    7638:	0f 91       	pop	r16
    763a:	ff 90       	pop	r15
    763c:	ef 90       	pop	r14
    763e:	df 90       	pop	r13
    7640:	cf 90       	pop	r12
    7642:	08 95       	ret

00007644 <u8g2_send_buffer>:
u8g2_send_buffer():
    7644:	af 92       	push	r10
    7646:	bf 92       	push	r11
    7648:	cf 92       	push	r12
    764a:	df 92       	push	r13
    764c:	ef 92       	push	r14
    764e:	ff 92       	push	r15
    7650:	0f 93       	push	r16
    7652:	1f 93       	push	r17
    7654:	cf 93       	push	r28
    7656:	df 93       	push	r29
    7658:	cd b7       	in	r28, 0x3d	; 61
    765a:	de b7       	in	r29, 0x3e	; 62
    765c:	25 97       	sbiw	r28, 0x05	; 5
    765e:	cd bf       	out	0x3d, r28	; 61
    7660:	de bf       	out	0x3e, r29	; 62
    7662:	8c 01       	movw	r16, r24
    7664:	dc 01       	movw	r26, r24
    7666:	da 96       	adiw	r26, 0x3a	; 58
    7668:	ac 90       	ld	r10, X
    766a:	da 97       	sbiw	r26, 0x3a	; 58
    766c:	db 96       	adiw	r26, 0x3b	; 59
    766e:	ec 90       	ld	r14, X
    7670:	db 97       	sbiw	r26, 0x3b	; 59
    7672:	ed 91       	ld	r30, X+
    7674:	fc 91       	ld	r31, X
    7676:	b1 88       	ldd	r11, Z+17	; 0x11
    7678:	fe 2c       	mov	r15, r14
    767a:	d1 2c       	mov	r13, r1
    767c:	c1 2c       	mov	r12, r1
u8g2_send_tile_row():
    767e:	d8 01       	movw	r26, r16
    7680:	ed 91       	ld	r30, X+
    7682:	fc 91       	ld	r31, X
    7684:	11 97       	sbiw	r26, 0x01	; 1
    7686:	80 89       	ldd	r24, Z+16	; 0x10
    7688:	d8 96       	adiw	r26, 0x38	; 56
    768a:	2d 91       	ld	r18, X+
    768c:	3c 91       	ld	r19, X
u8x8_DrawTile():
    768e:	1c 82       	std	Y+4, r1	; 0x04
    7690:	fd 82       	std	Y+5, r15	; 0x05
    7692:	8b 83       	std	Y+3, r24	; 0x03
u8g2_send_tile_row():
    7694:	b8 e0       	ldi	r27, 0x08	; 8
    7696:	8b 9f       	mul	r24, r27
    7698:	c0 01       	movw	r24, r0
    769a:	11 24       	eor	r1, r1
    769c:	8c 9d       	mul	r24, r12
    769e:	a0 01       	movw	r20, r0
    76a0:	8d 9d       	mul	r24, r13
    76a2:	50 0d       	add	r21, r0
    76a4:	9c 9d       	mul	r25, r12
    76a6:	50 0d       	add	r21, r0
    76a8:	11 24       	eor	r1, r1
    76aa:	24 0f       	add	r18, r20
    76ac:	35 1f       	adc	r19, r21
u8x8_DrawTile():
    76ae:	29 83       	std	Y+1, r18	; 0x01
    76b0:	3a 83       	std	Y+2, r19	; 0x02
    76b2:	d8 01       	movw	r26, r16
    76b4:	14 96       	adiw	r26, 0x04	; 4
    76b6:	ed 91       	ld	r30, X+
    76b8:	fc 91       	ld	r31, X
    76ba:	9e 01       	movw	r18, r28
    76bc:	2f 5f       	subi	r18, 0xFF	; 255
    76be:	3f 4f       	sbci	r19, 0xFF	; 255
    76c0:	41 e0       	ldi	r20, 0x01	; 1
    76c2:	6f e0       	ldi	r22, 0x0F	; 15
    76c4:	c8 01       	movw	r24, r16
    76c6:	09 95       	icall
u8g2_send_buffer():
    76c8:	f3 94       	inc	r15
    76ca:	8f 2d       	mov	r24, r15
    76cc:	8e 19       	sub	r24, r14
    76ce:	8a 15       	cp	r24, r10
    76d0:	28 f4       	brcc	.+10     	; 0x76dc <u8g2_send_buffer+0x98>
    76d2:	bf ef       	ldi	r27, 0xFF	; 255
    76d4:	cb 1a       	sub	r12, r27
    76d6:	db 0a       	sbc	r13, r27
    76d8:	fb 14       	cp	r15, r11
    76da:	88 f2       	brcs	.-94     	; 0x767e <u8g2_send_buffer+0x3a>
    76dc:	25 96       	adiw	r28, 0x05	; 5
    76de:	cd bf       	out	0x3d, r28	; 61
    76e0:	de bf       	out	0x3e, r29	; 62
    76e2:	df 91       	pop	r29
    76e4:	cf 91       	pop	r28
    76e6:	1f 91       	pop	r17
    76e8:	0f 91       	pop	r16
    76ea:	ff 90       	pop	r15
    76ec:	ef 90       	pop	r14
    76ee:	df 90       	pop	r13
    76f0:	cf 90       	pop	r12
    76f2:	bf 90       	pop	r11
    76f4:	af 90       	pop	r10
    76f6:	08 95       	ret

000076f8 <u8g2_SendBuffer.constprop.149>:
u8g2_SendBuffer():
    76f8:	87 ee       	ldi	r24, 0xE7	; 231
    76fa:	9e e6       	ldi	r25, 0x6E	; 110
    76fc:	a3 df       	rcall	.-186    	; 0x7644 <u8g2_send_buffer>
    76fe:	87 ee       	ldi	r24, 0xE7	; 231
    7700:	9e e6       	ldi	r25, 0x6E	; 110
    7702:	0c 94 c1 31 	jmp	0x6382	; 0x6382 <u8x8_RefreshDisplay>

00007706 <u8g2_DrawFrame>:
u8g2_DrawFrame():
    7706:	6f 92       	push	r6
    7708:	7f 92       	push	r7
    770a:	8f 92       	push	r8
    770c:	9f 92       	push	r9
    770e:	af 92       	push	r10
    7710:	bf 92       	push	r11
    7712:	cf 92       	push	r12
    7714:	df 92       	push	r13
    7716:	ef 92       	push	r14
    7718:	ff 92       	push	r15
    771a:	0f 93       	push	r16
    771c:	1f 93       	push	r17
    771e:	cf 93       	push	r28
    7720:	df 93       	push	r29
    7722:	6c 01       	movw	r12, r24
    7724:	5b 01       	movw	r10, r22
    7726:	ea 01       	movw	r28, r20
    7728:	49 01       	movw	r8, r18
    772a:	78 01       	movw	r14, r16
    772c:	3b 01       	movw	r6, r22
    772e:	62 0e       	add	r6, r18
    7730:	73 1e       	adc	r7, r19
    7732:	8a 01       	movw	r16, r20
    7734:	0e 0d       	add	r16, r14
    7736:	1f 1d       	adc	r17, r15
    7738:	93 01       	movw	r18, r6
    773a:	17 d9       	rcall	.-3538   	; 0x696a <u8g2_IsIntersection>
    773c:	88 23       	and	r24, r24
    773e:	31 f1       	breq	.+76     	; 0x778c <u8g2_DrawFrame+0x86>
    7740:	00 e0       	ldi	r16, 0x00	; 0
    7742:	94 01       	movw	r18, r8
    7744:	ae 01       	movw	r20, r28
    7746:	b5 01       	movw	r22, r10
    7748:	c6 01       	movw	r24, r12
    774a:	fa d9       	rcall	.-3084   	; 0x6b40 <u8g2_DrawHVLine>
    774c:	82 e0       	ldi	r24, 0x02	; 2
    774e:	e8 16       	cp	r14, r24
    7750:	f1 04       	cpc	r15, r1
    7752:	e0 f0       	brcs	.+56     	; 0x778c <u8g2_DrawFrame+0x86>
    7754:	82 e0       	ldi	r24, 0x02	; 2
    7756:	e8 1a       	sub	r14, r24
    7758:	f1 08       	sbc	r15, r1
    775a:	21 96       	adiw	r28, 0x01	; 1
    775c:	e1 14       	cp	r14, r1
    775e:	f1 04       	cpc	r15, r1
    7760:	79 f0       	breq	.+30     	; 0x7780 <u8g2_DrawFrame+0x7a>
    7762:	01 e0       	ldi	r16, 0x01	; 1
    7764:	97 01       	movw	r18, r14
    7766:	ae 01       	movw	r20, r28
    7768:	b5 01       	movw	r22, r10
    776a:	c6 01       	movw	r24, r12
    776c:	e9 d9       	rcall	.-3118   	; 0x6b40 <u8g2_DrawHVLine>
    776e:	b3 01       	movw	r22, r6
    7770:	61 50       	subi	r22, 0x01	; 1
    7772:	71 09       	sbc	r23, r1
    7774:	97 01       	movw	r18, r14
    7776:	ae 01       	movw	r20, r28
    7778:	c6 01       	movw	r24, r12
    777a:	e2 d9       	rcall	.-3132   	; 0x6b40 <u8g2_DrawHVLine>
    777c:	ce 0d       	add	r28, r14
    777e:	df 1d       	adc	r29, r15
    7780:	00 e0       	ldi	r16, 0x00	; 0
    7782:	94 01       	movw	r18, r8
    7784:	ae 01       	movw	r20, r28
    7786:	b5 01       	movw	r22, r10
    7788:	c6 01       	movw	r24, r12
    778a:	da d9       	rcall	.-3148   	; 0x6b40 <u8g2_DrawHVLine>
    778c:	df 91       	pop	r29
    778e:	cf 91       	pop	r28
    7790:	1f 91       	pop	r17
    7792:	0f 91       	pop	r16
    7794:	ff 90       	pop	r15
    7796:	ef 90       	pop	r14
    7798:	df 90       	pop	r13
    779a:	cf 90       	pop	r12
    779c:	bf 90       	pop	r11
    779e:	af 90       	pop	r10
    77a0:	9f 90       	pop	r9
    77a2:	8f 90       	pop	r8
    77a4:	7f 90       	pop	r7
    77a6:	6f 90       	pop	r6
    77a8:	08 95       	ret

000077aa <u8g2_DrawBox>:
u8g2_DrawBox():
    77aa:	8f 92       	push	r8
    77ac:	9f 92       	push	r9
    77ae:	af 92       	push	r10
    77b0:	bf 92       	push	r11
    77b2:	cf 92       	push	r12
    77b4:	df 92       	push	r13
    77b6:	ef 92       	push	r14
    77b8:	ff 92       	push	r15
    77ba:	0f 93       	push	r16
    77bc:	1f 93       	push	r17
    77be:	cf 93       	push	r28
    77c0:	df 93       	push	r29
    77c2:	5c 01       	movw	r10, r24
    77c4:	6b 01       	movw	r12, r22
    77c6:	ea 01       	movw	r28, r20
    77c8:	49 01       	movw	r8, r18
    77ca:	7a 01       	movw	r14, r20
    77cc:	e0 0e       	add	r14, r16
    77ce:	f1 1e       	adc	r15, r17
    77d0:	9b 01       	movw	r18, r22
    77d2:	28 0d       	add	r18, r8
    77d4:	39 1d       	adc	r19, r9
    77d6:	87 01       	movw	r16, r14
    77d8:	c8 d8       	rcall	.-3696   	; 0x696a <u8g2_IsIntersection>
    77da:	81 11       	cpse	r24, r1
    77dc:	14 c0       	rjmp	.+40     	; 0x7806 <u8g2_DrawBox+0x5c>
    77de:	df 91       	pop	r29
    77e0:	cf 91       	pop	r28
    77e2:	1f 91       	pop	r17
    77e4:	0f 91       	pop	r16
    77e6:	ff 90       	pop	r15
    77e8:	ef 90       	pop	r14
    77ea:	df 90       	pop	r13
    77ec:	cf 90       	pop	r12
    77ee:	bf 90       	pop	r11
    77f0:	af 90       	pop	r10
    77f2:	9f 90       	pop	r9
    77f4:	8f 90       	pop	r8
    77f6:	08 95       	ret
    77f8:	00 e0       	ldi	r16, 0x00	; 0
    77fa:	94 01       	movw	r18, r8
    77fc:	ae 01       	movw	r20, r28
    77fe:	b6 01       	movw	r22, r12
    7800:	c5 01       	movw	r24, r10
    7802:	9e d9       	rcall	.-3268   	; 0x6b40 <u8g2_DrawHVLine>
    7804:	21 96       	adiw	r28, 0x01	; 1
    7806:	ec 16       	cp	r14, r28
    7808:	fd 06       	cpc	r15, r29
    780a:	b1 f7       	brne	.-20     	; 0x77f8 <u8g2_DrawBox+0x4e>
    780c:	e8 cf       	rjmp	.-48     	; 0x77de <u8g2_DrawBox+0x34>

0000780e <arduino_hw_spi_3w_flush()>:
arduino_hw_spi_3w_flush():
    780e:	80 e0       	ldi	r24, 0x00	; 0
    7810:	90 91 7e 62 	lds	r25, 0x627E	; 0x80627e <arduino_hw_spi_3w_bytepos>
    7814:	98 17       	cp	r25, r24
    7816:	88 f0       	brcs	.+34     	; 0x783a <arduino_hw_spi_3w_flush()+0x2c>
    7818:	e8 2f       	mov	r30, r24
    781a:	f0 e0       	ldi	r31, 0x00	; 0
    781c:	eb 58       	subi	r30, 0x8B	; 139
    781e:	fd 49       	sbci	r31, 0x9D	; 157
    7820:	90 81       	ld	r25, Z
transfer():
    7822:	00 00       	nop
    7824:	e0 91 f4 65 	lds	r30, 0x65F4	; 0x8065f4 <SPI>
    7828:	f0 91 f5 65 	lds	r31, 0x65F5	; 0x8065f5 <SPI+0x1>
    782c:	94 83       	std	Z+4, r25	; 0x04
    782e:	93 81       	ldd	r25, Z+3	; 0x03
    7830:	97 ff       	sbrs	r25, 7
    7832:	fd cf       	rjmp	.-6      	; 0x782e <arduino_hw_spi_3w_flush()+0x20>
    7834:	94 81       	ldd	r25, Z+4	; 0x04
arduino_hw_spi_3w_flush():
    7836:	8f 5f       	subi	r24, 0xFF	; 255
    7838:	eb cf       	rjmp	.-42     	; 0x7810 <arduino_hw_spi_3w_flush()+0x2>
    783a:	08 95       	ret

0000783c <debugUtil::flush()>:
flush():
    783c:	fc 01       	movw	r30, r24
    783e:	84 81       	ldd	r24, Z+4	; 0x04
    7840:	88 23       	and	r24, r24
    7842:	21 f0       	breq	.+8      	; 0x784c <debugUtil::flush()+0x10>
    7844:	81 e4       	ldi	r24, 0x41	; 65
    7846:	94 e6       	ldi	r25, 0x64	; 100
    7848:	0c 94 8d 30 	jmp	0x611a	; 0x611a <UartClass::flush()>
    784c:	08 95       	ret

0000784e <debugUtil::availableForWrite()>:
availableForWrite():
    784e:	fc 01       	movw	r30, r24
    7850:	84 81       	ldd	r24, Z+4	; 0x04
    7852:	88 23       	and	r24, r24
    7854:	21 f0       	breq	.+8      	; 0x785e <debugUtil::availableForWrite()+0x10>
    7856:	81 e4       	ldi	r24, 0x41	; 65
    7858:	94 e6       	ldi	r25, 0x64	; 100
    785a:	0c 94 6b 2e 	jmp	0x5cd6	; 0x5cd6 <UartClass::availableForWrite()>
    785e:	8f ef       	ldi	r24, 0xFF	; 255
    7860:	9f e7       	ldi	r25, 0x7F	; 127
    7862:	08 95       	ret

00007864 <debugUtil::write(unsigned char)>:
write():
    7864:	ef 92       	push	r14
    7866:	ff 92       	push	r15
    7868:	1f 93       	push	r17
    786a:	cf 93       	push	r28
    786c:	df 93       	push	r29
    786e:	7c 01       	movw	r14, r24
    7870:	16 2f       	mov	r17, r22
    7872:	fc 01       	movw	r30, r24
    7874:	84 81       	ldd	r24, Z+4	; 0x04
    7876:	d0 e0       	ldi	r29, 0x00	; 0
    7878:	c0 e0       	ldi	r28, 0x00	; 0
    787a:	88 23       	and	r24, r24
    787c:	31 f0       	breq	.+12     	; 0x788a <debugUtil::write(unsigned char)+0x26>
    787e:	81 e4       	ldi	r24, 0x41	; 65
    7880:	94 e6       	ldi	r25, 0x64	; 100
    7882:	0e 94 41 30 	call	0x6082	; 0x6082 <UartClass::write(unsigned char)>
    7886:	d8 2f       	mov	r29, r24
    7888:	c9 2f       	mov	r28, r25
    788a:	f7 01       	movw	r30, r14
    788c:	85 81       	ldd	r24, Z+5	; 0x05
    788e:	30 e0       	ldi	r19, 0x00	; 0
    7890:	20 e0       	ldi	r18, 0x00	; 0
    7892:	88 23       	and	r24, r24
    7894:	39 f0       	breq	.+14     	; 0x78a4 <debugUtil::write(unsigned char)+0x40>
    7896:	61 2f       	mov	r22, r17
    7898:	83 ed       	ldi	r24, 0xD3	; 211
    789a:	9e e6       	ldi	r25, 0x6E	; 110
    789c:	0e 94 ab 33 	call	0x6756	; 0x6756 <u8log_WriteChar>
    78a0:	21 e0       	ldi	r18, 0x01	; 1
    78a2:	30 e0       	ldi	r19, 0x00	; 0
    78a4:	8d 2f       	mov	r24, r29
    78a6:	9c 2f       	mov	r25, r28
    78a8:	82 17       	cp	r24, r18
    78aa:	93 07       	cpc	r25, r19
    78ac:	08 f4       	brcc	.+2      	; 0x78b0 <debugUtil::write(unsigned char)+0x4c>
    78ae:	c9 01       	movw	r24, r18
    78b0:	df 91       	pop	r29
    78b2:	cf 91       	pop	r28
    78b4:	1f 91       	pop	r17
    78b6:	ff 90       	pop	r15
    78b8:	ef 90       	pop	r14
    78ba:	08 95       	ret

000078bc <UImenu::selectFirstItem()>:
selectFirstItem():
    78bc:	0f 93       	push	r16
    78be:	1f 93       	push	r17
    78c0:	cf 93       	push	r28
    78c2:	df 93       	push	r29
    78c4:	8c 01       	movw	r16, r24
    78c6:	d0 e0       	ldi	r29, 0x00	; 0
    78c8:	c0 e0       	ldi	r28, 0x00	; 0
    78ca:	d8 01       	movw	r26, r16
    78cc:	12 96       	adiw	r26, 0x02	; 2
    78ce:	8c 91       	ld	r24, X
    78d0:	12 97       	sbiw	r26, 0x02	; 2
    78d2:	8c 17       	cp	r24, r28
    78d4:	1d 06       	cpc	r1, r29
    78d6:	a9 f0       	breq	.+42     	; 0x7902 <UImenu::selectFirstItem()+0x46>
    78d8:	a4 f0       	brlt	.+40     	; 0x7902 <UImenu::selectFirstItem()+0x46>
    78da:	ed 91       	ld	r30, X+
    78dc:	fc 91       	ld	r31, X
    78de:	ce 01       	movw	r24, r28
    78e0:	88 0f       	add	r24, r24
    78e2:	99 1f       	adc	r25, r25
    78e4:	e8 0f       	add	r30, r24
    78e6:	f9 1f       	adc	r31, r25
    78e8:	80 81       	ld	r24, Z
    78ea:	91 81       	ldd	r25, Z+1	; 0x01
    78ec:	dc 01       	movw	r26, r24
    78ee:	ed 91       	ld	r30, X+
    78f0:	fc 91       	ld	r31, X
    78f2:	06 80       	ldd	r0, Z+6	; 0x06
    78f4:	f7 81       	ldd	r31, Z+7	; 0x07
    78f6:	e0 2d       	mov	r30, r0
    78f8:	09 95       	icall
    78fa:	88 23       	and	r24, r24
    78fc:	39 f0       	breq	.+14     	; 0x790c <UImenu::selectFirstItem()+0x50>
    78fe:	f8 01       	movw	r30, r16
    7900:	c4 83       	std	Z+4, r28	; 0x04
    7902:	df 91       	pop	r29
    7904:	cf 91       	pop	r28
    7906:	1f 91       	pop	r17
    7908:	0f 91       	pop	r16
    790a:	08 95       	ret
    790c:	21 96       	adiw	r28, 0x01	; 1
    790e:	dd cf       	rjmp	.-70     	; 0x78ca <UImenu::selectFirstItem()+0xe>

00007910 <UIMenuButtonItem::handleUIEvent(K197UIeventsource, K197UIeventType)>:
handleUIEvent():
    7910:	cf 92       	push	r12
    7912:	df 92       	push	r13
    7914:	ef 92       	push	r14
    7916:	ff 92       	push	r15
    7918:	0f 93       	push	r16
    791a:	1f 93       	push	r17
    791c:	cf 93       	push	r28
    791e:	8c 01       	movw	r16, r24
    7920:	6b 01       	movw	r12, r22
    7922:	7a 01       	movw	r14, r20
    7924:	dc 01       	movw	r26, r24
    7926:	ed 91       	ld	r30, X+
    7928:	fc 91       	ld	r31, X
    792a:	06 80       	ldd	r0, Z+6	; 0x06
    792c:	f7 81       	ldd	r31, Z+7	; 0x07
    792e:	e0 2d       	mov	r30, r0
    7930:	09 95       	icall
    7932:	c8 2f       	mov	r28, r24
    7934:	88 23       	and	r24, r24
    7936:	79 f0       	breq	.+30     	; 0x7956 <UIMenuButtonItem::handleUIEvent(K197UIeventsource, K197UIeventType)+0x46>
    7938:	b3 e1       	ldi	r27, 0x13	; 19
    793a:	cb 16       	cp	r12, r27
    793c:	d1 04       	cpc	r13, r1
    793e:	a1 f4       	brne	.+40     	; 0x7968 <UIMenuButtonItem::handleUIEvent(K197UIeventsource, K197UIeventType)+0x58>
    7940:	ea 94       	dec	r14
    7942:	ef 28       	or	r14, r15
    7944:	89 f4       	brne	.+34     	; 0x7968 <UIMenuButtonItem::handleUIEvent(K197UIeventsource, K197UIeventType)+0x58>
    7946:	d8 01       	movw	r26, r16
    7948:	ed 91       	ld	r30, X+
    794a:	fc 91       	ld	r31, X
    794c:	00 84       	ldd	r0, Z+8	; 0x08
    794e:	f1 85       	ldd	r31, Z+9	; 0x09
    7950:	e0 2d       	mov	r30, r0
    7952:	c8 01       	movw	r24, r16
    7954:	09 95       	icall
    7956:	8c 2f       	mov	r24, r28
    7958:	cf 91       	pop	r28
    795a:	1f 91       	pop	r17
    795c:	0f 91       	pop	r16
    795e:	ff 90       	pop	r15
    7960:	ef 90       	pop	r14
    7962:	df 90       	pop	r13
    7964:	cf 90       	pop	r12
    7966:	08 95       	ret
    7968:	c0 e0       	ldi	r28, 0x00	; 0
    796a:	f5 cf       	rjmp	.-22     	; 0x7956 <UIMenuButtonItem::handleUIEvent(K197UIeventsource, K197UIeventType)+0x46>

0000796c <MenuInputByte::handleUIEvent(K197UIeventsource, K197UIeventType)>:
    796c:	fc 01       	movw	r30, r24
    796e:	63 31       	cpi	r22, 0x13	; 19
    7970:	71 05       	cpc	r23, r1
    7972:	39 f1       	breq	.+78     	; 0x79c2 <MenuInputByte::handleUIEvent(K197UIeventsource, K197UIeventType)+0x56>
    7974:	61 31       	cpi	r22, 0x11	; 17
    7976:	71 05       	cpc	r23, r1
    7978:	19 f5       	brne	.+70     	; 0x79c0 <MenuInputByte::handleUIEvent(K197UIeventsource, K197UIeventType)+0x54>
    797a:	42 31       	cpi	r20, 0x12	; 18
    797c:	51 05       	cpc	r21, r1
    797e:	71 f0       	breq	.+28     	; 0x799c <MenuInputByte::handleUIEvent(K197UIeventsource, K197UIeventType)+0x30>
    7980:	68 f5       	brcc	.+90     	; 0x79dc <MenuInputByte::handleUIEvent(K197UIeventsource, K197UIeventType)+0x70>
    7982:	41 31       	cpi	r20, 0x11	; 17
    7984:	51 05       	cpc	r21, r1
    7986:	11 f0       	breq	.+4      	; 0x798c <MenuInputByte::handleUIEvent(K197UIeventsource, K197UIeventType)+0x20>
    7988:	81 e0       	ldi	r24, 0x01	; 1
    798a:	08 95       	ret
    798c:	96 81       	ldd	r25, Z+6	; 0x06
calcIncrement():
    798e:	8f ef       	ldi	r24, 0xFF	; 255
    7990:	89 0f       	add	r24, r25
    7992:	98 17       	cp	r25, r24
    7994:	08 f4       	brcc	.+2      	; 0x7998 <MenuInputByte::handleUIEvent(K197UIeventsource, K197UIeventType)+0x2c>
handleUIEvent():
    7996:	80 e0       	ldi	r24, 0x00	; 0
    7998:	86 83       	std	Z+6, r24	; 0x06
    799a:	f6 cf       	rjmp	.-20     	; 0x7988 <MenuInputByte::handleUIEvent(K197UIeventsource, K197UIeventType)+0x1c>
    799c:	96 81       	ldd	r25, Z+6	; 0x06
calcIncrement():
    799e:	8a e0       	ldi	r24, 0x0A	; 10
    79a0:	63 31       	cpi	r22, 0x13	; 19
    79a2:	71 05       	cpc	r23, r1
    79a4:	41 f0       	breq	.+16     	; 0x79b6 <MenuInputByte::handleUIEvent(K197UIeventsource, K197UIeventType)+0x4a>
    79a6:	86 ef       	ldi	r24, 0xF6	; 246
    79a8:	f3 cf       	rjmp	.-26     	; 0x7990 <MenuInputByte::handleUIEvent(K197UIeventsource, K197UIeventType)+0x24>
handleUIEvent():
    79aa:	96 81       	ldd	r25, Z+6	; 0x06
calcIncrement():
    79ac:	8b ef       	ldi	r24, 0xFB	; 251
    79ae:	63 31       	cpi	r22, 0x13	; 19
    79b0:	71 05       	cpc	r23, r1
    79b2:	71 f7       	brne	.-36     	; 0x7990 <MenuInputByte::handleUIEvent(K197UIeventsource, K197UIeventType)+0x24>
    79b4:	85 e0       	ldi	r24, 0x05	; 5
    79b6:	89 0f       	add	r24, r25
    79b8:	89 17       	cp	r24, r25
    79ba:	70 f7       	brcc	.-36     	; 0x7998 <MenuInputByte::handleUIEvent(K197UIeventsource, K197UIeventType)+0x2c>
handleUIEvent():
    79bc:	8f ef       	ldi	r24, 0xFF	; 255
    79be:	ec cf       	rjmp	.-40     	; 0x7998 <MenuInputByte::handleUIEvent(K197UIeventsource, K197UIeventType)+0x2c>
    79c0:	a7 cf       	rjmp	.-178    	; 0x7910 <UIMenuButtonItem::handleUIEvent(K197UIeventsource, K197UIeventType)>
    79c2:	42 31       	cpi	r20, 0x12	; 18
    79c4:	51 05       	cpc	r21, r1
    79c6:	51 f3       	breq	.-44     	; 0x799c <MenuInputByte::handleUIEvent(K197UIeventsource, K197UIeventType)+0x30>
    79c8:	48 f4       	brcc	.+18     	; 0x79dc <MenuInputByte::handleUIEvent(K197UIeventsource, K197UIeventType)+0x70>
    79ca:	41 31       	cpi	r20, 0x11	; 17
    79cc:	51 05       	cpc	r21, r1
    79ce:	e1 f6       	brne	.-72     	; 0x7988 <MenuInputByte::handleUIEvent(K197UIeventsource, K197UIeventType)+0x1c>
    79d0:	96 81       	ldd	r25, Z+6	; 0x06
calcIncrement():
    79d2:	81 e0       	ldi	r24, 0x01	; 1
    79d4:	89 0f       	add	r24, r25
    79d6:	89 17       	cp	r24, r25
    79d8:	f8 f6       	brcc	.-66     	; 0x7998 <MenuInputByte::handleUIEvent(K197UIeventsource, K197UIeventType)+0x2c>
    79da:	f0 cf       	rjmp	.-32     	; 0x79bc <MenuInputByte::handleUIEvent(K197UIeventsource, K197UIeventType)+0x50>
handleUIEvent():
    79dc:	43 31       	cpi	r20, 0x13	; 19
    79de:	51 05       	cpc	r21, r1
    79e0:	21 f3       	breq	.-56     	; 0x79aa <MenuInputByte::handleUIEvent(K197UIeventsource, K197UIeventType)+0x3e>
    79e2:	44 31       	cpi	r20, 0x14	; 20
    79e4:	51 05       	cpc	r21, r1
    79e6:	81 f6       	brne	.-96     	; 0x7988 <MenuInputByte::handleUIEvent(K197UIeventsource, K197UIeventType)+0x1c>
    79e8:	cf 01       	movw	r24, r30
    79ea:	01 90       	ld	r0, Z+
    79ec:	f0 81       	ld	r31, Z
    79ee:	e0 2d       	mov	r30, r0
    79f0:	00 84       	ldd	r0, Z+8	; 0x08
    79f2:	f1 85       	ldd	r31, Z+9	; 0x09
    79f4:	e0 2d       	mov	r30, r0
    79f6:	09 95       	icall
    79f8:	c7 cf       	rjmp	.-114    	; 0x7988 <MenuInputByte::handleUIEvent(K197UIeventsource, K197UIeventType)+0x1c>

000079fa <MenuInputBool::handleUIEvent(K197UIeventsource, K197UIeventType)>:
    79fa:	9b 01       	movw	r18, r22
    79fc:	2d 7f       	andi	r18, 0xFD	; 253
    79fe:	21 31       	cpi	r18, 0x11	; 17
    7a00:	31 05       	cpc	r19, r1
    7a02:	19 f4       	brne	.+6      	; 0x7a0a <MenuInputBool::handleUIEvent(K197UIeventsource, K197UIeventType)+0x10>
    7a04:	41 30       	cpi	r20, 0x01	; 1
    7a06:	51 05       	cpc	r21, r1
    7a08:	09 f0       	breq	.+2      	; 0x7a0c <MenuInputBool::handleUIEvent(K197UIeventsource, K197UIeventType)+0x12>
    7a0a:	82 cf       	rjmp	.-252    	; 0x7910 <UIMenuButtonItem::handleUIEvent(K197UIeventsource, K197UIeventType)>
    7a0c:	dc 01       	movw	r26, r24
    7a0e:	16 96       	adiw	r26, 0x06	; 6
    7a10:	8c 91       	ld	r24, X
    7a12:	16 97       	sbiw	r26, 0x06	; 6
    7a14:	91 e0       	ldi	r25, 0x01	; 1
    7a16:	89 27       	eor	r24, r25
_ZN13MenuInputBool8setValueEb():
    7a18:	16 96       	adiw	r26, 0x06	; 6
    7a1a:	8c 93       	st	X, r24
    7a1c:	16 97       	sbiw	r26, 0x06	; 6
handleUIEvent():
    7a1e:	ed 91       	ld	r30, X+
    7a20:	fc 91       	ld	r31, X
    7a22:	11 97       	sbiw	r26, 0x01	; 1
    7a24:	00 84       	ldd	r0, Z+8	; 0x08
    7a26:	f1 85       	ldd	r31, Z+9	; 0x09
    7a28:	e0 2d       	mov	r30, r0
    7a2a:	cd 01       	movw	r24, r26
    7a2c:	09 95       	icall
    7a2e:	81 e0       	ldi	r24, 0x01	; 1
    7a30:	08 95       	ret

00007a32 <UIMenuButtonItem::draw(U8G2*, unsigned int, unsigned int, unsigned int, bool)>:
draw():
    7a32:	2f 92       	push	r2
    7a34:	3f 92       	push	r3
    7a36:	4f 92       	push	r4
    7a38:	5f 92       	push	r5
    7a3a:	6f 92       	push	r6
    7a3c:	7f 92       	push	r7
    7a3e:	8f 92       	push	r8
    7a40:	9f 92       	push	r9
    7a42:	af 92       	push	r10
    7a44:	bf 92       	push	r11
    7a46:	cf 92       	push	r12
    7a48:	df 92       	push	r13
    7a4a:	ef 92       	push	r14
    7a4c:	0f 93       	push	r16
    7a4e:	1f 93       	push	r17
    7a50:	cf 93       	push	r28
    7a52:	df 93       	push	r29
    7a54:	4c 01       	movw	r8, r24
    7a56:	eb 01       	movw	r28, r22
    7a58:	5a 01       	movw	r10, r20
    7a5a:	69 01       	movw	r12, r18
    7a5c:	28 01       	movw	r4, r16
    7a5e:	3b 01       	movw	r6, r22
    7a60:	84 e0       	ldi	r24, 0x04	; 4
    7a62:	68 0e       	add	r6, r24
    7a64:	71 1c       	adc	r7, r1
    7a66:	db 01       	movw	r26, r22
    7a68:	a3 59       	subi	r26, 0x93	; 147
    7a6a:	bf 4f       	sbci	r27, 0xFF	; 255
    7a6c:	1d 01       	movw	r2, r26
    7a6e:	ee 20       	and	r14, r14
    7a70:	a1 f0       	breq	.+40     	; 0x7a9a <UIMenuButtonItem::draw(U8G2*, unsigned int, unsigned int, unsigned int, bool)+0x68>
_ZN4U8G212setDrawColorEh():
    7a72:	61 e0       	ldi	r22, 0x01	; 1
    7a74:	c3 01       	movw	r24, r6
    7a76:	5f d8       	rcall	.-3906   	; 0x6b36 <u8g2_SetDrawColor>
u8g2_SetFontMode():
    7a78:	f1 01       	movw	r30, r2
    7a7a:	10 82       	st	Z, r1
draw():
    7a7c:	d4 01       	movw	r26, r8
    7a7e:	ed 91       	ld	r30, X+
    7a80:	fc 91       	ld	r31, X
    7a82:	01 90       	ld	r0, Z+
    7a84:	f0 81       	ld	r31, Z
    7a86:	e0 2d       	mov	r30, r0
    7a88:	61 e0       	ldi	r22, 0x01	; 1
    7a8a:	c4 01       	movw	r24, r8
    7a8c:	09 95       	icall
_ZN4U8G29drawFrameEjjjj():
    7a8e:	8c 01       	movw	r16, r24
    7a90:	92 01       	movw	r18, r4
    7a92:	a6 01       	movw	r20, r12
    7a94:	b5 01       	movw	r22, r10
    7a96:	c3 01       	movw	r24, r6
    7a98:	36 de       	rcall	.-916    	; 0x7706 <u8g2_DrawFrame>
draw():
    7a9a:	0e 94 12 2c 	call	0x5824	; 0x5824 <dxUtilClass::checkFreeStack() [clone .constprop.157]>
u8g2_SetFontMode():
    7a9e:	f1 01       	movw	r30, r2
    7aa0:	10 82       	st	Z, r1
_ZN4U8G212setDrawColorEh():
    7aa2:	61 e0       	ldi	r22, 0x01	; 1
    7aa4:	c3 01       	movw	r24, r6
    7aa6:	47 d8       	rcall	.-3954   	; 0x6b36 <u8g2_SetDrawColor>
_ZN4U8G29setCursorEjj():
    7aa8:	fe 01       	movw	r30, r28
    7aaa:	ee 56       	subi	r30, 0x6E	; 110
    7aac:	ff 4f       	sbci	r31, 0xFF	; 255
draw():
    7aae:	85 e0       	ldi	r24, 0x05	; 5
    7ab0:	a8 0e       	add	r10, r24
    7ab2:	b1 1c       	adc	r11, r1
_ZN4U8G29setCursorEjj():
    7ab4:	a0 82       	st	Z, r10
    7ab6:	b1 82       	std	Z+1, r11	; 0x01
    7ab8:	32 96       	adiw	r30, 0x02	; 2
draw():
    7aba:	92 e0       	ldi	r25, 0x02	; 2
    7abc:	c9 0e       	add	r12, r25
    7abe:	d1 1c       	adc	r13, r1
_ZN4U8G29setCursorEjj():
    7ac0:	c0 82       	st	Z, r12
    7ac2:	d1 82       	std	Z+1, r13	; 0x01
draw():
    7ac4:	d4 01       	movw	r26, r8
    7ac6:	14 96       	adiw	r26, 0x04	; 4
    7ac8:	6d 91       	ld	r22, X+
    7aca:	7c 91       	ld	r23, X
    7acc:	ce 01       	movw	r24, r28
    7ace:	df 91       	pop	r29
    7ad0:	cf 91       	pop	r28
    7ad2:	1f 91       	pop	r17
    7ad4:	0f 91       	pop	r16
    7ad6:	ef 90       	pop	r14
    7ad8:	df 90       	pop	r13
    7ada:	cf 90       	pop	r12
    7adc:	bf 90       	pop	r11
    7ade:	af 90       	pop	r10
    7ae0:	9f 90       	pop	r9
    7ae2:	8f 90       	pop	r8
    7ae4:	7f 90       	pop	r7
    7ae6:	6f 90       	pop	r6
    7ae8:	5f 90       	pop	r5
    7aea:	4f 90       	pop	r4
    7aec:	3f 90       	pop	r3
    7aee:	2f 90       	pop	r2
    7af0:	0c 94 1a 2e 	jmp	0x5c34	; 0x5c34 <Print::print(__FlashStringHelper const*)>

00007af4 <MenuInputBool::draw(U8G2*, unsigned int, unsigned int, unsigned int, bool)>:
    7af4:	4f 92       	push	r4
    7af6:	5f 92       	push	r5
    7af8:	6f 92       	push	r6
    7afa:	7f 92       	push	r7
    7afc:	8f 92       	push	r8
    7afe:	9f 92       	push	r9
    7b00:	af 92       	push	r10
    7b02:	bf 92       	push	r11
    7b04:	cf 92       	push	r12
    7b06:	df 92       	push	r13
    7b08:	ef 92       	push	r14
    7b0a:	ff 92       	push	r15
    7b0c:	0f 93       	push	r16
    7b0e:	1f 93       	push	r17
    7b10:	cf 93       	push	r28
    7b12:	df 93       	push	r29
    7b14:	3c 01       	movw	r6, r24
    7b16:	6b 01       	movw	r12, r22
    7b18:	4a 01       	movw	r8, r20
    7b1a:	e9 01       	movw	r28, r18
    7b1c:	58 01       	movw	r10, r16
    7b1e:	89 df       	rcall	.-238    	; 0x7a32 <UIMenuButtonItem::draw(U8G2*, unsigned int, unsigned int, unsigned int, bool)>
_ZN4U8G212setDrawColorEh():
    7b20:	76 01       	movw	r14, r12
    7b22:	84 e0       	ldi	r24, 0x04	; 4
    7b24:	e8 0e       	add	r14, r24
    7b26:	f1 1c       	adc	r15, r1
    7b28:	61 e0       	ldi	r22, 0x01	; 1
    7b2a:	c7 01       	movw	r24, r14
    7b2c:	04 d8       	rcall	.-4088   	; 0x6b36 <u8g2_SetDrawColor>
u8g2_SetFontMode():
    7b2e:	f6 01       	movw	r30, r12
    7b30:	e3 59       	subi	r30, 0x93	; 147
    7b32:	ff 4f       	sbci	r31, 0xFF	; 255
    7b34:	10 82       	st	Z, r1
draw():
    7b36:	a8 0c       	add	r10, r8
    7b38:	b9 1c       	adc	r11, r9
    7b3a:	65 01       	movw	r12, r10
    7b3c:	ef e0       	ldi	r30, 0x0F	; 15
    7b3e:	ce 1a       	sub	r12, r30
    7b40:	d1 08       	sbc	r13, r1
    7b42:	2e 01       	movw	r4, r28
    7b44:	f2 e0       	ldi	r31, 0x02	; 2
    7b46:	4f 0e       	add	r4, r31
    7b48:	51 1c       	adc	r5, r1
_ZN4U8G29drawFrameEjjjj():
    7b4a:	0a e0       	ldi	r16, 0x0A	; 10
    7b4c:	10 e0       	ldi	r17, 0x00	; 0
    7b4e:	2a e0       	ldi	r18, 0x0A	; 10
    7b50:	30 e0       	ldi	r19, 0x00	; 0
    7b52:	a2 01       	movw	r20, r4
    7b54:	b6 01       	movw	r22, r12
    7b56:	c7 01       	movw	r24, r14
    7b58:	d6 dd       	rcall	.-1108   	; 0x7706 <u8g2_DrawFrame>
draw():
    7b5a:	f3 01       	movw	r30, r6
    7b5c:	86 81       	ldd	r24, Z+6	; 0x06
    7b5e:	88 23       	and	r24, r24
    7b60:	81 f0       	breq	.+32     	; 0x7b82 <MenuInputBool::draw(U8G2*, unsigned int, unsigned int, unsigned int, bool)+0x8e>
    7b62:	2c 96       	adiw	r28, 0x0c	; 12
    7b64:	f5 e0       	ldi	r31, 0x05	; 5
    7b66:	af 1a       	sub	r10, r31
    7b68:	b1 08       	sbc	r11, r1
_ZN4U8G28drawLineEjjjj():
    7b6a:	8e 01       	movw	r16, r28
    7b6c:	95 01       	movw	r18, r10
    7b6e:	a2 01       	movw	r20, r4
    7b70:	b6 01       	movw	r22, r12
    7b72:	c7 01       	movw	r24, r14
    7b74:	b1 d8       	rcall	.-3742   	; 0x6cd8 <u8g2_DrawLine>
    7b76:	82 01       	movw	r16, r4
    7b78:	95 01       	movw	r18, r10
    7b7a:	ae 01       	movw	r20, r28
    7b7c:	b6 01       	movw	r22, r12
    7b7e:	c7 01       	movw	r24, r14
    7b80:	ab d8       	rcall	.-3754   	; 0x6cd8 <u8g2_DrawLine>
draw():
    7b82:	df 91       	pop	r29
    7b84:	cf 91       	pop	r28
    7b86:	1f 91       	pop	r17
    7b88:	0f 91       	pop	r16
    7b8a:	ff 90       	pop	r15
    7b8c:	ef 90       	pop	r14
    7b8e:	df 90       	pop	r13
    7b90:	cf 90       	pop	r12
    7b92:	bf 90       	pop	r11
    7b94:	af 90       	pop	r10
    7b96:	9f 90       	pop	r9
    7b98:	8f 90       	pop	r8
    7b9a:	7f 90       	pop	r7
    7b9c:	6f 90       	pop	r6
    7b9e:	5f 90       	pop	r5
    7ba0:	4f 90       	pop	r4
    7ba2:	08 95       	ret

00007ba4 <UIMenuSeparator::draw(U8G2*, unsigned int, unsigned int, unsigned int, bool)>:
    7ba4:	cf 92       	push	r12
    7ba6:	df 92       	push	r13
    7ba8:	ef 92       	push	r14
    7baa:	ff 92       	push	r15
    7bac:	0f 93       	push	r16
    7bae:	1f 93       	push	r17
    7bb0:	cf 93       	push	r28
    7bb2:	df 93       	push	r29
    7bb4:	6c 01       	movw	r12, r24
    7bb6:	eb 01       	movw	r28, r22
    7bb8:	7a 01       	movw	r14, r20
    7bba:	89 01       	movw	r16, r18
u8g2_SetFontMode():
    7bbc:	fb 01       	movw	r30, r22
    7bbe:	e3 59       	subi	r30, 0x93	; 147
    7bc0:	ff 4f       	sbci	r31, 0xFF	; 255
    7bc2:	10 82       	st	Z, r1
_ZN4U8G212setDrawColorEh():
    7bc4:	61 e0       	ldi	r22, 0x01	; 1
    7bc6:	ce 01       	movw	r24, r28
    7bc8:	04 96       	adiw	r24, 0x04	; 4
    7bca:	0e 94 9b 35 	call	0x6b36	; 0x6b36 <u8g2_SetDrawColor>
_ZN4U8G29setCursorEjj():
    7bce:	fe 01       	movw	r30, r28
    7bd0:	ee 56       	subi	r30, 0x6E	; 110
    7bd2:	ff 4f       	sbci	r31, 0xFF	; 255
draw():
    7bd4:	85 e0       	ldi	r24, 0x05	; 5
    7bd6:	e8 0e       	add	r14, r24
    7bd8:	f1 1c       	adc	r15, r1
_ZN4U8G29setCursorEjj():
    7bda:	e0 82       	st	Z, r14
    7bdc:	f1 82       	std	Z+1, r15	; 0x01
    7bde:	32 96       	adiw	r30, 0x02	; 2
draw():
    7be0:	0e 5f       	subi	r16, 0xFE	; 254
    7be2:	1f 4f       	sbci	r17, 0xFF	; 255
_ZN4U8G29setCursorEjj():
    7be4:	00 83       	st	Z, r16
    7be6:	11 83       	std	Z+1, r17	; 0x01
draw():
    7be8:	f6 01       	movw	r30, r12
    7bea:	64 81       	ldd	r22, Z+4	; 0x04
    7bec:	75 81       	ldd	r23, Z+5	; 0x05
    7bee:	ce 01       	movw	r24, r28
    7bf0:	df 91       	pop	r29
    7bf2:	cf 91       	pop	r28
    7bf4:	1f 91       	pop	r17
    7bf6:	0f 91       	pop	r16
    7bf8:	ff 90       	pop	r15
    7bfa:	ef 90       	pop	r14
    7bfc:	df 90       	pop	r13
    7bfe:	cf 90       	pop	r12
    7c00:	0c 94 1a 2e 	jmp	0x5c34	; 0x5c34 <Print::print(__FlashStringHelper const*)>

00007c04 <UImenuItem::handleUIEvent(K197UIeventsource, K197UIeventType)>:
handleUIEvent():
    7c04:	80 e0       	ldi	r24, 0x00	; 0
    7c06:	08 95       	ret

00007c08 <logU2U()>:
logU2U():
    7c08:	80 91 73 6e 	lds	r24, 0x6E73	; 0x806e73 <logSplitUnit+0x6>
    7c0c:	88 23       	and	r24, r24
    7c0e:	31 f0       	breq	.+12     	; 0x7c1c <logU2U()+0x14>
    7c10:	6f e3       	ldi	r22, 0x3F	; 63
    7c12:	75 e0       	ldi	r23, 0x05	; 5
    7c14:	81 e4       	ldi	r24, 0x41	; 65
    7c16:	94 e6       	ldi	r25, 0x64	; 100
    7c18:	0c 94 1a 2e 	jmp	0x5c34	; 0x5c34 <Print::print(__FlashStringHelper const*)>
    7c1c:	60 e2       	ldi	r22, 0x20	; 32
    7c1e:	81 e4       	ldi	r24, 0x41	; 65
    7c20:	94 e6       	ldi	r25, 0x64	; 100
    7c22:	0c 94 13 2e 	jmp	0x5c26	; 0x5c26 <Print::print(char)>

00007c26 <__class_logStatSamples::change()>:
change():
    7c26:	fc 01       	movw	r30, r24
    7c28:	86 81       	ldd	r24, Z+6	; 0x06
_ZN10K197device11setNsamplesEh():
    7c2a:	80 93 ab 6f 	sts	0x6FAB, r24	; 0x806fab <k197dev+0x15>
change():
    7c2e:	08 95       	ret

00007c30 <__class_contrastCtrl::change()>:
u8x8_SetContrast():
    7c30:	e0 91 eb 6e 	lds	r30, 0x6EEB	; 0x806eeb <u8g2+0x8>
    7c34:	f0 91 ec 6e 	lds	r31, 0x6EEC	; 0x806eec <u8g2+0x9>
    7c38:	30 e0       	ldi	r19, 0x00	; 0
    7c3a:	20 e0       	ldi	r18, 0x00	; 0
    7c3c:	dc 01       	movw	r26, r24
    7c3e:	16 96       	adiw	r26, 0x06	; 6
    7c40:	4c 91       	ld	r20, X
    7c42:	6e e0       	ldi	r22, 0x0E	; 14
    7c44:	87 ee       	ldi	r24, 0xE7	; 231
    7c46:	9e e6       	ldi	r25, 0x6E	; 110
    7c48:	09 94       	ijmp

00007c4a <UIMenuActionOpen::change()>:
change():
    7c4a:	fc 01       	movw	r30, r24
    7c4c:	a6 81       	ldd	r26, Z+6	; 0x06
    7c4e:	b7 81       	ldd	r27, Z+7	; 0x07
_ZN6UImenu14getCurrentMenuEv():
    7c50:	eb e8       	ldi	r30, 0x8B	; 139
    7c52:	ff e6       	ldi	r31, 0x6F	; 111
_ZN6UImenu8openMenuEPS_():
    7c54:	80 81       	ld	r24, Z
    7c56:	91 81       	ldd	r25, Z+1	; 0x01
    7c58:	17 96       	adiw	r26, 0x07	; 7
    7c5a:	8d 93       	st	X+, r24
    7c5c:	9c 93       	st	X, r25
    7c5e:	18 97       	sbiw	r26, 0x08	; 8
    7c60:	a0 83       	st	Z, r26
    7c62:	b1 83       	std	Z+1, r27	; 0x01
change():
    7c64:	08 95       	ret

00007c66 <UIMenuActionClose::change()>:
_ZN6UImenu14getCurrentMenuEv():
    7c66:	e0 91 8b 6f 	lds	r30, 0x6F8B	; 0x806f8b <UImenu::currentMenu>
    7c6a:	f0 91 8c 6f 	lds	r31, 0x6F8C	; 0x806f8c <UImenu::currentMenu+0x1>
_ZN6UImenu9closeMenuEv.isra.4():
    7c6e:	87 81       	ldd	r24, Z+7	; 0x07
    7c70:	90 85       	ldd	r25, Z+8	; 0x08
    7c72:	00 97       	sbiw	r24, 0x00	; 0
    7c74:	31 f0       	breq	.+12     	; 0x7c82 <UIMenuActionClose::change()+0x1c>
    7c76:	80 93 8b 6f 	sts	0x6F8B, r24	; 0x806f8b <UImenu::currentMenu>
    7c7a:	90 93 8c 6f 	sts	0x6F8C, r25	; 0x806f8c <UImenu::currentMenu+0x1>
    7c7e:	17 82       	std	Z+7, r1	; 0x07
    7c80:	10 86       	std	Z+8, r1	; 0x08
change():
    7c82:	08 95       	ret

00007c84 <MenuInputByte::getHeight(bool)>:
getHeight():
    7c84:	fc 01       	movw	r30, r24
    7c86:	82 81       	ldd	r24, Z+2	; 0x02
    7c88:	93 81       	ldd	r25, Z+3	; 0x03
    7c8a:	66 23       	and	r22, r22
    7c8c:	11 f0       	breq	.+4      	; 0x7c92 <MenuInputByte::getHeight(bool)+0xe>
    7c8e:	88 0f       	add	r24, r24
    7c90:	99 1f       	adc	r25, r25
    7c92:	08 95       	ret

00007c94 <UIMenuSeparator::selectable()>:
selectable():
    7c94:	80 e0       	ldi	r24, 0x00	; 0
    7c96:	08 95       	ret

00007c98 <UImenuItem::change()>:
flush():
    7c98:	08 95       	ret

00007c9a <UImenuItem::getHeight(bool)>:
getHeight():
    7c9a:	fc 01       	movw	r30, r24
    7c9c:	82 81       	ldd	r24, Z+2	; 0x02
    7c9e:	93 81       	ldd	r25, Z+3	; 0x03
    7ca0:	08 95       	ret

00007ca2 <U8G2LOG::write(unsigned char const*, unsigned int)>:
write():
    7ca2:	cf 92       	push	r12
    7ca4:	df 92       	push	r13
    7ca6:	ef 92       	push	r14
    7ca8:	ff 92       	push	r15
    7caa:	0f 93       	push	r16
    7cac:	1f 93       	push	r17
    7cae:	cf 93       	push	r28
    7cb0:	df 93       	push	r29
    7cb2:	6c 01       	movw	r12, r24
    7cb4:	eb 01       	movw	r28, r22
    7cb6:	7b 01       	movw	r14, r22
    7cb8:	e4 0e       	add	r14, r20
    7cba:	f5 1e       	adc	r15, r21
    7cbc:	10 e0       	ldi	r17, 0x00	; 0
    7cbe:	00 e0       	ldi	r16, 0x00	; 0
    7cc0:	ce 15       	cp	r28, r14
    7cc2:	df 05       	cpc	r29, r15
    7cc4:	61 f0       	breq	.+24     	; 0x7cde <U8G2LOG::write(unsigned char const*, unsigned int)+0x3c>
    7cc6:	69 91       	ld	r22, Y+
    7cc8:	d6 01       	movw	r26, r12
    7cca:	ed 91       	ld	r30, X+
    7ccc:	fc 91       	ld	r31, X
    7cce:	01 90       	ld	r0, Z+
    7cd0:	f0 81       	ld	r31, Z
    7cd2:	e0 2d       	mov	r30, r0
    7cd4:	c6 01       	movw	r24, r12
    7cd6:	09 95       	icall
    7cd8:	08 0f       	add	r16, r24
    7cda:	19 1f       	adc	r17, r25
    7cdc:	f1 cf       	rjmp	.-30     	; 0x7cc0 <U8G2LOG::write(unsigned char const*, unsigned int)+0x1e>
    7cde:	c8 01       	movw	r24, r16
    7ce0:	df 91       	pop	r29
    7ce2:	cf 91       	pop	r28
    7ce4:	1f 91       	pop	r17
    7ce6:	0f 91       	pop	r16
    7ce8:	ff 90       	pop	r15
    7cea:	ef 90       	pop	r14
    7cec:	df 90       	pop	r13
    7cee:	cf 90       	pop	r12
    7cf0:	08 95       	ret

00007cf2 <debugUtil::write(unsigned char const*, unsigned int)>:
    7cf2:	cf 92       	push	r12
    7cf4:	df 92       	push	r13
    7cf6:	ef 92       	push	r14
    7cf8:	ff 92       	push	r15
    7cfa:	0f 93       	push	r16
    7cfc:	1f 93       	push	r17
    7cfe:	cf 93       	push	r28
    7d00:	df 93       	push	r29
    7d02:	6c 01       	movw	r12, r24
    7d04:	8b 01       	movw	r16, r22
    7d06:	7a 01       	movw	r14, r20
    7d08:	fc 01       	movw	r30, r24
    7d0a:	84 81       	ldd	r24, Z+4	; 0x04
    7d0c:	d0 e0       	ldi	r29, 0x00	; 0
    7d0e:	c0 e0       	ldi	r28, 0x00	; 0
    7d10:	88 23       	and	r24, r24
    7d12:	31 f0       	breq	.+12     	; 0x7d20 <debugUtil::write(unsigned char const*, unsigned int)+0x2e>
    7d14:	81 e4       	ldi	r24, 0x41	; 65
    7d16:	94 e6       	ldi	r25, 0x64	; 100
    7d18:	0e 94 3e 2e 	call	0x5c7c	; 0x5c7c <Print::write(unsigned char const*, unsigned int)>
    7d1c:	d8 2f       	mov	r29, r24
    7d1e:	c9 2f       	mov	r28, r25
    7d20:	f6 01       	movw	r30, r12
    7d22:	85 81       	ldd	r24, Z+5	; 0x05
    7d24:	30 e0       	ldi	r19, 0x00	; 0
    7d26:	20 e0       	ldi	r18, 0x00	; 0
    7d28:	88 23       	and	r24, r24
    7d2a:	31 f0       	breq	.+12     	; 0x7d38 <debugUtil::write(unsigned char const*, unsigned int)+0x46>
    7d2c:	a7 01       	movw	r20, r14
    7d2e:	b8 01       	movw	r22, r16
    7d30:	8f ec       	ldi	r24, 0xCF	; 207
    7d32:	9e e6       	ldi	r25, 0x6E	; 110
    7d34:	b6 df       	rcall	.-148    	; 0x7ca2 <U8G2LOG::write(unsigned char const*, unsigned int)>
    7d36:	9c 01       	movw	r18, r24
    7d38:	8d 2f       	mov	r24, r29
    7d3a:	9c 2f       	mov	r25, r28
    7d3c:	82 17       	cp	r24, r18
    7d3e:	93 07       	cpc	r25, r19
    7d40:	08 f4       	brcc	.+2      	; 0x7d44 <debugUtil::write(unsigned char const*, unsigned int)+0x52>
    7d42:	c9 01       	movw	r24, r18
    7d44:	df 91       	pop	r29
    7d46:	cf 91       	pop	r28
    7d48:	1f 91       	pop	r17
    7d4a:	0f 91       	pop	r16
    7d4c:	ff 90       	pop	r15
    7d4e:	ef 90       	pop	r14
    7d50:	df 90       	pop	r13
    7d52:	cf 90       	pop	r12
    7d54:	08 95       	ret

00007d56 <U8G2LOG::write(unsigned char)>:
    7d56:	04 96       	adiw	r24, 0x04	; 4
    7d58:	0e 94 ab 33 	call	0x6756	; 0x6756 <u8log_WriteChar>
    7d5c:	81 e0       	ldi	r24, 0x01	; 1
    7d5e:	90 e0       	ldi	r25, 0x00	; 0
    7d60:	08 95       	ret

00007d62 <U8G2::write(unsigned char const*, unsigned int)>:
    7d62:	cf 92       	push	r12
    7d64:	df 92       	push	r13
    7d66:	ef 92       	push	r14
    7d68:	ff 92       	push	r15
    7d6a:	0f 93       	push	r16
    7d6c:	1f 93       	push	r17
    7d6e:	cf 93       	push	r28
    7d70:	df 93       	push	r29
    7d72:	6c 01       	movw	r12, r24
    7d74:	eb 01       	movw	r28, r22
    7d76:	7b 01       	movw	r14, r22
    7d78:	e4 0e       	add	r14, r20
    7d7a:	f5 1e       	adc	r15, r21
    7d7c:	10 e0       	ldi	r17, 0x00	; 0
    7d7e:	00 e0       	ldi	r16, 0x00	; 0
    7d80:	ce 15       	cp	r28, r14
    7d82:	df 05       	cpc	r29, r15
    7d84:	61 f0       	breq	.+24     	; 0x7d9e <U8G2::write(unsigned char const*, unsigned int)+0x3c>
    7d86:	69 91       	ld	r22, Y+
    7d88:	d6 01       	movw	r26, r12
    7d8a:	ed 91       	ld	r30, X+
    7d8c:	fc 91       	ld	r31, X
    7d8e:	01 90       	ld	r0, Z+
    7d90:	f0 81       	ld	r31, Z
    7d92:	e0 2d       	mov	r30, r0
    7d94:	c6 01       	movw	r24, r12
    7d96:	09 95       	icall
    7d98:	08 0f       	add	r16, r24
    7d9a:	19 1f       	adc	r17, r25
    7d9c:	f1 cf       	rjmp	.-30     	; 0x7d80 <U8G2::write(unsigned char const*, unsigned int)+0x1e>
    7d9e:	c8 01       	movw	r24, r16
    7da0:	df 91       	pop	r29
    7da2:	cf 91       	pop	r28
    7da4:	1f 91       	pop	r17
    7da6:	0f 91       	pop	r16
    7da8:	ff 90       	pop	r15
    7daa:	ef 90       	pop	r14
    7dac:	df 90       	pop	r13
    7dae:	cf 90       	pop	r12
    7db0:	08 95       	ret

00007db2 <U8G2::write(unsigned char)>:
    7db2:	cf 92       	push	r12
    7db4:	df 92       	push	r13
    7db6:	ef 92       	push	r14
    7db8:	ff 92       	push	r15
    7dba:	0f 93       	push	r16
    7dbc:	1f 93       	push	r17
    7dbe:	cf 93       	push	r28
    7dc0:	df 93       	push	r29
    7dc2:	ec 01       	movw	r28, r24
    7dc4:	6c 01       	movw	r12, r24
    7dc6:	24 e0       	ldi	r18, 0x04	; 4
    7dc8:	c2 0e       	add	r12, r18
    7dca:	d1 1c       	adc	r13, r1
    7dcc:	fc 01       	movw	r30, r24
    7dce:	e0 57       	subi	r30, 0x70	; 112
    7dd0:	ff 4f       	sbci	r31, 0xFF	; 255
    7dd2:	01 90       	ld	r0, Z+
    7dd4:	f0 81       	ld	r31, Z
    7dd6:	e0 2d       	mov	r30, r0
    7dd8:	c6 01       	movw	r24, r12
    7dda:	09 95       	icall
    7ddc:	8e 3f       	cpi	r24, 0xFE	; 254
    7dde:	ef ef       	ldi	r30, 0xFF	; 255
    7de0:	9e 07       	cpc	r25, r30
    7de2:	d0 f4       	brcc	.+52     	; 0x7e18 <U8G2::write(unsigned char)+0x66>
    7de4:	8e 01       	movw	r16, r28
    7de6:	0c 56       	subi	r16, 0x6C	; 108
    7de8:	1f 4f       	sbci	r17, 0xFF	; 255
    7dea:	f8 01       	movw	r30, r16
    7dec:	40 81       	ld	r20, Z
    7dee:	51 81       	ldd	r21, Z+1	; 0x01
    7df0:	7e 01       	movw	r14, r28
    7df2:	f2 e9       	ldi	r31, 0x92	; 146
    7df4:	ef 0e       	add	r14, r31
    7df6:	f1 1c       	adc	r15, r1
    7df8:	f7 01       	movw	r30, r14
    7dfa:	60 81       	ld	r22, Z
    7dfc:	71 81       	ldd	r23, Z+1	; 0x01
    7dfe:	9c 01       	movw	r18, r24
    7e00:	c6 01       	movw	r24, r12
    7e02:	b1 da       	rcall	.-2718   	; 0x7366 <u8g2_DrawGlyph>
    7e04:	c0 59       	subi	r28, 0x90	; 144
    7e06:	df 4f       	sbci	r29, 0xFF	; 255
    7e08:	28 81       	ld	r18, Y
    7e0a:	21 30       	cpi	r18, 0x01	; 1
    7e0c:	c1 f0       	breq	.+48     	; 0x7e3e <U8G2::write(unsigned char)+0x8c>
    7e0e:	78 f0       	brcs	.+30     	; 0x7e2e <U8G2::write(unsigned char)+0x7c>
    7e10:	22 30       	cpi	r18, 0x02	; 2
    7e12:	b9 f0       	breq	.+46     	; 0x7e42 <U8G2::write(unsigned char)+0x90>
    7e14:	23 30       	cpi	r18, 0x03	; 3
    7e16:	e9 f0       	breq	.+58     	; 0x7e52 <U8G2::write(unsigned char)+0xa0>
    7e18:	81 e0       	ldi	r24, 0x01	; 1
    7e1a:	90 e0       	ldi	r25, 0x00	; 0
    7e1c:	df 91       	pop	r29
    7e1e:	cf 91       	pop	r28
    7e20:	1f 91       	pop	r17
    7e22:	0f 91       	pop	r16
    7e24:	ff 90       	pop	r15
    7e26:	ef 90       	pop	r14
    7e28:	df 90       	pop	r13
    7e2a:	cf 90       	pop	r12
    7e2c:	08 95       	ret
    7e2e:	f7 01       	movw	r30, r14
    7e30:	20 81       	ld	r18, Z
    7e32:	31 81       	ldd	r19, Z+1	; 0x01
    7e34:	82 0f       	add	r24, r18
    7e36:	93 1f       	adc	r25, r19
    7e38:	80 83       	st	Z, r24
    7e3a:	91 83       	std	Z+1, r25	; 0x01
    7e3c:	ed cf       	rjmp	.-38     	; 0x7e18 <U8G2::write(unsigned char)+0x66>
    7e3e:	f8 01       	movw	r30, r16
    7e40:	f7 cf       	rjmp	.-18     	; 0x7e30 <U8G2::write(unsigned char)+0x7e>
    7e42:	f7 01       	movw	r30, r14
    7e44:	20 81       	ld	r18, Z
    7e46:	31 81       	ldd	r19, Z+1	; 0x01
    7e48:	28 1b       	sub	r18, r24
    7e4a:	39 0b       	sbc	r19, r25
    7e4c:	20 83       	st	Z, r18
    7e4e:	31 83       	std	Z+1, r19	; 0x01
    7e50:	e3 cf       	rjmp	.-58     	; 0x7e18 <U8G2::write(unsigned char)+0x66>
    7e52:	f8 01       	movw	r30, r16
    7e54:	f7 cf       	rjmp	.-18     	; 0x7e44 <U8G2::write(unsigned char)+0x92>

00007e56 <Print::availableForWrite()>:
availableForWrite():
    7e56:	90 e0       	ldi	r25, 0x00	; 0
    7e58:	80 e0       	ldi	r24, 0x00	; 0
    7e5a:	08 95       	ret

00007e5c <fifo_pull()>:
fifo_isEmpty():
    7e5c:	e0 91 74 62 	lds	r30, 0x6274	; 0x806274 <__data_end>
    7e60:	0e 2e       	mov	r0, r30
    7e62:	00 0c       	add	r0, r0
    7e64:	ff 0b       	sbc	r31, r31
    7e66:	e5 5d       	subi	r30, 0xD5	; 213
    7e68:	ff 49       	sbci	r31, 0x9F	; 159
    7e6a:	80 81       	ld	r24, Z
fifo_pull():
    7e6c:	8f 3f       	cpi	r24, 0xFF	; 255
    7e6e:	c1 f0       	breq	.+48     	; 0x7ea0 <fifo_pull()+0x44>
    7e70:	e0 91 74 62 	lds	r30, 0x6274	; 0x806274 <__data_end>
    7e74:	0e 2e       	mov	r0, r30
    7e76:	00 0c       	add	r0, r0
    7e78:	ff 0b       	sbc	r31, r31
    7e7a:	e5 5d       	subi	r30, 0xD5	; 213
    7e7c:	ff 49       	sbci	r31, 0x9F	; 159
    7e7e:	80 81       	ld	r24, Z
    7e80:	e0 91 74 62 	lds	r30, 0x6274	; 0x806274 <__data_end>
    7e84:	0e 2e       	mov	r0, r30
    7e86:	00 0c       	add	r0, r0
    7e88:	ff 0b       	sbc	r31, r31
    7e8a:	e5 5d       	subi	r30, 0xD5	; 213
    7e8c:	ff 49       	sbci	r31, 0x9F	; 159
    7e8e:	9f ef       	ldi	r25, 0xFF	; 255
    7e90:	90 83       	st	Z, r25
    7e92:	90 91 74 62 	lds	r25, 0x6274	; 0x806274 <__data_end>
    7e96:	9f 5f       	subi	r25, 0xFF	; 255
    7e98:	97 70       	andi	r25, 0x07	; 7
    7e9a:	90 93 74 62 	sts	0x6274, r25	; 0x806274 <__data_end>
    7e9e:	08 95       	ret
    7ea0:	8f ef       	ldi	r24, 0xFF	; 255
    7ea2:	08 95       	ret

00007ea4 <fifo_push(unsigned char)>:
fifo_push():
    7ea4:	9f b3       	in	r25, 0x1f	; 31
    7ea6:	9f 5f       	subi	r25, 0xFF	; 255
    7ea8:	97 70       	andi	r25, 0x07	; 7
    7eaa:	9f bb       	out	0x1f, r25	; 31
    7eac:	ef b3       	in	r30, 0x1f	; 31
    7eae:	f0 e0       	ldi	r31, 0x00	; 0
    7eb0:	e5 5d       	subi	r30, 0xD5	; 213
    7eb2:	ff 49       	sbci	r31, 0x9F	; 159
    7eb4:	80 83       	st	Z, r24
    7eb6:	08 95       	ret

00007eb8 <CCL_interrupt_handler()>:
CCL_interrupt_handler():
    7eb8:	9e b1       	in	r25, 0x0e	; 14
    7eba:	86 b3       	in	r24, 0x16	; 22
    7ebc:	90 7a       	andi	r25, 0xA0	; 160
    7ebe:	83 70       	andi	r24, 0x03	; 3
    7ec0:	89 2b       	or	r24, r25
    7ec2:	f0 cf       	rjmp	.-32     	; 0x7ea4 <fifo_push(unsigned char)>

00007ec4 <invoke_callback(int, K197UIeventType)>:
invoke_callback():
    7ec4:	20 91 a1 62 	lds	r18, 0x62A1	; 0x8062a1 <callBack>
    7ec8:	30 91 a2 62 	lds	r19, 0x62A2	; 0x8062a2 <callBack+0x1>
    7ecc:	21 15       	cp	r18, r1
    7ece:	31 05       	cpc	r19, r1
    7ed0:	39 f0       	breq	.+14     	; 0x7ee0 <invoke_callback(int, K197UIeventType)+0x1c>
    7ed2:	8e 5e       	subi	r24, 0xEE	; 238
    7ed4:	96 4f       	sbci	r25, 0xF6	; 246
    7ed6:	fc 01       	movw	r30, r24
    7ed8:	84 91       	lpm	r24, Z
    7eda:	90 e0       	ldi	r25, 0x00	; 0
    7edc:	f9 01       	movw	r30, r18
    7ede:	09 94       	ijmp
    7ee0:	08 95       	ret

00007ee2 <k197ButtonCluster::checkNew(unsigned char, unsigned char, unsigned long) [clone .constprop.90]>:
checkNew():
    7ee2:	cf 92       	push	r12
    7ee4:	df 92       	push	r13
    7ee6:	ef 92       	push	r14
    7ee8:	ff 92       	push	r15
    7eea:	0f 93       	push	r16
    7eec:	1f 93       	push	r17
    7eee:	cf 93       	push	r28
    7ef0:	df 93       	push	r29
    7ef2:	c8 2f       	mov	r28, r24
    7ef4:	d0 e0       	ldi	r29, 0x00	; 0
    7ef6:	fe 01       	movw	r30, r28
    7ef8:	ed 5c       	subi	r30, 0xCD	; 205
    7efa:	ff 49       	sbci	r31, 0x9F	; 159
    7efc:	80 81       	ld	r24, Z
    7efe:	86 17       	cp	r24, r22
    7f00:	61 f1       	breq	.+88     	; 0x7f5a <k197ButtonCluster::checkNew(unsigned char, unsigned char, unsigned long) [clone .constprop.90]+0x78>
    7f02:	69 01       	movw	r12, r18
    7f04:	7a 01       	movw	r14, r20
    7f06:	60 83       	st	Z, r22
    7f08:	8e 01       	movw	r16, r28
    7f0a:	00 0f       	add	r16, r16
    7f0c:	11 1f       	adc	r17, r17
    7f0e:	00 0f       	add	r16, r16
    7f10:	11 1f       	adc	r17, r17
    7f12:	61 30       	cpi	r22, 0x01	; 1
    7f14:	09 f0       	breq	.+2      	; 0x7f18 <k197ButtonCluster::checkNew(unsigned char, unsigned char, unsigned long) [clone .constprop.90]+0x36>
    7f16:	41 c0       	rjmp	.+130    	; 0x7f9a <k197ButtonCluster::checkNew(unsigned char, unsigned char, unsigned long) [clone .constprop.90]+0xb8>
    7f18:	64 e1       	ldi	r22, 0x14	; 20
    7f1a:	70 e0       	ldi	r23, 0x00	; 0
    7f1c:	ce 01       	movw	r24, r28
    7f1e:	d2 df       	rcall	.-92     	; 0x7ec4 <invoke_callback(int, K197UIeventType)>
    7f20:	f8 01       	movw	r30, r16
    7f22:	eb 5d       	subi	r30, 0xDB	; 219
    7f24:	fb 49       	sbci	r31, 0x9B	; 155
    7f26:	80 81       	ld	r24, Z
    7f28:	91 81       	ldd	r25, Z+1	; 0x01
    7f2a:	a2 81       	ldd	r26, Z+2	; 0x02
    7f2c:	b3 81       	ldd	r27, Z+3	; 0x03
    7f2e:	b7 01       	movw	r22, r14
    7f30:	a6 01       	movw	r20, r12
    7f32:	48 1b       	sub	r20, r24
    7f34:	59 0b       	sbc	r21, r25
    7f36:	6a 0b       	sbc	r22, r26
    7f38:	7b 0b       	sbc	r23, r27
    7f3a:	41 32       	cpi	r20, 0x21	; 33
    7f3c:	51 4a       	sbci	r21, 0xA1	; 161
    7f3e:	67 40       	sbci	r22, 0x07	; 7
    7f40:	71 05       	cpc	r23, r1
    7f42:	a0 f0       	brcs	.+40     	; 0x7f6c <k197ButtonCluster::checkNew(unsigned char, unsigned char, unsigned long) [clone .constprop.90]+0x8a>
    7f44:	63 e0       	ldi	r22, 0x03	; 3
    7f46:	70 e0       	ldi	r23, 0x00	; 0
    7f48:	ce 01       	movw	r24, r28
    7f4a:	bc df       	rcall	.-136    	; 0x7ec4 <invoke_callback(int, K197UIeventType)>
    7f4c:	f8 01       	movw	r30, r16
    7f4e:	eb 5e       	subi	r30, 0xEB	; 235
    7f50:	fb 49       	sbci	r31, 0x9B	; 155
    7f52:	c0 82       	st	Z, r12
    7f54:	d1 82       	std	Z+1, r13	; 0x01
    7f56:	e2 82       	std	Z+2, r14	; 0x02
    7f58:	f3 82       	std	Z+3, r15	; 0x03
    7f5a:	df 91       	pop	r29
    7f5c:	cf 91       	pop	r28
    7f5e:	1f 91       	pop	r17
    7f60:	0f 91       	pop	r16
    7f62:	ff 90       	pop	r15
    7f64:	ef 90       	pop	r14
    7f66:	df 90       	pop	r13
    7f68:	cf 90       	pop	r12
    7f6a:	08 95       	ret
    7f6c:	f8 01       	movw	r30, r16
    7f6e:	eb 5e       	subi	r30, 0xEB	; 235
    7f70:	fb 49       	sbci	r31, 0x9B	; 155
    7f72:	40 81       	ld	r20, Z
    7f74:	51 81       	ldd	r21, Z+1	; 0x01
    7f76:	62 81       	ldd	r22, Z+2	; 0x02
    7f78:	73 81       	ldd	r23, Z+3	; 0x03
    7f7a:	84 1b       	sub	r24, r20
    7f7c:	95 0b       	sbc	r25, r21
    7f7e:	a6 0b       	sbc	r26, r22
    7f80:	b7 0b       	sbc	r27, r23
    7f82:	61 e0       	ldi	r22, 0x01	; 1
    7f84:	70 e0       	ldi	r23, 0x00	; 0
    7f86:	80 32       	cpi	r24, 0x20	; 32
    7f88:	91 4a       	sbci	r25, 0xA1	; 161
    7f8a:	a7 40       	sbci	r26, 0x07	; 7
    7f8c:	b1 05       	cpc	r27, r1
    7f8e:	e0 f6       	brcc	.-72     	; 0x7f48 <k197ButtonCluster::checkNew(unsigned char, unsigned char, unsigned long) [clone .constprop.90]+0x66>
    7f90:	ce 01       	movw	r24, r28
    7f92:	98 df       	rcall	.-208    	; 0x7ec4 <invoke_callback(int, K197UIeventType)>
    7f94:	62 e0       	ldi	r22, 0x02	; 2
    7f96:	70 e0       	ldi	r23, 0x00	; 0
    7f98:	d7 cf       	rjmp	.-82     	; 0x7f48 <k197ButtonCluster::checkNew(unsigned char, unsigned char, unsigned long) [clone .constprop.90]+0x66>
    7f9a:	61 e1       	ldi	r22, 0x11	; 17
    7f9c:	70 e0       	ldi	r23, 0x00	; 0
    7f9e:	ce 01       	movw	r24, r28
    7fa0:	91 df       	rcall	.-222    	; 0x7ec4 <invoke_callback(int, K197UIeventType)>
    7fa2:	f8 01       	movw	r30, r16
    7fa4:	eb 5d       	subi	r30, 0xDB	; 219
    7fa6:	fb 49       	sbci	r31, 0x9B	; 155
    7fa8:	c0 82       	st	Z, r12
    7faa:	d1 82       	std	Z+1, r13	; 0x01
    7fac:	e2 82       	std	Z+2, r14	; 0x02
    7fae:	f3 82       	std	Z+3, r15	; 0x03
    7fb0:	f8 01       	movw	r30, r16
    7fb2:	eb 5f       	subi	r30, 0xFB	; 251
    7fb4:	fb 49       	sbci	r31, 0x9B	; 155
    7fb6:	cd cf       	rjmp	.-102    	; 0x7f52 <k197ButtonCluster::checkNew(unsigned char, unsigned char, unsigned long) [clone .constprop.90]+0x70>

00007fb8 <UartClass::begin(unsigned long)>:
begin():
    7fb8:	dc 01       	movw	r26, r24
    7fba:	ed 91       	ld	r30, X+
    7fbc:	fc 91       	ld	r31, X
    7fbe:	00 88       	ldd	r0, Z+16	; 0x10
    7fc0:	f1 89       	ldd	r31, Z+17	; 0x11
    7fc2:	e0 2d       	mov	r30, r0
    7fc4:	23 e0       	ldi	r18, 0x03	; 3
    7fc6:	30 e0       	ldi	r19, 0x00	; 0
    7fc8:	09 94       	ijmp

00007fca <dxUtilClass::getTKelvin() [clone .constprop.131]>:
analogRead():
    7fca:	82 e4       	ldi	r24, 0x42	; 66
    7fcc:	80 93 08 06 	sts	0x0608, r24	; 0x800608 <__TEXT_REGION_LENGTH__+0x7f0608>
    7fd0:	81 e0       	ldi	r24, 0x01	; 1
    7fd2:	80 93 0a 06 	sts	0x060A, r24	; 0x80060a <__TEXT_REGION_LENGTH__+0x7f060a>
    7fd6:	80 91 0d 06 	lds	r24, 0x060D	; 0x80060d <__TEXT_REGION_LENGTH__+0x7f060d>
    7fda:	80 ff       	sbrs	r24, 0
    7fdc:	fc cf       	rjmp	.-8      	; 0x7fd6 <dxUtilClass::getTKelvin() [clone .constprop.131]+0xc>
    7fde:	80 91 10 06 	lds	r24, 0x0610	; 0x800610 <__TEXT_REGION_LENGTH__+0x7f0610>
    7fe2:	90 91 11 06 	lds	r25, 0x0611	; 0x800611 <__TEXT_REGION_LENGTH__+0x7f0611>
getTKelvin():
    7fe6:	20 91 06 11 	lds	r18, 0x1106	; 0x801106 <__TEXT_REGION_LENGTH__+0x7f1106>
    7fea:	30 91 07 11 	lds	r19, 0x1107	; 0x801107 <__TEXT_REGION_LENGTH__+0x7f1107>
    7fee:	a0 91 04 11 	lds	r26, 0x1104	; 0x801104 <__TEXT_REGION_LENGTH__+0x7f1104>
    7ff2:	b0 91 05 11 	lds	r27, 0x1105	; 0x801105 <__TEXT_REGION_LENGTH__+0x7f1105>
    7ff6:	28 1b       	sub	r18, r24
    7ff8:	39 0b       	sbc	r19, r25
    7ffa:	0e 94 01 66 	call	0xcc02	; 0xcc02 <__umulhisi3>
    7ffe:	7e 5f       	subi	r23, 0xFE	; 254
    8000:	8f 4f       	sbci	r24, 0xFF	; 255
    8002:	9f 4f       	sbci	r25, 0xFF	; 255
    8004:	2a e0       	ldi	r18, 0x0A	; 10
    8006:	96 95       	lsr	r25
    8008:	87 95       	ror	r24
    800a:	77 95       	ror	r23
    800c:	67 95       	ror	r22
    800e:	2a 95       	dec	r18
    8010:	d1 f7       	brne	.-12     	; 0x8006 <__RODATA_PM_OFFSET__+0x6>
    8012:	0e 94 df 64 	call	0xc9be	; 0xc9be <__floatunsisf>
    8016:	20 e0       	ldi	r18, 0x00	; 0
    8018:	30 e0       	ldi	r19, 0x00	; 0
    801a:	40 e8       	ldi	r20, 0x80	; 128
    801c:	5e e3       	ldi	r21, 0x3E	; 62
    801e:	0c 94 40 65 	jmp	0xca80	; 0xca80 <__mulsf3>

00008022 <digitalWrite>:
digitalWrite():
    8022:	0f 93       	push	r16
    8024:	1f 93       	push	r17
    8026:	cf 93       	push	r28
    8028:	df 93       	push	r29
    802a:	87 31       	cpi	r24, 0x17	; 23
    802c:	08 f0       	brcs	.+2      	; 0x8030 <digitalWrite+0xe>
    802e:	73 c0       	rjmp	.+230    	; 0x8116 <digitalWrite+0xf4>
check_valid_digital_pin():
    8030:	90 e0       	ldi	r25, 0x00	; 0
digitalWrite():
    8032:	dc 01       	movw	r26, r24
    8034:	a2 52       	subi	r26, 0x22	; 34
    8036:	bf 49       	sbci	r27, 0x9F	; 159
    8038:	2c 91       	ld	r18, X
    803a:	2f 3f       	cpi	r18, 0xFF	; 255
    803c:	09 f4       	brne	.+2      	; 0x8040 <digitalWrite+0x1e>
    803e:	6b c0       	rjmp	.+214    	; 0x8116 <digitalWrite+0xf4>
    8040:	8c 01       	movw	r16, r24
    8042:	0b 50       	subi	r16, 0x0B	; 11
    8044:	1f 49       	sbci	r17, 0x9F	; 159
    8046:	e8 01       	movw	r28, r16
    8048:	e8 81       	ld	r30, Y
    804a:	d0 e2       	ldi	r29, 0x20	; 32
    804c:	ed 9f       	mul	r30, r29
    804e:	f0 01       	movw	r30, r0
    8050:	11 24       	eor	r1, r1
    8052:	fc 5f       	subi	r31, 0xFC	; 252
    8054:	61 11       	cpse	r22, r1
    8056:	36 c0       	rjmp	.+108    	; 0x80c4 <digitalWrite+0xa2>
    8058:	26 83       	std	Z+6, r18	; 0x06
    805a:	30 81       	ld	r19, Z
    805c:	23 23       	and	r18, r19
    805e:	ac 01       	movw	r20, r24
    8060:	44 5f       	subi	r20, 0xF4	; 244
    8062:	5e 49       	sbci	r21, 0x9E	; 158
    8064:	21 11       	cpse	r18, r1
    8066:	11 c0       	rjmp	.+34     	; 0x808a <digitalWrite+0x68>
    8068:	ea 01       	movw	r28, r20
    806a:	28 81       	ld	r18, Y
    806c:	30 97       	sbiw	r30, 0x00	; 0
    806e:	a9 f1       	breq	.+106    	; 0x80da <digitalWrite+0xb8>
    8070:	28 30       	cpi	r18, 0x08	; 8
    8072:	98 f5       	brcc	.+102    	; 0x80da <digitalWrite+0xb8>
    8074:	70 96       	adiw	r30, 0x10	; 16
    8076:	e2 0f       	add	r30, r18
    8078:	f1 1d       	adc	r31, r1
    807a:	3f b7       	in	r19, 0x3f	; 63
    807c:	f8 94       	cli
    807e:	20 81       	ld	r18, Z
    8080:	61 11       	cpse	r22, r1
    8082:	2e c0       	rjmp	.+92     	; 0x80e0 <digitalWrite+0xbe>
    8084:	27 7f       	andi	r18, 0xF7	; 247
    8086:	20 83       	st	Z, r18
    8088:	3f bf       	out	0x3f, r19	; 63
digitalPinToTimerNow():
    808a:	fa 01       	movw	r30, r20
    808c:	30 81       	ld	r19, Z
    808e:	3f 3f       	cpi	r19, 0xFF	; 255
    8090:	09 f4       	brne	.+2      	; 0x8094 <digitalWrite+0x72>
    8092:	41 c0       	rjmp	.+130    	; 0x8116 <digitalWrite+0xf4>
    8094:	e8 01       	movw	r28, r16
    8096:	28 81       	ld	r18, Y
    8098:	36 30       	cpi	r19, 0x06	; 6
    809a:	20 f5       	brcc	.+72     	; 0x80e4 <digitalWrite+0xc2>
    809c:	30 91 00 60 	lds	r19, 0x6000	; 0x806000 <__DATA_REGION_ORIGIN__>
    80a0:	34 ff       	sbrs	r19, 4
    80a2:	20 c0       	rjmp	.+64     	; 0x80e4 <digitalWrite+0xc2>
    80a4:	30 91 e6 05 	lds	r19, 0x05E6	; 0x8005e6 <__TEXT_REGION_LENGTH__+0x7f05e6>
    80a8:	37 70       	andi	r19, 0x07	; 7
    80aa:	23 13       	cpse	r18, r19
    80ac:	1b c0       	rjmp	.+54     	; 0x80e4 <digitalWrite+0xc2>
turnOffPWM():
    80ae:	ec 91       	ld	r30, X
    80b0:	e5 30       	cpi	r30, 0x05	; 5
    80b2:	08 f0       	brcs	.+2      	; 0x80b6 <digitalWrite+0x94>
    80b4:	ee 0f       	add	r30, r30
    80b6:	80 91 01 0a 	lds	r24, 0x0A01	; 0x800a01 <__TEXT_REGION_LENGTH__+0x7f0a01>
    80ba:	e0 95       	com	r30
    80bc:	e8 23       	and	r30, r24
    80be:	e0 93 01 0a 	sts	0x0A01, r30	; 0x800a01 <__TEXT_REGION_LENGTH__+0x7f0a01>
    80c2:	29 c0       	rjmp	.+82     	; 0x8116 <digitalWrite+0xf4>
digitalWrite():
    80c4:	64 30       	cpi	r22, 0x04	; 4
    80c6:	39 f4       	brne	.+14     	; 0x80d6 <digitalWrite+0xb4>
    80c8:	34 81       	ldd	r19, Z+4	; 0x04
    80ca:	32 23       	and	r19, r18
    80cc:	61 e0       	ldi	r22, 0x01	; 1
    80ce:	09 f0       	breq	.+2      	; 0x80d2 <digitalWrite+0xb0>
    80d0:	60 e0       	ldi	r22, 0x00	; 0
    80d2:	27 83       	std	Z+7, r18	; 0x07
    80d4:	c2 cf       	rjmp	.-124    	; 0x805a <digitalWrite+0x38>
    80d6:	25 83       	std	Z+5, r18	; 0x05
    80d8:	c0 cf       	rjmp	.-128    	; 0x805a <digitalWrite+0x38>
    80da:	f0 e0       	ldi	r31, 0x00	; 0
    80dc:	e0 e0       	ldi	r30, 0x00	; 0
    80de:	cd cf       	rjmp	.-102    	; 0x807a <digitalWrite+0x58>
    80e0:	28 60       	ori	r18, 0x08	; 8
    80e2:	d1 cf       	rjmp	.-94     	; 0x8086 <digitalWrite+0x64>
digitalPinToTimerNow():
    80e4:	89 53       	subi	r24, 0x39	; 57
    80e6:	9f 49       	sbci	r25, 0x9F	; 159
    80e8:	fc 01       	movw	r30, r24
    80ea:	80 81       	ld	r24, Z
    80ec:	85 ff       	sbrs	r24, 5
    80ee:	11 c0       	rjmp	.+34     	; 0x8112 <digitalWrite+0xf0>
    80f0:	30 e1       	ldi	r19, 0x10	; 16
    80f2:	83 9f       	mul	r24, r19
    80f4:	f0 01       	movw	r30, r0
    80f6:	11 24       	eor	r1, r1
    80f8:	f7 5f       	subi	r31, 0xF7	; 247
    80fa:	91 81       	ldd	r25, Z+1	; 0x01
    80fc:	97 70       	andi	r25, 0x07	; 7
    80fe:	97 30       	cpi	r25, 0x07	; 7
    8100:	51 f4       	brne	.+20     	; 0x8116 <digitalWrite+0xf4>
turnOffPWM():
    8102:	ec 91       	ld	r30, X
    8104:	85 32       	cpi	r24, 0x25	; 37
    8106:	60 f4       	brcc	.+24     	; 0x8120 <digitalWrite+0xfe>
    8108:	80 32       	cpi	r24, 0x20	; 32
    810a:	88 f4       	brcc	.+34     	; 0x812e <digitalWrite+0x10c>
    810c:	80 31       	cpi	r24, 0x10	; 16
    810e:	81 f2       	breq	.-96     	; 0x80b0 <digitalWrite+0x8e>
    8110:	02 c0       	rjmp	.+4      	; 0x8116 <digitalWrite+0xf4>
    8112:	81 11       	cpse	r24, r1
    8114:	f6 cf       	rjmp	.-20     	; 0x8102 <digitalWrite+0xe0>
digitalWrite():
    8116:	df 91       	pop	r29
    8118:	cf 91       	pop	r28
    811a:	1f 91       	pop	r17
    811c:	0f 91       	pop	r16
    811e:	08 95       	ret
turnOffPWM():
    8120:	80 34       	cpi	r24, 0x40	; 64
    8122:	71 f0       	breq	.+28     	; 0x8140 <digitalWrite+0x11e>
    8124:	80 38       	cpi	r24, 0x80	; 128
    8126:	b9 f7       	brne	.-18     	; 0x8116 <digitalWrite+0xf4>
    8128:	10 92 a0 06 	sts	0x06A0, r1	; 0x8006a0 <__TEXT_REGION_LENGTH__+0x7f06a0>
    812c:	f4 cf       	rjmp	.-24     	; 0x8116 <digitalWrite+0xf4>
    812e:	90 e1       	ldi	r25, 0x10	; 16
    8130:	89 9f       	mul	r24, r25
    8132:	f0 01       	movw	r30, r0
    8134:	11 24       	eor	r1, r1
    8136:	f7 5f       	subi	r31, 0xF7	; 247
    8138:	81 81       	ldd	r24, Z+1	; 0x01
    813a:	8f 7e       	andi	r24, 0xEF	; 239
    813c:	81 83       	std	Z+1, r24	; 0x01
    813e:	eb cf       	rjmp	.-42     	; 0x8116 <digitalWrite+0xf4>
    8140:	80 91 92 0b 	lds	r24, 0x0B92	; 0x800b92 <__TEXT_REGION_LENGTH__+0x7f0b92>
    8144:	8e 23       	and	r24, r30
    8146:	39 f3       	breq	.-50     	; 0x8116 <digitalWrite+0xf4>
    8148:	c0 e2       	ldi	r28, 0x20	; 32
    814a:	2c 9f       	mul	r18, r28
    814c:	90 01       	movw	r18, r0
    814e:	11 24       	eor	r1, r1
    8150:	3c 5f       	subi	r19, 0xFC	; 252
    8152:	e8 30       	cpi	r30, 0x08	; 8
    8154:	30 f5       	brcc	.+76     	; 0x81a2 <digitalWrite+0x180>
    8156:	20 5f       	subi	r18, 0xF0	; 240
    8158:	3f 4f       	sbci	r19, 0xFF	; 255
    815a:	e2 0f       	add	r30, r18
    815c:	f3 2f       	mov	r31, r19
    815e:	f1 1d       	adc	r31, r1
    8160:	4f b7       	in	r20, 0x3f	; 63
    8162:	f8 94       	cli
    8164:	90 91 80 0b 	lds	r25, 0x0B80	; 0x800b80 <__TEXT_REGION_LENGTH__+0x7f0b80>
    8168:	9e 7f       	andi	r25, 0xFE	; 254
    816a:	90 93 80 0b 	sts	0x0B80, r25	; 0x800b80 <__TEXT_REGION_LENGTH__+0x7f0b80>
    816e:	90 91 8e 0b 	lds	r25, 0x0B8E	; 0x800b8e <__TEXT_REGION_LENGTH__+0x7f0b8e>
    8172:	90 ff       	sbrs	r25, 0
    8174:	fc cf       	rjmp	.-8      	; 0x816e <digitalWrite+0x14c>
    8176:	20 91 92 0b 	lds	r18, 0x0B92	; 0x800b92 <__TEXT_REGION_LENGTH__+0x7f0b92>
    817a:	90 e0       	ldi	r25, 0x00	; 0
    817c:	80 95       	com	r24
    817e:	90 95       	com	r25
    8180:	30 e0       	ldi	r19, 0x00	; 0
    8182:	82 23       	and	r24, r18
    8184:	93 23       	and	r25, r19
    8186:	28 ed       	ldi	r18, 0xD8	; 216
    8188:	24 bf       	out	0x34, r18	; 52
    818a:	80 93 92 0b 	sts	0x0B92, r24	; 0x800b92 <__TEXT_REGION_LENGTH__+0x7f0b92>
    818e:	80 91 80 0b 	lds	r24, 0x0B80	; 0x800b80 <__TEXT_REGION_LENGTH__+0x7f0b80>
    8192:	81 60       	ori	r24, 0x01	; 1
    8194:	80 93 80 0b 	sts	0x0B80, r24	; 0x800b80 <__TEXT_REGION_LENGTH__+0x7f0b80>
    8198:	80 81       	ld	r24, Z
    819a:	8f 77       	andi	r24, 0x7F	; 127
    819c:	80 83       	st	Z, r24
    819e:	4f bf       	out	0x3f, r20	; 63
    81a0:	ba cf       	rjmp	.-140    	; 0x8116 <digitalWrite+0xf4>
digitalWrite():
    81a2:	f0 e0       	ldi	r31, 0x00	; 0
    81a4:	e0 e0       	ldi	r30, 0x00	; 0
    81a6:	dc cf       	rjmp	.-72     	; 0x8160 <digitalWrite+0x13e>

000081a8 <u8x8_gpio_and_delay_arduino>:
u8x8_gpio_and_delay_arduino():
    81a8:	cf 93       	push	r28
    81aa:	df 93       	push	r29
    81ac:	ec 01       	movw	r28, r24
    81ae:	e6 2f       	mov	r30, r22
    81b0:	64 2f       	mov	r22, r20
    81b2:	ec 32       	cpi	r30, 0x2C	; 44
    81b4:	d0 f5       	brcc	.+116    	; 0x822a <u8x8_gpio_and_delay_arduino+0x82>
    81b6:	ea 32       	cpi	r30, 0x2A	; 42
    81b8:	08 f0       	brcs	.+2      	; 0x81bc <u8x8_gpio_and_delay_arduino+0x14>
    81ba:	7f c0       	rjmp	.+254    	; 0x82ba <u8x8_gpio_and_delay_arduino+0x112>
    81bc:	e8 32       	cpi	r30, 0x28	; 40
    81be:	09 f4       	brne	.+2      	; 0x81c2 <u8x8_gpio_and_delay_arduino+0x1a>
    81c0:	5c c0       	rjmp	.+184    	; 0x827a <u8x8_gpio_and_delay_arduino+0xd2>
    81c2:	e9 32       	cpi	r30, 0x29	; 41
    81c4:	09 f4       	brne	.+2      	; 0x81c8 <u8x8_gpio_and_delay_arduino+0x20>
    81c6:	a4 c0       	rjmp	.+328    	; 0x8310 <u8x8_gpio_and_delay_arduino+0x168>
    81c8:	80 e0       	ldi	r24, 0x00	; 0
    81ca:	e0 34       	cpi	r30, 0x40	; 64
    81cc:	08 f4       	brcc	.+2      	; 0x81d0 <u8x8_gpio_and_delay_arduino+0x28>
    81ce:	76 c0       	rjmp	.+236    	; 0x82bc <u8x8_gpio_and_delay_arduino+0x114>
    81d0:	ef 73       	andi	r30, 0x3F	; 63
    81d2:	de 01       	movw	r26, r28
    81d4:	ae 0f       	add	r26, r30
    81d6:	b1 1d       	adc	r27, r1
    81d8:	5e 96       	adiw	r26, 0x1e	; 30
    81da:	8c 91       	ld	r24, X
    81dc:	8f 3f       	cpi	r24, 0xFF	; 255
    81de:	09 f4       	brne	.+2      	; 0x81e2 <u8x8_gpio_and_delay_arduino+0x3a>
    81e0:	6c c0       	rjmp	.+216    	; 0x82ba <u8x8_gpio_and_delay_arduino+0x112>
    81e2:	e0 31       	cpi	r30, 0x10	; 16
    81e4:	08 f4       	brcc	.+2      	; 0x81e8 <u8x8_gpio_and_delay_arduino+0x40>
    81e6:	47 c0       	rjmp	.+142    	; 0x8276 <u8x8_gpio_and_delay_arduino+0xce>
check_valid_digital_pin():
    81e8:	28 2f       	mov	r18, r24
    81ea:	30 e0       	ldi	r19, 0x00	; 0
digitalRead():
    81ec:	87 31       	cpi	r24, 0x17	; 23
    81ee:	08 f0       	brcs	.+2      	; 0x81f2 <u8x8_gpio_and_delay_arduino+0x4a>
    81f0:	c7 c0       	rjmp	.+398    	; 0x8380 <u8x8_gpio_and_delay_arduino+0x1d8>
    81f2:	f9 01       	movw	r30, r18
    81f4:	e2 52       	subi	r30, 0x22	; 34
    81f6:	ff 49       	sbci	r31, 0x9F	; 159
    81f8:	80 81       	ld	r24, Z
    81fa:	8f 3f       	cpi	r24, 0xFF	; 255
    81fc:	09 f4       	brne	.+2      	; 0x8200 <u8x8_gpio_and_delay_arduino+0x58>
    81fe:	c0 c0       	rjmp	.+384    	; 0x8380 <u8x8_gpio_and_delay_arduino+0x1d8>
    8200:	2b 50       	subi	r18, 0x0B	; 11
    8202:	3f 49       	sbci	r19, 0x9F	; 159
    8204:	f9 01       	movw	r30, r18
    8206:	a0 81       	ld	r26, Z
    8208:	f0 e2       	ldi	r31, 0x20	; 32
    820a:	af 9f       	mul	r26, r31
    820c:	d0 01       	movw	r26, r0
    820e:	11 24       	eor	r1, r1
    8210:	bc 5f       	subi	r27, 0xFC	; 252
    8212:	18 96       	adiw	r26, 0x08	; 8
    8214:	9c 91       	ld	r25, X
    8216:	98 23       	and	r25, r24
    8218:	81 e0       	ldi	r24, 0x01	; 1
    821a:	09 f4       	brne	.+2      	; 0x821e <u8x8_gpio_and_delay_arduino+0x76>
    821c:	80 e0       	ldi	r24, 0x00	; 0
u8x8_gpio_and_delay_arduino():
    821e:	91 e0       	ldi	r25, 0x01	; 1
    8220:	81 11       	cpse	r24, r1
    8222:	01 c0       	rjmp	.+2      	; 0x8226 <u8x8_gpio_and_delay_arduino+0x7e>
    8224:	90 e0       	ldi	r25, 0x00	; 0
    8226:	99 8f       	std	Y+25, r25	; 0x19
    8228:	48 c0       	rjmp	.+144    	; 0x82ba <u8x8_gpio_and_delay_arduino+0x112>
    822a:	ed 32       	cpi	r30, 0x2D	; 45
    822c:	09 f4       	brne	.+2      	; 0x8230 <u8x8_gpio_and_delay_arduino+0x88>
    822e:	76 c0       	rjmp	.+236    	; 0x831c <u8x8_gpio_and_delay_arduino+0x174>
    8230:	58 f2       	brcs	.-106    	; 0x81c8 <u8x8_gpio_and_delay_arduino+0x20>
    8232:	84 eb       	ldi	r24, 0xB4	; 180
    8234:	8e 0f       	add	r24, r30
    8236:	82 30       	cpi	r24, 0x02	; 2
    8238:	38 f6       	brcc	.-114    	; 0x81c8 <u8x8_gpio_and_delay_arduino+0x20>
    823a:	ef 73       	andi	r30, 0x3F	; 63
    823c:	ec 0f       	add	r30, r28
    823e:	fd 2f       	mov	r31, r29
    8240:	f1 1d       	adc	r31, r1
    8242:	26 8d       	ldd	r18, Z+30	; 0x1e
    8244:	82 2f       	mov	r24, r18
    8246:	90 e0       	ldi	r25, 0x00	; 0
    8248:	41 11       	cpse	r20, r1
    824a:	71 c0       	rjmp	.+226    	; 0x832e <u8x8_gpio_and_delay_arduino+0x186>
_pinMode():
    824c:	27 31       	cpi	r18, 0x17	; 23
    824e:	88 f4       	brcc	.+34     	; 0x8272 <u8x8_gpio_and_delay_arduino+0xca>
    8250:	dc 01       	movw	r26, r24
    8252:	a2 52       	subi	r26, 0x22	; 34
    8254:	bf 49       	sbci	r27, 0x9F	; 159
    8256:	2c 91       	ld	r18, X
    8258:	2f 3f       	cpi	r18, 0xFF	; 255
    825a:	59 f0       	breq	.+22     	; 0x8272 <u8x8_gpio_and_delay_arduino+0xca>
    825c:	8b 50       	subi	r24, 0x0B	; 11
    825e:	9f 49       	sbci	r25, 0x9F	; 159
    8260:	ec 01       	movw	r28, r24
    8262:	a8 81       	ld	r26, Y
    8264:	d0 e2       	ldi	r29, 0x20	; 32
    8266:	ad 9f       	mul	r26, r29
    8268:	d0 01       	movw	r26, r0
    826a:	11 24       	eor	r1, r1
    826c:	bc 5f       	subi	r27, 0xFC	; 252
    826e:	11 96       	adiw	r26, 0x01	; 1
    8270:	2c 93       	st	X, r18
u8x8_gpio_and_delay_arduino():
    8272:	60 e0       	ldi	r22, 0x00	; 0
    8274:	86 8d       	ldd	r24, Z+30	; 0x1e
    8276:	d5 de       	rcall	.-598    	; 0x8022 <digitalWrite>
    8278:	20 c0       	rjmp	.+64     	; 0x82ba <u8x8_gpio_and_delay_arduino+0x112>
    827a:	fc 01       	movw	r30, r24
    827c:	7e 96       	adiw	r30, 0x1e	; 30
    827e:	80 e0       	ldi	r24, 0x00	; 0
    8280:	91 91       	ld	r25, Z+
    8282:	9f 3f       	cpi	r25, 0xFF	; 255
    8284:	b9 f0       	breq	.+46     	; 0x82b4 <u8x8_gpio_and_delay_arduino+0x10c>
    8286:	29 2f       	mov	r18, r25
    8288:	30 e0       	ldi	r19, 0x00	; 0
    828a:	80 31       	cpi	r24, 0x10	; 16
    828c:	d0 f4       	brcc	.+52     	; 0x82c2 <u8x8_gpio_and_delay_arduino+0x11a>
_pinMode():
    828e:	97 31       	cpi	r25, 0x17	; 23
    8290:	88 f4       	brcc	.+34     	; 0x82b4 <u8x8_gpio_and_delay_arduino+0x10c>
    8292:	d9 01       	movw	r26, r18
    8294:	a2 52       	subi	r26, 0x22	; 34
    8296:	bf 49       	sbci	r27, 0x9F	; 159
    8298:	9c 91       	ld	r25, X
    829a:	9f 3f       	cpi	r25, 0xFF	; 255
    829c:	59 f0       	breq	.+22     	; 0x82b4 <u8x8_gpio_and_delay_arduino+0x10c>
    829e:	2b 50       	subi	r18, 0x0B	; 11
    82a0:	3f 49       	sbci	r19, 0x9F	; 159
    82a2:	e9 01       	movw	r28, r18
    82a4:	a8 81       	ld	r26, Y
    82a6:	d0 e2       	ldi	r29, 0x20	; 32
    82a8:	ad 9f       	mul	r26, r29
    82aa:	d0 01       	movw	r26, r0
    82ac:	11 24       	eor	r1, r1
    82ae:	bc 5f       	subi	r27, 0xFC	; 252
    82b0:	11 96       	adiw	r26, 0x01	; 1
    82b2:	9c 93       	st	X, r25
u8x8_gpio_and_delay_arduino():
    82b4:	8f 5f       	subi	r24, 0xFF	; 255
    82b6:	86 31       	cpi	r24, 0x16	; 22
    82b8:	19 f7       	brne	.-58     	; 0x8280 <u8x8_gpio_and_delay_arduino+0xd8>
    82ba:	81 e0       	ldi	r24, 0x01	; 1
    82bc:	df 91       	pop	r29
    82be:	cf 91       	pop	r28
    82c0:	08 95       	ret
_pinMode():
    82c2:	97 31       	cpi	r25, 0x17	; 23
    82c4:	b8 f7       	brcc	.-18     	; 0x82b4 <u8x8_gpio_and_delay_arduino+0x10c>
    82c6:	d9 01       	movw	r26, r18
    82c8:	a2 52       	subi	r26, 0x22	; 34
    82ca:	bf 49       	sbci	r27, 0x9F	; 159
    82cc:	9c 91       	ld	r25, X
    82ce:	9f 3f       	cpi	r25, 0xFF	; 255
    82d0:	89 f3       	breq	.-30     	; 0x82b4 <u8x8_gpio_and_delay_arduino+0x10c>
    82d2:	d9 01       	movw	r26, r18
    82d4:	ab 50       	subi	r26, 0x0B	; 11
    82d6:	bf 49       	sbci	r27, 0x9F	; 159
    82d8:	cc 91       	ld	r28, X
    82da:	40 e2       	ldi	r20, 0x20	; 32
    82dc:	c4 9f       	mul	r28, r20
    82de:	e0 01       	movw	r28, r0
    82e0:	11 24       	eor	r1, r1
    82e2:	dc 5f       	subi	r29, 0xFC	; 252
    82e4:	24 5f       	subi	r18, 0xF4	; 244
    82e6:	3e 49       	sbci	r19, 0x9E	; 158
    82e8:	d9 01       	movw	r26, r18
    82ea:	4c 91       	ld	r20, X
u8x8_gpio_and_delay_arduino():
    82ec:	b0 e0       	ldi	r27, 0x00	; 0
    82ee:	a0 e0       	ldi	r26, 0x00	; 0
_pinMode():
    82f0:	48 30       	cpi	r20, 0x08	; 8
    82f2:	30 f4       	brcc	.+12     	; 0x8300 <u8x8_gpio_and_delay_arduino+0x158>
    82f4:	9e 01       	movw	r18, r28
    82f6:	20 5f       	subi	r18, 0xF0	; 240
    82f8:	3f 4f       	sbci	r19, 0xFF	; 255
    82fa:	d9 01       	movw	r26, r18
    82fc:	a4 0f       	add	r26, r20
    82fe:	b1 1d       	adc	r27, r1
    8300:	2f b7       	in	r18, 0x3f	; 63
    8302:	f8 94       	cli
    8304:	9a 83       	std	Y+2, r25	; 0x02
    8306:	9c 91       	ld	r25, X
    8308:	98 60       	ori	r25, 0x08	; 8
    830a:	9c 93       	st	X, r25
    830c:	2f bf       	out	0x3f, r18	; 63
    830e:	d2 cf       	rjmp	.-92     	; 0x82b4 <u8x8_gpio_and_delay_arduino+0x10c>
u8x8_gpio_and_delay_arduino():
    8310:	70 e0       	ldi	r23, 0x00	; 0
    8312:	90 e0       	ldi	r25, 0x00	; 0
    8314:	80 e0       	ldi	r24, 0x00	; 0
    8316:	0e 94 f6 30 	call	0x61ec	; 0x61ec <delay>
    831a:	cf cf       	rjmp	.-98     	; 0x82ba <u8x8_gpio_and_delay_arduino+0x112>
    831c:	85 e0       	ldi	r24, 0x05	; 5
    831e:	90 e0       	ldi	r25, 0x00	; 0
    8320:	43 30       	cpi	r20, 0x03	; 3
    8322:	10 f0       	brcs	.+4      	; 0x8328 <u8x8_gpio_and_delay_arduino+0x180>
    8324:	82 e0       	ldi	r24, 0x02	; 2
    8326:	90 e0       	ldi	r25, 0x00	; 0
delayMicroseconds():
    8328:	0e 94 a3 30 	call	0x6146	; 0x6146 <_delayMicroseconds>
    832c:	c6 cf       	rjmp	.-116    	; 0x82ba <u8x8_gpio_and_delay_arduino+0x112>
_pinMode():
    832e:	27 31       	cpi	r18, 0x17	; 23
    8330:	20 f6       	brcc	.-120    	; 0x82ba <u8x8_gpio_and_delay_arduino+0x112>
    8332:	fc 01       	movw	r30, r24
    8334:	e2 52       	subi	r30, 0x22	; 34
    8336:	ff 49       	sbci	r31, 0x9F	; 159
    8338:	20 81       	ld	r18, Z
    833a:	2f 3f       	cpi	r18, 0xFF	; 255
    833c:	09 f4       	brne	.+2      	; 0x8340 <u8x8_gpio_and_delay_arduino+0x198>
    833e:	bd cf       	rjmp	.-134    	; 0x82ba <u8x8_gpio_and_delay_arduino+0x112>
    8340:	fc 01       	movw	r30, r24
    8342:	eb 50       	subi	r30, 0x0B	; 11
    8344:	ff 49       	sbci	r31, 0x9F	; 159
    8346:	a0 81       	ld	r26, Z
    8348:	e0 e2       	ldi	r30, 0x20	; 32
    834a:	ae 9f       	mul	r26, r30
    834c:	d0 01       	movw	r26, r0
    834e:	11 24       	eor	r1, r1
    8350:	bc 5f       	subi	r27, 0xFC	; 252
    8352:	84 5f       	subi	r24, 0xF4	; 244
    8354:	9e 49       	sbci	r25, 0x9E	; 158
    8356:	ec 01       	movw	r28, r24
    8358:	e8 81       	ld	r30, Y
    835a:	e8 30       	cpi	r30, 0x08	; 8
    835c:	70 f4       	brcc	.+28     	; 0x837a <u8x8_gpio_and_delay_arduino+0x1d2>
    835e:	cd 01       	movw	r24, r26
    8360:	40 96       	adiw	r24, 0x10	; 16
    8362:	e8 0f       	add	r30, r24
    8364:	f9 2f       	mov	r31, r25
    8366:	f1 1d       	adc	r31, r1
    8368:	9f b7       	in	r25, 0x3f	; 63
    836a:	f8 94       	cli
    836c:	12 96       	adiw	r26, 0x02	; 2
    836e:	2c 93       	st	X, r18
    8370:	80 81       	ld	r24, Z
    8372:	88 60       	ori	r24, 0x08	; 8
    8374:	80 83       	st	Z, r24
    8376:	9f bf       	out	0x3f, r25	; 63
    8378:	a0 cf       	rjmp	.-192    	; 0x82ba <u8x8_gpio_and_delay_arduino+0x112>
u8x8_gpio_and_delay_arduino():
    837a:	f0 e0       	ldi	r31, 0x00	; 0
    837c:	e0 e0       	ldi	r30, 0x00	; 0
    837e:	f4 cf       	rjmp	.-24     	; 0x8368 <u8x8_gpio_and_delay_arduino+0x1c0>
    8380:	8f ef       	ldi	r24, 0xFF	; 255
    8382:	4d cf       	rjmp	.-358    	; 0x821e <u8x8_gpio_and_delay_arduino+0x76>

00008384 <UImanager::formatNumber(char*, float)>:
formatNumber():
    8384:	8f 92       	push	r8
    8386:	9f 92       	push	r9
    8388:	af 92       	push	r10
    838a:	bf 92       	push	r11
    838c:	cf 92       	push	r12
    838e:	df 92       	push	r13
    8390:	ef 92       	push	r14
    8392:	ff 92       	push	r15
    8394:	0f 93       	push	r16
    8396:	1f 93       	push	r17
    8398:	cf 93       	push	r28
    839a:	8c 01       	movw	r16, r24
    839c:	6a 01       	movw	r12, r20
    839e:	7b 01       	movw	r14, r22
    83a0:	20 ef       	ldi	r18, 0xF0	; 240
    83a2:	33 e2       	ldi	r19, 0x23	; 35
    83a4:	44 e7       	ldi	r20, 0x74	; 116
    83a6:	59 e4       	ldi	r21, 0x49	; 73
    83a8:	cb 01       	movw	r24, r22
    83aa:	b6 01       	movw	r22, r12
    83ac:	0e 94 0e 67 	call	0xce1c	; 0xce1c <__gesf2>
    83b0:	18 16       	cp	r1, r24
    83b2:	0c f4       	brge	.+2      	; 0x83b6 <UImanager::formatNumber(char*, float)+0x32>
    83b4:	6d c0       	rjmp	.+218    	; 0x8490 <UImanager::formatNumber(char*, float)+0x10c>
    83b6:	20 ef       	ldi	r18, 0xF0	; 240
    83b8:	33 e2       	ldi	r19, 0x23	; 35
    83ba:	44 e7       	ldi	r20, 0x74	; 116
    83bc:	59 ec       	ldi	r21, 0xC9	; 201
    83be:	c7 01       	movw	r24, r14
    83c0:	b6 01       	movw	r22, r12
    83c2:	0e 94 db 64 	call	0xc9b6	; 0xc9b6 <__cmpsf2>
    83c6:	87 ff       	sbrs	r24, 7
    83c8:	08 c0       	rjmp	.+16     	; 0x83da <UImanager::formatNumber(char*, float)+0x56>
    83ca:	90 ef       	ldi	r25, 0xF0	; 240
    83cc:	c9 2e       	mov	r12, r25
    83ce:	93 e2       	ldi	r25, 0x23	; 35
    83d0:	d9 2e       	mov	r13, r25
    83d2:	94 e7       	ldi	r25, 0x74	; 116
    83d4:	e9 2e       	mov	r14, r25
    83d6:	99 ec       	ldi	r25, 0xC9	; 201
    83d8:	f9 2e       	mov	r15, r25
    83da:	c7 01       	movw	r24, r14
    83dc:	b6 01       	movw	r22, r12
    83de:	0e 94 dd 66 	call	0xcdba	; 0xcdba <__fixsfsi>
    83e2:	9b 01       	movw	r18, r22
    83e4:	77 ff       	sbrs	r23, 7
    83e6:	04 c0       	rjmp	.+8      	; 0x83f0 <UImanager::formatNumber(char*, float)+0x6c>
    83e8:	22 27       	eor	r18, r18
    83ea:	33 27       	eor	r19, r19
    83ec:	26 1b       	sub	r18, r22
    83ee:	37 0b       	sbc	r19, r23
    83f0:	b9 01       	movw	r22, r18
    83f2:	33 0f       	add	r19, r19
    83f4:	88 0b       	sbc	r24, r24
    83f6:	99 0b       	sbc	r25, r25
    83f8:	0e 94 e1 64 	call	0xc9c2	; 0xc9c2 <__floatsisf>
    83fc:	4b 01       	movw	r8, r22
    83fe:	5c 01       	movw	r10, r24
    8400:	26 ef       	ldi	r18, 0xF6	; 246
    8402:	3f ef       	ldi	r19, 0xFF	; 255
    8404:	4f e1       	ldi	r20, 0x1F	; 31
    8406:	51 e4       	ldi	r21, 0x41	; 65
    8408:	0e 94 db 64 	call	0xc9b6	; 0xc9b6 <__cmpsf2>
    840c:	25 e0       	ldi	r18, 0x05	; 5
    840e:	18 16       	cp	r1, r24
    8410:	74 f5       	brge	.+92     	; 0x846e <UImanager::formatNumber(char*, float)+0xea>
    8412:	23 ef       	ldi	r18, 0xF3	; 243
    8414:	3f ef       	ldi	r19, 0xFF	; 255
    8416:	47 ec       	ldi	r20, 0xC7	; 199
    8418:	52 e4       	ldi	r21, 0x42	; 66
    841a:	c5 01       	movw	r24, r10
    841c:	b4 01       	movw	r22, r8
    841e:	0e 94 db 64 	call	0xc9b6	; 0xc9b6 <__cmpsf2>
    8422:	24 e0       	ldi	r18, 0x04	; 4
    8424:	18 16       	cp	r1, r24
    8426:	1c f5       	brge	.+70     	; 0x846e <UImanager::formatNumber(char*, float)+0xea>
    8428:	20 ef       	ldi	r18, 0xF0	; 240
    842a:	3f ef       	ldi	r19, 0xFF	; 255
    842c:	49 e7       	ldi	r20, 0x79	; 121
    842e:	54 e4       	ldi	r21, 0x44	; 68
    8430:	c5 01       	movw	r24, r10
    8432:	b4 01       	movw	r22, r8
    8434:	0e 94 db 64 	call	0xc9b6	; 0xc9b6 <__cmpsf2>
    8438:	23 e0       	ldi	r18, 0x03	; 3
    843a:	18 16       	cp	r1, r24
    843c:	c4 f4       	brge	.+48     	; 0x846e <UImanager::formatNumber(char*, float)+0xea>
    843e:	26 ef       	ldi	r18, 0xF6	; 246
    8440:	3f e3       	ldi	r19, 0x3F	; 63
    8442:	4c e1       	ldi	r20, 0x1C	; 28
    8444:	56 e4       	ldi	r21, 0x46	; 70
    8446:	c5 01       	movw	r24, r10
    8448:	b4 01       	movw	r22, r8
    844a:	0e 94 db 64 	call	0xc9b6	; 0xc9b6 <__cmpsf2>
    844e:	22 e0       	ldi	r18, 0x02	; 2
    8450:	18 16       	cp	r1, r24
    8452:	6c f4       	brge	.+26     	; 0x846e <UImanager::formatNumber(char*, float)+0xea>
    8454:	c1 e0       	ldi	r28, 0x01	; 1
    8456:	23 ef       	ldi	r18, 0xF3	; 243
    8458:	3f e4       	ldi	r19, 0x4F	; 79
    845a:	43 ec       	ldi	r20, 0xC3	; 195
    845c:	57 e4       	ldi	r21, 0x47	; 71
    845e:	c5 01       	movw	r24, r10
    8460:	b4 01       	movw	r22, r8
    8462:	0e 94 db 64 	call	0xc9b6	; 0xc9b6 <__cmpsf2>
    8466:	18 16       	cp	r1, r24
    8468:	0c f4       	brge	.+2      	; 0x846c <UImanager::formatNumber(char*, float)+0xe8>
    846a:	c0 e0       	ldi	r28, 0x00	; 0
    846c:	2c 2f       	mov	r18, r28
    846e:	48 e0       	ldi	r20, 0x08	; 8
    8470:	c7 01       	movw	r24, r14
    8472:	b6 01       	movw	r22, r12
    8474:	0e 94 43 60 	call	0xc086	; 0xc086 <dtostrf>
    8478:	cf 91       	pop	r28
    847a:	1f 91       	pop	r17
    847c:	0f 91       	pop	r16
    847e:	ff 90       	pop	r15
    8480:	ef 90       	pop	r14
    8482:	df 90       	pop	r13
    8484:	cf 90       	pop	r12
    8486:	bf 90       	pop	r11
    8488:	af 90       	pop	r10
    848a:	9f 90       	pop	r9
    848c:	8f 90       	pop	r8
    848e:	08 95       	ret
    8490:	80 ef       	ldi	r24, 0xF0	; 240
    8492:	c8 2e       	mov	r12, r24
    8494:	83 e2       	ldi	r24, 0x23	; 35
    8496:	d8 2e       	mov	r13, r24
    8498:	84 e7       	ldi	r24, 0x74	; 116
    849a:	e8 2e       	mov	r14, r24
    849c:	89 e4       	ldi	r24, 0x49	; 73
    849e:	f8 2e       	mov	r15, r24
    84a0:	9c cf       	rjmp	.-200    	; 0x83da <UImanager::formatNumber(char*, float)+0x56>

000084a2 <u8g2_ClearBuffer>:
u8g2_ClearBuffer():
    84a2:	fc 01       	movw	r30, r24
    84a4:	a0 81       	ld	r26, Z
    84a6:	b1 81       	ldd	r27, Z+1	; 0x01
    84a8:	50 96       	adiw	r26, 0x10	; 16
    84aa:	2c 91       	ld	r18, X
    84ac:	82 ad       	ldd	r24, Z+58	; 0x3a
    84ae:	38 e0       	ldi	r19, 0x08	; 8
    84b0:	83 9f       	mul	r24, r19
    84b2:	c0 01       	movw	r24, r0
    84b4:	11 24       	eor	r1, r1
    84b6:	28 9f       	mul	r18, r24
    84b8:	a0 01       	movw	r20, r0
    84ba:	29 9f       	mul	r18, r25
    84bc:	50 0d       	add	r21, r0
    84be:	11 24       	eor	r1, r1
    84c0:	70 e0       	ldi	r23, 0x00	; 0
    84c2:	60 e0       	ldi	r22, 0x00	; 0
    84c4:	80 ad       	ldd	r24, Z+56	; 0x38
    84c6:	91 ad       	ldd	r25, Z+57	; 0x39
    84c8:	0c 94 65 67 	jmp	0xceca	; 0xceca <memset>

000084cc <UImanager::clearScreen() [clone .constprop.148]>:
_ZN4U8G211clearBufferEv():
    84cc:	87 ee       	ldi	r24, 0xE7	; 231
    84ce:	9e e6       	ldi	r25, 0x6E	; 110
    84d0:	e8 df       	rcall	.-48     	; 0x84a2 <u8g2_ClearBuffer>
_ZN4U8G210sendBufferEv():
    84d2:	12 d9       	rcall	.-3548   	; 0x76f8 <u8g2_SendBuffer.constprop.149>
_ZN10K197device14setDisplayHoldEb():
    84d4:	e6 e9       	ldi	r30, 0x96	; 150
    84d6:	ff e6       	ldi	r31, 0x6F	; 111
    84d8:	80 81       	ld	r24, Z
    84da:	87 7f       	andi	r24, 0xF7	; 247
    84dc:	80 83       	st	Z, r24
clearScreen():
    84de:	0c 94 12 2c 	jmp	0x5824	; 0x5824 <dxUtilClass::checkFreeStack() [clone .constprop.157]>

000084e2 <__class_exitMenu::change()>:
showFullScreen():
    84e2:	e9 e7       	ldi	r30, 0x79	; 121
    84e4:	ff e6       	ldi	r31, 0x6F	; 111
    84e6:	86 81       	ldd	r24, Z+6	; 0x06
    84e8:	97 81       	ldd	r25, Z+7	; 0x07
    84ea:	8f 70       	andi	r24, 0x0F	; 15
    84ec:	99 27       	eor	r25, r25
    84ee:	80 61       	ori	r24, 0x10	; 16
    84f0:	86 83       	std	Z+6, r24	; 0x06
    84f2:	97 83       	std	Z+7, r25	; 0x07
    84f4:	eb cf       	rjmp	.-42     	; 0x84cc <UImanager::clearScreen() [clone .constprop.148]>

000084f6 <u8x8_byte_arduino_3wire_hw_spi>:
u8x8_byte_arduino_3wire_hw_spi():
    84f6:	cf 92       	push	r12
    84f8:	df 92       	push	r13
    84fa:	ef 92       	push	r14
    84fc:	ff 92       	push	r15
    84fe:	0f 93       	push	r16
    8500:	1f 93       	push	r17
    8502:	cf 93       	push	r28
    8504:	df 93       	push	r29
    8506:	ec 01       	movw	r28, r24
    8508:	d4 2e       	mov	r13, r20
    850a:	68 31       	cpi	r22, 0x18	; 24
    850c:	09 f4       	brne	.+2      	; 0x8510 <u8x8_byte_arduino_3wire_hw_spi+0x1a>
    850e:	da c0       	rjmp	.+436    	; 0x86c4 <u8x8_byte_arduino_3wire_hw_spi+0x1ce>
    8510:	38 f4       	brcc	.+14     	; 0x8520 <u8x8_byte_arduino_3wire_hw_spi+0x2a>
    8512:	64 31       	cpi	r22, 0x14	; 20
    8514:	09 f4       	brne	.+2      	; 0x8518 <u8x8_byte_arduino_3wire_hw_spi+0x22>
    8516:	58 c0       	rjmp	.+176    	; 0x85c8 <u8x8_byte_arduino_3wire_hw_spi+0xd2>
    8518:	67 31       	cpi	r22, 0x17	; 23
    851a:	91 f0       	breq	.+36     	; 0x8540 <u8x8_byte_arduino_3wire_hw_spi+0x4a>
    851c:	80 e0       	ldi	r24, 0x00	; 0
    851e:	1c c0       	rjmp	.+56     	; 0x8558 <u8x8_byte_arduino_3wire_hw_spi+0x62>
    8520:	69 31       	cpi	r22, 0x19	; 25
    8522:	09 f4       	brne	.+2      	; 0x8526 <u8x8_byte_arduino_3wire_hw_spi+0x30>
    8524:	2e c1       	rjmp	.+604    	; 0x8782 <u8x8_byte_arduino_3wire_hw_spi+0x28c>
    8526:	60 32       	cpi	r22, 0x20	; 32
    8528:	c9 f7       	brne	.-14     	; 0x851c <u8x8_byte_arduino_3wire_hw_spi+0x26>
    852a:	80 e0       	ldi	r24, 0x00	; 0
    852c:	91 e0       	ldi	r25, 0x01	; 1
    852e:	41 11       	cpse	r20, r1
    8530:	02 c0       	rjmp	.+4      	; 0x8536 <u8x8_byte_arduino_3wire_hw_spi+0x40>
    8532:	90 e0       	ldi	r25, 0x00	; 0
    8534:	80 e0       	ldi	r24, 0x00	; 0
    8536:	80 93 7f 62 	sts	0x627F, r24	; 0x80627f <arduino_hw_spi_3w_dc>
    853a:	90 93 80 62 	sts	0x6280, r25	; 0x806280 <arduino_hw_spi_3w_dc+0x1>
    853e:	0b c0       	rjmp	.+22     	; 0x8556 <u8x8_byte_arduino_3wire_hw_spi+0x60>
    8540:	e9 01       	movw	r28, r18
arduino_hw_spi_3w_sendbyte():
    8542:	07 e0       	ldi	r16, 0x07	; 7
    8544:	10 e0       	ldi	r17, 0x00	; 0
    8546:	f5 e7       	ldi	r31, 0x75	; 117
    8548:	ef 2e       	mov	r14, r31
    854a:	f2 e6       	ldi	r31, 0x62	; 98
    854c:	ff 2e       	mov	r15, r31
arduino_hw_spi_3w_init():
    854e:	a9 e0       	ldi	r26, 0x09	; 9
    8550:	ca 2e       	mov	r12, r26
u8x8_byte_arduino_3wire_hw_spi():
    8552:	d1 10       	cpse	r13, r1
    8554:	0a c0       	rjmp	.+20     	; 0x856a <u8x8_byte_arduino_3wire_hw_spi+0x74>
    8556:	81 e0       	ldi	r24, 0x01	; 1
    8558:	df 91       	pop	r29
    855a:	cf 91       	pop	r28
    855c:	1f 91       	pop	r17
    855e:	0f 91       	pop	r16
    8560:	ff 90       	pop	r15
    8562:	ef 90       	pop	r14
    8564:	df 90       	pop	r13
    8566:	cf 90       	pop	r12
    8568:	08 95       	ret
    856a:	29 91       	ld	r18, Y+
arduino_hw_spi_3w_sendbyte():
    856c:	80 91 7e 62 	lds	r24, 0x627E	; 0x80627e <arduino_hw_spi_3w_bytepos>
    8570:	e8 2f       	mov	r30, r24
    8572:	f0 e0       	ldi	r31, 0x00	; 0
    8574:	40 91 7f 62 	lds	r20, 0x627F	; 0x80627f <arduino_hw_spi_3w_dc>
    8578:	50 91 80 62 	lds	r21, 0x6280	; 0x806280 <arduino_hw_spi_3w_dc+0x1>
    857c:	24 0f       	add	r18, r20
    857e:	35 2f       	mov	r19, r21
    8580:	31 1d       	adc	r19, r1
    8582:	a8 01       	movw	r20, r16
    8584:	4e 1b       	sub	r20, r30
    8586:	5f 0b       	sbc	r21, r31
    8588:	02 c0       	rjmp	.+4      	; 0x858e <u8x8_byte_arduino_3wire_hw_spi+0x98>
    858a:	22 0f       	add	r18, r18
    858c:	33 1f       	adc	r19, r19
    858e:	4a 95       	dec	r20
    8590:	e2 f7       	brpl	.-8      	; 0x858a <u8x8_byte_arduino_3wire_hw_spi+0x94>
    8592:	eb 58       	subi	r30, 0x8B	; 139
    8594:	fd 49       	sbci	r31, 0x9D	; 157
    8596:	90 81       	ld	r25, Z
    8598:	93 2b       	or	r25, r19
    859a:	90 83       	st	Z, r25
    859c:	8f 5f       	subi	r24, 0xFF	; 255
    859e:	80 93 7e 62 	sts	0x627E, r24	; 0x80627e <arduino_hw_spi_3w_bytepos>
    85a2:	e8 2f       	mov	r30, r24
    85a4:	f0 e0       	ldi	r31, 0x00	; 0
    85a6:	eb 58       	subi	r30, 0x8B	; 139
    85a8:	fd 49       	sbci	r31, 0x9D	; 157
    85aa:	90 81       	ld	r25, Z
    85ac:	29 2b       	or	r18, r25
    85ae:	20 83       	st	Z, r18
    85b0:	88 30       	cpi	r24, 0x08	; 8
    85b2:	41 f4       	brne	.+16     	; 0x85c4 <u8x8_byte_arduino_3wire_hw_spi+0xce>
    85b4:	2c d9       	rcall	.-3496   	; 0x780e <arduino_hw_spi_3w_flush()>
arduino_hw_spi_3w_init():
    85b6:	d7 01       	movw	r26, r14
    85b8:	ec 2d       	mov	r30, r12
    85ba:	1d 92       	st	X+, r1
    85bc:	ea 95       	dec	r30
    85be:	e9 f7       	brne	.-6      	; 0x85ba <u8x8_byte_arduino_3wire_hw_spi+0xc4>
    85c0:	10 92 7e 62 	sts	0x627E, r1	; 0x80627e <arduino_hw_spi_3w_bytepos>
u8x8_byte_arduino_3wire_hw_spi():
    85c4:	da 94       	dec	r13
    85c6:	c5 cf       	rjmp	.-118    	; 0x8552 <u8x8_byte_arduino_3wire_hw_spi+0x5c>
    85c8:	e8 81       	ld	r30, Y
    85ca:	f9 81       	ldd	r31, Y+1	; 0x01
    85cc:	8c 85       	ldd	r24, Y+12	; 0x0c
    85ce:	9d 85       	ldd	r25, Y+13	; 0x0d
    85d0:	ae 85       	ldd	r26, Y+14	; 0x0e
    85d2:	bf 85       	ldd	r27, Y+15	; 0x0f
    85d4:	89 2b       	or	r24, r25
    85d6:	8a 2b       	or	r24, r26
    85d8:	8b 2b       	or	r24, r27
    85da:	41 f4       	brne	.+16     	; 0x85ec <u8x8_byte_arduino_3wire_hw_spi+0xf6>
    85dc:	80 85       	ldd	r24, Z+8	; 0x08
    85de:	91 85       	ldd	r25, Z+9	; 0x09
    85e0:	a2 85       	ldd	r26, Z+10	; 0x0a
    85e2:	b3 85       	ldd	r27, Z+11	; 0x0b
    85e4:	8c 87       	std	Y+12, r24	; 0x0c
    85e6:	9d 87       	std	Y+13, r25	; 0x0d
    85e8:	ae 87       	std	Y+14, r26	; 0x0e
    85ea:	bf 87       	std	Y+15, r27	; 0x0f
    85ec:	41 81       	ldd	r20, Z+1	; 0x01
    85ee:	69 e4       	ldi	r22, 0x49	; 73
    85f0:	ce 01       	movw	r24, r28
    85f2:	0e 94 ba 31 	call	0x6374	; 0x6374 <u8x8_gpio_call>
init():
    85f6:	80 91 fb 65 	lds	r24, 0x65FB	; 0x8065fb <SPI+0x7>
    85fa:	81 11       	cpse	r24, r1
    85fc:	0a c0       	rjmp	.+20     	; 0x8612 <u8x8_byte_arduino_3wire_hw_spi+0x11c>
    85fe:	10 92 fc 65 	sts	0x65FC, r1	; 0x8065fc <SPI+0x8>
    8602:	10 92 fe 65 	sts	0x65FE, r1	; 0x8065fe <SPI+0xa>
    8606:	80 e8       	ldi	r24, 0x80	; 128
    8608:	80 93 fd 65 	sts	0x65FD, r24	; 0x8065fd <SPI+0x9>
    860c:	81 e0       	ldi	r24, 0x01	; 1
    860e:	80 93 fb 65 	sts	0x65FB, r24	; 0x8065fb <SPI+0x7>
begin():
    8612:	a0 91 f4 65 	lds	r26, 0x65F4	; 0x8065f4 <SPI>
    8616:	b0 91 f5 65 	lds	r27, 0x65F5	; 0x8065f5 <SPI+0x1>
    861a:	90 91 fa 65 	lds	r25, 0x65FA	; 0x8065fa <SPI+0x6>
    861e:	80 91 e4 05 	lds	r24, 0x05E4	; 0x8005e4 <__TEXT_REGION_LENGTH__+0x7f05e4>
    8622:	a0 34       	cpi	r26, 0x40	; 64
    8624:	f9 e0       	ldi	r31, 0x09	; 9
    8626:	bf 07       	cpc	r27, r31
    8628:	09 f0       	breq	.+2      	; 0x862c <u8x8_byte_arduino_3wire_hw_spi+0x136>
    862a:	4a c0       	rjmp	.+148    	; 0x86c0 <u8x8_byte_arduino_3wire_hw_spi+0x1ca>
    862c:	8c 7f       	andi	r24, 0xFC	; 252
    862e:	89 2b       	or	r24, r25
    8630:	80 93 e4 05 	sts	0x05E4, r24	; 0x8005e4 <__TEXT_REGION_LENGTH__+0x7f05e4>
    8634:	80 91 f8 65 	lds	r24, 0x65F8	; 0x8065f8 <SPI+0x4>
_pinMode():
    8638:	87 31       	cpi	r24, 0x17	; 23
    863a:	88 f4       	brcc	.+34     	; 0x865e <u8x8_byte_arduino_3wire_hw_spi+0x168>
check_valid_digital_pin():
    863c:	90 e0       	ldi	r25, 0x00	; 0
_pinMode():
    863e:	fc 01       	movw	r30, r24
    8640:	e2 52       	subi	r30, 0x22	; 34
    8642:	ff 49       	sbci	r31, 0x9F	; 159
    8644:	20 81       	ld	r18, Z
    8646:	2f 3f       	cpi	r18, 0xFF	; 255
    8648:	51 f0       	breq	.+20     	; 0x865e <u8x8_byte_arduino_3wire_hw_spi+0x168>
    864a:	8b 50       	subi	r24, 0x0B	; 11
    864c:	9f 49       	sbci	r25, 0x9F	; 159
    864e:	ec 01       	movw	r28, r24
    8650:	e8 81       	ld	r30, Y
    8652:	d0 e2       	ldi	r29, 0x20	; 32
    8654:	ed 9f       	mul	r30, r29
    8656:	f0 01       	movw	r30, r0
    8658:	11 24       	eor	r1, r1
    865a:	fc 5f       	subi	r31, 0xFC	; 252
    865c:	21 83       	std	Z+1, r18	; 0x01
begin():
    865e:	80 91 f7 65 	lds	r24, 0x65F7	; 0x8065f7 <SPI+0x3>
_pinMode():
    8662:	87 31       	cpi	r24, 0x17	; 23
    8664:	88 f4       	brcc	.+34     	; 0x8688 <u8x8_byte_arduino_3wire_hw_spi+0x192>
check_valid_digital_pin():
    8666:	90 e0       	ldi	r25, 0x00	; 0
_pinMode():
    8668:	fc 01       	movw	r30, r24
    866a:	e2 52       	subi	r30, 0x22	; 34
    866c:	ff 49       	sbci	r31, 0x9F	; 159
    866e:	20 81       	ld	r18, Z
    8670:	2f 3f       	cpi	r18, 0xFF	; 255
    8672:	51 f0       	breq	.+20     	; 0x8688 <u8x8_byte_arduino_3wire_hw_spi+0x192>
    8674:	8b 50       	subi	r24, 0x0B	; 11
    8676:	9f 49       	sbci	r25, 0x9F	; 159
    8678:	ec 01       	movw	r28, r24
    867a:	e8 81       	ld	r30, Y
    867c:	d0 e2       	ldi	r29, 0x20	; 32
    867e:	ed 9f       	mul	r30, r29
    8680:	f0 01       	movw	r30, r0
    8682:	11 24       	eor	r1, r1
    8684:	fc 5f       	subi	r31, 0xFC	; 252
    8686:	21 83       	std	Z+1, r18	; 0x01
begin():
    8688:	11 96       	adiw	r26, 0x01	; 1
    868a:	8c 91       	ld	r24, X
    868c:	11 97       	sbiw	r26, 0x01	; 1
    868e:	84 60       	ori	r24, 0x04	; 4
    8690:	11 96       	adiw	r26, 0x01	; 1
    8692:	8c 93       	st	X, r24
    8694:	e0 91 f4 65 	lds	r30, 0x65F4	; 0x8065f4 <SPI>
    8698:	f0 91 f5 65 	lds	r31, 0x65F5	; 0x8065f5 <SPI+0x1>
    869c:	80 81       	ld	r24, Z
    869e:	81 62       	ori	r24, 0x21	; 33
    86a0:	80 83       	st	Z, r24
    86a2:	90 91 ff 65 	lds	r25, 0x65FF	; 0x8065ff <DEFAULT_SPI_SETTINGS>
    86a6:	80 91 00 66 	lds	r24, 0x6600	; 0x806600 <DEFAULT_SPI_SETTINGS+0x1>
config():
    86aa:	e0 91 f4 65 	lds	r30, 0x65F4	; 0x8065f4 <SPI>
    86ae:	f0 91 f5 65 	lds	r31, 0x65F5	; 0x8065f5 <SPI+0x1>
    86b2:	90 83       	st	Z, r25
    86b4:	e0 91 f4 65 	lds	r30, 0x65F4	; 0x8065f4 <SPI>
    86b8:	f0 91 f5 65 	lds	r31, 0x65F5	; 0x8065f5 <SPI+0x1>
    86bc:	81 83       	std	Z+1, r24	; 0x01
    86be:	4b cf       	rjmp	.-362    	; 0x8556 <u8x8_byte_arduino_3wire_hw_spi+0x60>
begin():
    86c0:	83 7f       	andi	r24, 0xF3	; 243
    86c2:	b5 cf       	rjmp	.-150    	; 0x862e <u8x8_byte_arduino_3wire_hw_spi+0x138>
u8x8_byte_arduino_3wire_hw_spi():
    86c4:	e8 81       	ld	r30, Y
    86c6:	f9 81       	ldd	r31, Y+1	; 0x01
    86c8:	e4 85       	ldd	r30, Z+12	; 0x0c
    86ca:	e1 50       	subi	r30, 0x01	; 1
    86cc:	90 e0       	ldi	r25, 0x00	; 0
    86ce:	e3 30       	cpi	r30, 0x03	; 3
    86d0:	20 f4       	brcc	.+8      	; 0x86da <u8x8_byte_arduino_3wire_hw_spi+0x1e4>
    86d2:	f0 e0       	ldi	r31, 0x00	; 0
    86d4:	e3 5c       	subi	r30, 0xC3	; 195
    86d6:	ff 49       	sbci	r31, 0x9F	; 159
    86d8:	90 81       	ld	r25, Z
    86da:	0c 85       	ldd	r16, Y+12	; 0x0c
    86dc:	1d 85       	ldd	r17, Y+13	; 0x0d
    86de:	2e 85       	ldd	r18, Y+14	; 0x0e
    86e0:	3f 85       	ldd	r19, Y+15	; 0x0f
    86e2:	40 e0       	ldi	r20, 0x00	; 0
    86e4:	5b e1       	ldi	r21, 0x1B	; 27
    86e6:	67 eb       	ldi	r22, 0xB7	; 183
    86e8:	70 e0       	ldi	r23, 0x00	; 0
    86ea:	80 e0       	ldi	r24, 0x00	; 0
_ZN11SPISettings17init_AlwaysInlineEmhh():
    86ec:	04 17       	cp	r16, r20
    86ee:	15 07       	cpc	r17, r21
    86f0:	26 07       	cpc	r18, r22
    86f2:	37 07       	cpc	r19, r23
    86f4:	40 f4       	brcc	.+16     	; 0x8706 <u8x8_byte_arduino_3wire_hw_spi+0x210>
    86f6:	76 95       	lsr	r23
    86f8:	67 95       	ror	r22
    86fa:	57 95       	ror	r21
    86fc:	47 95       	ror	r20
    86fe:	8f 5f       	subi	r24, 0xFF	; 255
    8700:	86 30       	cpi	r24, 0x06	; 6
    8702:	a1 f7       	brne	.-24     	; 0x86ec <u8x8_byte_arduino_3wire_hw_spi+0x1f6>
u8x8_byte_arduino_3wire_hw_spi():
    8704:	87 e0       	ldi	r24, 0x07	; 7
_ZN11SPISettings17init_AlwaysInlineEmhh():
    8706:	94 60       	ori	r25, 0x04	; 4
    8708:	28 2f       	mov	r18, r24
    870a:	21 62       	ori	r18, 0x21	; 33
    870c:	80 95       	com	r24
    870e:	a8 2f       	mov	r26, r24
    8710:	a1 70       	andi	r26, 0x01	; 1
    8712:	b0 e0       	ldi	r27, 0x00	; 0
    8714:	84 e0       	ldi	r24, 0x04	; 4
    8716:	aa 0f       	add	r26, r26
    8718:	bb 1f       	adc	r27, r27
    871a:	8a 95       	dec	r24
    871c:	e1 f7       	brne	.-8      	; 0x8716 <u8x8_byte_arduino_3wire_hw_spi+0x220>
    871e:	a2 2b       	or	r26, r18
beginTransaction():
    8720:	80 91 fc 65 	lds	r24, 0x65FC	; 0x8065fc <SPI+0x8>
    8724:	88 23       	and	r24, r24
    8726:	21 f0       	breq	.+8      	; 0x8730 <u8x8_byte_arduino_3wire_hw_spi+0x23a>
    8728:	8f b7       	in	r24, 0x3f	; 63
    872a:	80 93 fd 65 	sts	0x65FD, r24	; 0x8065fd <SPI+0x9>
    872e:	f8 94       	cli
    8730:	81 e0       	ldi	r24, 0x01	; 1
    8732:	80 93 fe 65 	sts	0x65FE, r24	; 0x8065fe <SPI+0xa>
config():
    8736:	e0 91 f4 65 	lds	r30, 0x65F4	; 0x8065f4 <SPI>
    873a:	f0 91 f5 65 	lds	r31, 0x65F5	; 0x8065f5 <SPI+0x1>
    873e:	a0 83       	st	Z, r26
    8740:	e0 91 f4 65 	lds	r30, 0x65F4	; 0x8065f4 <SPI>
    8744:	f0 91 f5 65 	lds	r31, 0x65F5	; 0x8065f5 <SPI+0x1>
    8748:	91 83       	std	Z+1, r25	; 0x01
u8x8_byte_arduino_3wire_hw_spi():
    874a:	e8 81       	ld	r30, Y
    874c:	f9 81       	ldd	r31, Y+1	; 0x01
    874e:	40 81       	ld	r20, Z
    8750:	69 e4       	ldi	r22, 0x49	; 73
    8752:	ce 01       	movw	r24, r28
    8754:	0e 94 ba 31 	call	0x6374	; 0x6374 <u8x8_gpio_call>
    8758:	a8 81       	ld	r26, Y
    875a:	b9 81       	ldd	r27, Y+1	; 0x01
    875c:	ea 85       	ldd	r30, Y+10	; 0x0a
    875e:	fb 85       	ldd	r31, Y+11	; 0x0b
    8760:	30 e0       	ldi	r19, 0x00	; 0
    8762:	20 e0       	ldi	r18, 0x00	; 0
    8764:	12 96       	adiw	r26, 0x02	; 2
    8766:	4c 91       	ld	r20, X
    8768:	6c e2       	ldi	r22, 0x2C	; 44
    876a:	ce 01       	movw	r24, r28
    876c:	09 95       	icall
arduino_hw_spi_3w_init():
    876e:	e5 e7       	ldi	r30, 0x75	; 117
    8770:	f2 e6       	ldi	r31, 0x62	; 98
    8772:	89 e0       	ldi	r24, 0x09	; 9
    8774:	df 01       	movw	r26, r30
    8776:	1d 92       	st	X+, r1
    8778:	8a 95       	dec	r24
    877a:	e9 f7       	brne	.-6      	; 0x8776 <u8x8_byte_arduino_3wire_hw_spi+0x280>
    877c:	10 92 7e 62 	sts	0x627E, r1	; 0x80627e <arduino_hw_spi_3w_bytepos>
    8780:	ea ce       	rjmp	.-556    	; 0x8556 <u8x8_byte_arduino_3wire_hw_spi+0x60>
u8x8_byte_arduino_3wire_hw_spi():
    8782:	a8 81       	ld	r26, Y
    8784:	b9 81       	ldd	r27, Y+1	; 0x01
    8786:	ea 85       	ldd	r30, Y+10	; 0x0a
    8788:	fb 85       	ldd	r31, Y+11	; 0x0b
    878a:	30 e0       	ldi	r19, 0x00	; 0
    878c:	20 e0       	ldi	r18, 0x00	; 0
    878e:	13 96       	adiw	r26, 0x03	; 3
    8790:	4c 91       	ld	r20, X
    8792:	6c e2       	ldi	r22, 0x2C	; 44
    8794:	09 95       	icall
    8796:	80 91 7e 62 	lds	r24, 0x627E	; 0x80627e <arduino_hw_spi_3w_bytepos>
    879a:	81 11       	cpse	r24, r1
    879c:	38 d8       	rcall	.-3984   	; 0x780e <arduino_hw_spi_3w_flush()>
    879e:	e8 81       	ld	r30, Y
    87a0:	f9 81       	ldd	r31, Y+1	; 0x01
    87a2:	41 81       	ldd	r20, Z+1	; 0x01
    87a4:	69 e4       	ldi	r22, 0x49	; 73
    87a6:	ce 01       	movw	r24, r28
    87a8:	0e 94 ba 31 	call	0x6374	; 0x6374 <u8x8_gpio_call>
endTransaction():
    87ac:	80 91 fe 65 	lds	r24, 0x65FE	; 0x8065fe <SPI+0xa>
    87b0:	88 23       	and	r24, r24
    87b2:	09 f4       	brne	.+2      	; 0x87b6 <u8x8_byte_arduino_3wire_hw_spi+0x2c0>
    87b4:	d0 ce       	rjmp	.-608    	; 0x8556 <u8x8_byte_arduino_3wire_hw_spi+0x60>
    87b6:	10 92 fe 65 	sts	0x65FE, r1	; 0x8065fe <SPI+0xa>
    87ba:	80 91 fc 65 	lds	r24, 0x65FC	; 0x8065fc <SPI+0x8>
    87be:	88 23       	and	r24, r24
    87c0:	09 f4       	brne	.+2      	; 0x87c4 <u8x8_byte_arduino_3wire_hw_spi+0x2ce>
    87c2:	c9 ce       	rjmp	.-622    	; 0x8556 <u8x8_byte_arduino_3wire_hw_spi+0x60>
    87c4:	80 91 fd 65 	lds	r24, 0x65FD	; 0x8065fd <SPI+0x9>
    87c8:	8f bf       	out	0x3f, r24	; 63
    87ca:	c5 ce       	rjmp	.-630    	; 0x8556 <u8x8_byte_arduino_3wire_hw_spi+0x60>

000087cc <Print::write(char const*) [clone .part.0]>:
_ZN5Print5writeEPKc.part.0():
    87cc:	fb 01       	movw	r30, r22
    87ce:	01 90       	ld	r0, Z+
    87d0:	00 20       	and	r0, r0
    87d2:	e9 f7       	brne	.-6      	; 0x87ce <Print::write(char const*) [clone .part.0]+0x2>
    87d4:	31 97       	sbiw	r30, 0x01	; 1
    87d6:	af 01       	movw	r20, r30
    87d8:	46 1b       	sub	r20, r22
    87da:	57 0b       	sbc	r21, r23
    87dc:	dc 01       	movw	r26, r24
    87de:	ed 91       	ld	r30, X+
    87e0:	fc 91       	ld	r31, X
    87e2:	02 80       	ldd	r0, Z+2	; 0x02
    87e4:	f3 81       	ldd	r31, Z+3	; 0x03
    87e6:	e0 2d       	mov	r30, r0
    87e8:	09 94       	ijmp

000087ea <Print::println()>:
write():
    87ea:	63 e6       	ldi	r22, 0x63	; 99
    87ec:	72 e6       	ldi	r23, 0x62	; 98
    87ee:	ee cf       	rjmp	.-36     	; 0x87cc <Print::write(char const*) [clone .part.0]>

000087f0 <Print::println(__FlashStringHelper const*)>:
println():
    87f0:	0f 93       	push	r16
    87f2:	1f 93       	push	r17
    87f4:	cf 93       	push	r28
    87f6:	df 93       	push	r29
    87f8:	ec 01       	movw	r28, r24
    87fa:	0e 94 1a 2e 	call	0x5c34	; 0x5c34 <Print::print(__FlashStringHelper const*)>
    87fe:	8c 01       	movw	r16, r24
    8800:	ce 01       	movw	r24, r28
    8802:	f3 df       	rcall	.-26     	; 0x87ea <Print::println()>
    8804:	80 0f       	add	r24, r16
    8806:	91 1f       	adc	r25, r17
    8808:	df 91       	pop	r29
    880a:	cf 91       	pop	r28
    880c:	1f 91       	pop	r17
    880e:	0f 91       	pop	r16
    8810:	08 95       	ret

00008812 <Print::printNumber(unsigned long, unsigned char)>:
printNumber():
    8812:	8f 92       	push	r8
    8814:	9f 92       	push	r9
    8816:	af 92       	push	r10
    8818:	bf 92       	push	r11
    881a:	ef 92       	push	r14
    881c:	ff 92       	push	r15
    881e:	0f 93       	push	r16
    8820:	1f 93       	push	r17
    8822:	cf 93       	push	r28
    8824:	df 93       	push	r29
    8826:	cd b7       	in	r28, 0x3d	; 61
    8828:	de b7       	in	r29, 0x3e	; 62
    882a:	a1 97       	sbiw	r28, 0x21	; 33
    882c:	cd bf       	out	0x3d, r28	; 61
    882e:	de bf       	out	0x3e, r29	; 62
    8830:	7c 01       	movw	r14, r24
    8832:	fa 01       	movw	r30, r20
    8834:	cb 01       	movw	r24, r22
    8836:	19 a2       	std	Y+33, r1	; 0x21
    8838:	22 30       	cpi	r18, 0x02	; 2
    883a:	08 f4       	brcc	.+2      	; 0x883e <Print::printNumber(unsigned long, unsigned char)+0x2c>
    883c:	2a e0       	ldi	r18, 0x0A	; 10
    883e:	8e 01       	movw	r16, r28
    8840:	0f 5d       	subi	r16, 0xDF	; 223
    8842:	1f 4f       	sbci	r17, 0xFF	; 255
    8844:	82 2e       	mov	r8, r18
    8846:	91 2c       	mov	r9, r1
    8848:	b1 2c       	mov	r11, r1
    884a:	a1 2c       	mov	r10, r1
    884c:	bf 01       	movw	r22, r30
    884e:	a5 01       	movw	r20, r10
    8850:	94 01       	movw	r18, r8
    8852:	0e 94 29 67 	call	0xce52	; 0xce52 <__udivmodsi4>
    8856:	f9 01       	movw	r30, r18
    8858:	ca 01       	movw	r24, r20
    885a:	6a 30       	cpi	r22, 0x0A	; 10
    885c:	ec f4       	brge	.+58     	; 0x8898 <Print::printNumber(unsigned long, unsigned char)+0x86>
    885e:	60 5d       	subi	r22, 0xD0	; 208
    8860:	d8 01       	movw	r26, r16
    8862:	6e 93       	st	-X, r22
    8864:	8d 01       	movw	r16, r26
    8866:	23 2b       	or	r18, r19
    8868:	24 2b       	or	r18, r20
    886a:	25 2b       	or	r18, r21
    886c:	79 f7       	brne	.-34     	; 0x884c <Print::printNumber(unsigned long, unsigned char)+0x3a>
    886e:	90 e0       	ldi	r25, 0x00	; 0
    8870:	80 e0       	ldi	r24, 0x00	; 0
write():
    8872:	10 97       	sbiw	r26, 0x00	; 0
    8874:	19 f0       	breq	.+6      	; 0x887c <Print::printNumber(unsigned long, unsigned char)+0x6a>
    8876:	bd 01       	movw	r22, r26
    8878:	c7 01       	movw	r24, r14
    887a:	a8 df       	rcall	.-176    	; 0x87cc <Print::write(char const*) [clone .part.0]>
printNumber():
    887c:	a1 96       	adiw	r28, 0x21	; 33
    887e:	cd bf       	out	0x3d, r28	; 61
    8880:	de bf       	out	0x3e, r29	; 62
    8882:	df 91       	pop	r29
    8884:	cf 91       	pop	r28
    8886:	1f 91       	pop	r17
    8888:	0f 91       	pop	r16
    888a:	ff 90       	pop	r15
    888c:	ef 90       	pop	r14
    888e:	bf 90       	pop	r11
    8890:	af 90       	pop	r10
    8892:	9f 90       	pop	r9
    8894:	8f 90       	pop	r8
    8896:	08 95       	ret
    8898:	69 5c       	subi	r22, 0xC9	; 201
    889a:	e2 cf       	rjmp	.-60     	; 0x8860 <Print::printNumber(unsigned long, unsigned char)+0x4e>

0000889c <dxUtilClass::reportStack(bool) [clone .constprop.136]>:
reportStack():
    889c:	cf 92       	push	r12
    889e:	df 92       	push	r13
    88a0:	ef 92       	push	r14
    88a2:	ff 92       	push	r15
FreeStack():
    88a4:	8d b7       	in	r24, 0x3d	; 61
    88a6:	9e b7       	in	r25, 0x3e	; 62
    88a8:	20 91 c2 6f 	lds	r18, 0x6FC2	; 0x806fc2 <__brkval>
    88ac:	30 91 c3 6f 	lds	r19, 0x6FC3	; 0x806fc3 <__brkval+0x1>
    88b0:	21 15       	cp	r18, r1
    88b2:	31 05       	cpc	r19, r1
    88b4:	a1 f1       	breq	.+104    	; 0x891e <dxUtilClass::reportStack(bool) [clone .constprop.136]+0x82>
    88b6:	82 1b       	sub	r24, r18
    88b8:	93 0b       	sbc	r25, r19
reportStack():
    88ba:	20 91 3b 60 	lds	r18, 0x603B	; 0x80603b <dxUtil+0x4>
    88be:	30 91 3c 60 	lds	r19, 0x603C	; 0x80603c <dxUtil+0x5>
    88c2:	82 17       	cp	r24, r18
    88c4:	93 07       	cpc	r25, r19
    88c6:	24 f4       	brge	.+8      	; 0x88d0 <dxUtilClass::reportStack(bool) [clone .constprop.136]+0x34>
    88c8:	80 93 3b 60 	sts	0x603B, r24	; 0x80603b <dxUtil+0x4>
    88cc:	90 93 3c 60 	sts	0x603C, r25	; 0x80603c <dxUtil+0x5>
    88d0:	6b e0       	ldi	r22, 0x0B	; 11
    88d2:	79 e0       	ldi	r23, 0x09	; 9
    88d4:	85 e4       	ldi	r24, 0x45	; 69
    88d6:	96 e6       	ldi	r25, 0x66	; 102
    88d8:	0e 94 1a 2e 	call	0x5c34	; 0x5c34 <Print::print(__FlashStringHelper const*)>
    88dc:	c0 90 3b 60 	lds	r12, 0x603B	; 0x80603b <dxUtil+0x4>
    88e0:	d0 90 3c 60 	lds	r13, 0x603C	; 0x80603c <dxUtil+0x5>
print():
    88e4:	0d 2c       	mov	r0, r13
    88e6:	00 0c       	add	r0, r0
    88e8:	ee 08       	sbc	r14, r14
    88ea:	ff 08       	sbc	r15, r15
    88ec:	2a e0       	ldi	r18, 0x0A	; 10
    88ee:	b7 01       	movw	r22, r14
    88f0:	a6 01       	movw	r20, r12
    88f2:	f7 fe       	sbrs	r15, 7
    88f4:	0d c0       	rjmp	.+26     	; 0x8910 <dxUtilClass::reportStack(bool) [clone .constprop.136]+0x74>
    88f6:	6d e2       	ldi	r22, 0x2D	; 45
    88f8:	85 e4       	ldi	r24, 0x45	; 69
    88fa:	96 e6       	ldi	r25, 0x66	; 102
    88fc:	0e 94 13 2e 	call	0x5c26	; 0x5c26 <Print::print(char)>
    8900:	44 27       	eor	r20, r20
    8902:	55 27       	eor	r21, r21
    8904:	ba 01       	movw	r22, r20
    8906:	4c 19       	sub	r20, r12
    8908:	5d 09       	sbc	r21, r13
    890a:	6e 09       	sbc	r22, r14
    890c:	7f 09       	sbc	r23, r15
    890e:	2a e0       	ldi	r18, 0x0A	; 10
    8910:	85 e4       	ldi	r24, 0x45	; 69
    8912:	96 e6       	ldi	r25, 0x66	; 102
reportStack():
    8914:	ff 90       	pop	r15
    8916:	ef 90       	pop	r14
    8918:	df 90       	pop	r13
    891a:	cf 90       	pop	r12
print():
    891c:	7a cf       	rjmp	.-268    	; 0x8812 <Print::printNumber(unsigned long, unsigned char)>
FreeStack():
    891e:	88 5c       	subi	r24, 0xC8	; 200
    8920:	9f 46       	sbci	r25, 0x6F	; 111
    8922:	cb cf       	rjmp	.-106    	; 0x88ba <dxUtilClass::reportStack(bool) [clone .constprop.136]+0x1e>

00008924 <__class_openLog::change()>:
change():
    8924:	bb df       	rcall	.-138    	; 0x889c <dxUtilClass::reportStack(bool) [clone .constprop.136]>
    8926:	85 e4       	ldi	r24, 0x45	; 69
    8928:	96 e6       	ldi	r25, 0x66	; 102
    892a:	5f df       	rcall	.-322    	; 0x87ea <Print::println()>
_ZN10K197device5isCalEv():
    892c:	80 91 a6 6f 	lds	r24, 0x6FA6	; 0x806fa6 <k197dev+0x10>
    8930:	80 fd       	sbrc	r24, 0
    8932:	0b c0       	rjmp	.+22     	; 0x894a <__class_openLog::change()+0x26>
showDebugLog():
    8934:	80 91 7f 6f 	lds	r24, 0x6F7F	; 0x806f7f <uiman+0x6>
    8938:	90 91 80 6f 	lds	r25, 0x6F80	; 0x806f80 <uiman+0x7>
    893c:	8f 70       	andi	r24, 0x0F	; 15
    893e:	99 27       	eor	r25, r25
    8940:	80 93 7f 6f 	sts	0x6F7F, r24	; 0x806f7f <uiman+0x6>
    8944:	90 93 80 6f 	sts	0x6F80, r25	; 0x806f80 <uiman+0x7>
    8948:	c1 cd       	rjmp	.-1150   	; 0x84cc <UImanager::clearScreen() [clone .constprop.148]>
change():
    894a:	08 95       	ret

0000894c <Print::printFloat(double, unsigned char)>:
printFloat():
    894c:	2f 92       	push	r2
    894e:	3f 92       	push	r3
    8950:	4f 92       	push	r4
    8952:	5f 92       	push	r5
    8954:	6f 92       	push	r6
    8956:	7f 92       	push	r7
    8958:	8f 92       	push	r8
    895a:	9f 92       	push	r9
    895c:	af 92       	push	r10
    895e:	bf 92       	push	r11
    8960:	cf 92       	push	r12
    8962:	df 92       	push	r13
    8964:	ef 92       	push	r14
    8966:	ff 92       	push	r15
    8968:	1f 93       	push	r17
    896a:	cf 93       	push	r28
    896c:	df 93       	push	r29
    896e:	ec 01       	movw	r28, r24
    8970:	6a 01       	movw	r12, r20
    8972:	7b 01       	movw	r14, r22
    8974:	72 2e       	mov	r7, r18
    8976:	ab 01       	movw	r20, r22
    8978:	96 01       	movw	r18, r12
    897a:	cb 01       	movw	r24, r22
    897c:	b6 01       	movw	r22, r12
    897e:	0e 94 12 67 	call	0xce24	; 0xce24 <__unordsf2>
write():
    8982:	66 e6       	ldi	r22, 0x66	; 102
    8984:	72 e6       	ldi	r23, 0x62	; 98
printFloat():
    8986:	81 11       	cpse	r24, r1
    8988:	26 c0       	rjmp	.+76     	; 0x89d6 <Print::printFloat(double, unsigned char)+0x8a>
    898a:	46 01       	movw	r8, r12
    898c:	57 01       	movw	r10, r14
    898e:	e8 94       	clt
    8990:	b7 f8       	bld	r11, 7
    8992:	2f ef       	ldi	r18, 0xFF	; 255
    8994:	3f ef       	ldi	r19, 0xFF	; 255
    8996:	4f e7       	ldi	r20, 0x7F	; 127
    8998:	5f e7       	ldi	r21, 0x7F	; 127
    899a:	c5 01       	movw	r24, r10
    899c:	b4 01       	movw	r22, r8
    899e:	0e 94 12 67 	call	0xce24	; 0xce24 <__unordsf2>
    89a2:	81 11       	cpse	r24, r1
    89a4:	0c c0       	rjmp	.+24     	; 0x89be <Print::printFloat(double, unsigned char)+0x72>
    89a6:	2f ef       	ldi	r18, 0xFF	; 255
    89a8:	3f ef       	ldi	r19, 0xFF	; 255
    89aa:	4f e7       	ldi	r20, 0x7F	; 127
    89ac:	5f e7       	ldi	r21, 0x7F	; 127
    89ae:	c5 01       	movw	r24, r10
    89b0:	b4 01       	movw	r22, r8
    89b2:	0e 94 db 64 	call	0xc9b6	; 0xc9b6 <__cmpsf2>
write():
    89b6:	6a e6       	ldi	r22, 0x6A	; 106
    89b8:	72 e6       	ldi	r23, 0x62	; 98
printFloat():
    89ba:	18 16       	cp	r1, r24
    89bc:	64 f0       	brlt	.+24     	; 0x89d6 <Print::printFloat(double, unsigned char)+0x8a>
    89be:	2f ef       	ldi	r18, 0xFF	; 255
    89c0:	3f ef       	ldi	r19, 0xFF	; 255
    89c2:	4f e7       	ldi	r20, 0x7F	; 127
    89c4:	5f e4       	ldi	r21, 0x4F	; 79
    89c6:	c7 01       	movw	r24, r14
    89c8:	b6 01       	movw	r22, r12
    89ca:	0e 94 0e 67 	call	0xce1c	; 0xce1c <__gesf2>
    89ce:	18 16       	cp	r1, r24
    89d0:	ac f4       	brge	.+42     	; 0x89fc <Print::printFloat(double, unsigned char)+0xb0>
write():
    89d2:	6e e6       	ldi	r22, 0x6E	; 110
    89d4:	72 e6       	ldi	r23, 0x62	; 98
    89d6:	ce 01       	movw	r24, r28
printFloat():
    89d8:	df 91       	pop	r29
    89da:	cf 91       	pop	r28
    89dc:	1f 91       	pop	r17
    89de:	ff 90       	pop	r15
    89e0:	ef 90       	pop	r14
    89e2:	df 90       	pop	r13
    89e4:	cf 90       	pop	r12
    89e6:	bf 90       	pop	r11
    89e8:	af 90       	pop	r10
    89ea:	9f 90       	pop	r9
    89ec:	8f 90       	pop	r8
    89ee:	7f 90       	pop	r7
    89f0:	6f 90       	pop	r6
    89f2:	5f 90       	pop	r5
    89f4:	4f 90       	pop	r4
    89f6:	3f 90       	pop	r3
    89f8:	2f 90       	pop	r2
write():
    89fa:	e8 ce       	rjmp	.-560    	; 0x87cc <Print::write(char const*) [clone .part.0]>
printFloat():
    89fc:	2f ef       	ldi	r18, 0xFF	; 255
    89fe:	3f ef       	ldi	r19, 0xFF	; 255
    8a00:	4f e7       	ldi	r20, 0x7F	; 127
    8a02:	5f ec       	ldi	r21, 0xCF	; 207
    8a04:	c7 01       	movw	r24, r14
    8a06:	b6 01       	movw	r22, r12
    8a08:	0e 94 db 64 	call	0xc9b6	; 0xc9b6 <__cmpsf2>
    8a0c:	87 fd       	sbrc	r24, 7
    8a0e:	e1 cf       	rjmp	.-62     	; 0x89d2 <Print::printFloat(double, unsigned char)+0x86>
    8a10:	20 e0       	ldi	r18, 0x00	; 0
    8a12:	30 e0       	ldi	r19, 0x00	; 0
    8a14:	a9 01       	movw	r20, r18
    8a16:	c7 01       	movw	r24, r14
    8a18:	b6 01       	movw	r22, r12
    8a1a:	0e 94 db 64 	call	0xc9b6	; 0xc9b6 <__cmpsf2>
    8a1e:	31 2c       	mov	r3, r1
    8a20:	21 2c       	mov	r2, r1
    8a22:	87 ff       	sbrs	r24, 7
    8a24:	09 c0       	rjmp	.+18     	; 0x8a38 <Print::printFloat(double, unsigned char)+0xec>
    8a26:	6d e2       	ldi	r22, 0x2D	; 45
    8a28:	ce 01       	movw	r24, r28
    8a2a:	0e 94 13 2e 	call	0x5c26	; 0x5c26 <Print::print(char)>
    8a2e:	1c 01       	movw	r2, r24
    8a30:	f7 fa       	bst	r15, 7
    8a32:	f0 94       	com	r15
    8a34:	f7 f8       	bld	r15, 7
    8a36:	f0 94       	com	r15
    8a38:	10 e0       	ldi	r17, 0x00	; 0
    8a3a:	60 e0       	ldi	r22, 0x00	; 0
    8a3c:	70 e0       	ldi	r23, 0x00	; 0
    8a3e:	80 e0       	ldi	r24, 0x00	; 0
    8a40:	9f e3       	ldi	r25, 0x3F	; 63
    8a42:	71 16       	cp	r7, r17
    8a44:	41 f0       	breq	.+16     	; 0x8a56 <Print::printFloat(double, unsigned char)+0x10a>
    8a46:	20 e0       	ldi	r18, 0x00	; 0
    8a48:	30 e0       	ldi	r19, 0x00	; 0
    8a4a:	40 e2       	ldi	r20, 0x20	; 32
    8a4c:	51 e4       	ldi	r21, 0x41	; 65
    8a4e:	0e 94 75 66 	call	0xccea	; 0xccea <__divsf3>
    8a52:	1f 5f       	subi	r17, 0xFF	; 255
    8a54:	f6 cf       	rjmp	.-20     	; 0x8a42 <Print::printFloat(double, unsigned char)+0xf6>
    8a56:	a7 01       	movw	r20, r14
    8a58:	96 01       	movw	r18, r12
    8a5a:	0e 94 11 66 	call	0xcc22	; 0xcc22 <__addsf3>
    8a5e:	2b 01       	movw	r4, r22
    8a60:	3c 01       	movw	r6, r24
    8a62:	0e 94 e2 66 	call	0xcdc4	; 0xcdc4 <__fixunssfsi>
    8a66:	4b 01       	movw	r8, r22
    8a68:	5c 01       	movw	r10, r24
print():
    8a6a:	2a e0       	ldi	r18, 0x0A	; 10
    8a6c:	bc 01       	movw	r22, r24
    8a6e:	a4 01       	movw	r20, r8
    8a70:	ce 01       	movw	r24, r28
    8a72:	cf de       	rcall	.-610    	; 0x8812 <Print::printNumber(unsigned long, unsigned char)>
printFloat():
    8a74:	7c 01       	movw	r14, r24
    8a76:	e2 0c       	add	r14, r2
    8a78:	f3 1c       	adc	r15, r3
    8a7a:	11 23       	and	r17, r17
    8a7c:	b9 f1       	breq	.+110    	; 0x8aec <Print::printFloat(double, unsigned char)+0x1a0>
    8a7e:	c5 01       	movw	r24, r10
    8a80:	b4 01       	movw	r22, r8
    8a82:	0e 94 df 64 	call	0xc9be	; 0xc9be <__floatunsisf>
    8a86:	9b 01       	movw	r18, r22
    8a88:	ac 01       	movw	r20, r24
    8a8a:	c3 01       	movw	r24, r6
    8a8c:	b2 01       	movw	r22, r4
    8a8e:	0e 94 10 66 	call	0xcc20	; 0xcc20 <__subsf3>
    8a92:	4b 01       	movw	r8, r22
    8a94:	5c 01       	movw	r10, r24
write():
    8a96:	62 e7       	ldi	r22, 0x72	; 114
    8a98:	72 e6       	ldi	r23, 0x62	; 98
    8a9a:	ce 01       	movw	r24, r28
    8a9c:	97 de       	rcall	.-722    	; 0x87cc <Print::write(char const*) [clone .part.0]>
printFloat():
    8a9e:	e8 0e       	add	r14, r24
    8aa0:	f9 1e       	adc	r15, r25
    8aa2:	11 50       	subi	r17, 0x01	; 1
    8aa4:	18 f1       	brcs	.+70     	; 0x8aec <Print::printFloat(double, unsigned char)+0x1a0>
    8aa6:	20 e0       	ldi	r18, 0x00	; 0
    8aa8:	30 e0       	ldi	r19, 0x00	; 0
    8aaa:	40 e2       	ldi	r20, 0x20	; 32
    8aac:	51 e4       	ldi	r21, 0x41	; 65
    8aae:	c5 01       	movw	r24, r10
    8ab0:	b4 01       	movw	r22, r8
    8ab2:	0e 94 40 65 	call	0xca80	; 0xca80 <__mulsf3>
    8ab6:	2b 01       	movw	r4, r22
    8ab8:	3c 01       	movw	r6, r24
    8aba:	0e 94 e2 66 	call	0xcdc4	; 0xcdc4 <__fixunssfsi>
print():
    8abe:	4b 01       	movw	r8, r22
    8ac0:	b1 2c       	mov	r11, r1
    8ac2:	a1 2c       	mov	r10, r1
    8ac4:	2a e0       	ldi	r18, 0x0A	; 10
    8ac6:	b5 01       	movw	r22, r10
    8ac8:	a4 01       	movw	r20, r8
    8aca:	ce 01       	movw	r24, r28
    8acc:	a2 de       	rcall	.-700    	; 0x8812 <Print::printNumber(unsigned long, unsigned char)>
printFloat():
    8ace:	e8 0e       	add	r14, r24
    8ad0:	f9 1e       	adc	r15, r25
    8ad2:	c5 01       	movw	r24, r10
    8ad4:	b4 01       	movw	r22, r8
    8ad6:	0e 94 df 64 	call	0xc9be	; 0xc9be <__floatunsisf>
    8ada:	9b 01       	movw	r18, r22
    8adc:	ac 01       	movw	r20, r24
    8ade:	c3 01       	movw	r24, r6
    8ae0:	b2 01       	movw	r22, r4
    8ae2:	0e 94 10 66 	call	0xcc20	; 0xcc20 <__subsf3>
    8ae6:	4b 01       	movw	r8, r22
    8ae8:	5c 01       	movw	r10, r24
    8aea:	db cf       	rjmp	.-74     	; 0x8aa2 <Print::printFloat(double, unsigned char)+0x156>
    8aec:	c7 01       	movw	r24, r14
    8aee:	df 91       	pop	r29
    8af0:	cf 91       	pop	r28
    8af2:	1f 91       	pop	r17
    8af4:	ff 90       	pop	r15
    8af6:	ef 90       	pop	r14
    8af8:	df 90       	pop	r13
    8afa:	cf 90       	pop	r12
    8afc:	bf 90       	pop	r11
    8afe:	af 90       	pop	r10
    8b00:	9f 90       	pop	r9
    8b02:	8f 90       	pop	r8
    8b04:	7f 90       	pop	r7
    8b06:	6f 90       	pop	r6
    8b08:	5f 90       	pop	r5
    8b0a:	4f 90       	pop	r4
    8b0c:	3f 90       	pop	r3
    8b0e:	2f 90       	pop	r2
    8b10:	08 95       	ret

00008b12 <dxUtilClass::checkTemperature(bool) [clone .constprop.129]>:
checkTemperature():
    8b12:	68 e0       	ldi	r22, 0x08	; 8
    8b14:	79 e0       	ldi	r23, 0x09	; 9
    8b16:	85 e4       	ldi	r24, 0x45	; 69
    8b18:	96 e6       	ldi	r25, 0x66	; 102
    8b1a:	0e 94 1a 2e 	call	0x5c34	; 0x5c34 <Print::print(__FlashStringHelper const*)>
getTCelsius():
    8b1e:	55 da       	rcall	.-2902   	; 0x7fca <dxUtilClass::getTKelvin() [clone .constprop.131]>
    8b20:	23 e3       	ldi	r18, 0x33	; 51
    8b22:	33 e9       	ldi	r19, 0x93	; 147
    8b24:	48 e8       	ldi	r20, 0x88	; 136
    8b26:	53 e4       	ldi	r21, 0x43	; 67
    8b28:	0e 94 10 66 	call	0xcc20	; 0xcc20 <__subsf3>
    8b2c:	ab 01       	movw	r20, r22
    8b2e:	bc 01       	movw	r22, r24
print():
    8b30:	22 e0       	ldi	r18, 0x02	; 2
    8b32:	85 e4       	ldi	r24, 0x45	; 69
    8b34:	96 e6       	ldi	r25, 0x66	; 102
    8b36:	0a df       	rcall	.-492    	; 0x894c <Print::printFloat(double, unsigned char)>
checkTemperature():
    8b38:	65 e0       	ldi	r22, 0x05	; 5
    8b3a:	79 e0       	ldi	r23, 0x09	; 9
    8b3c:	85 e4       	ldi	r24, 0x45	; 69
    8b3e:	96 e6       	ldi	r25, 0x66	; 102
    8b40:	0e 94 1a 2e 	call	0x5c34	; 0x5c34 <Print::print(__FlashStringHelper const*)>
    8b44:	85 e4       	ldi	r24, 0x45	; 69
    8b46:	96 e6       	ldi	r25, 0x66	; 102
    8b48:	50 ce       	rjmp	.-864    	; 0x87ea <Print::println()>

00008b4a <dxUtilClass::checkVoltages(bool) [clone .constprop.124]>:
analogRead():
    8b4a:	84 e4       	ldi	r24, 0x44	; 68
    8b4c:	80 93 08 06 	sts	0x0608, r24	; 0x800608 <__TEXT_REGION_LENGTH__+0x7f0608>
    8b50:	81 e0       	ldi	r24, 0x01	; 1
    8b52:	80 93 0a 06 	sts	0x060A, r24	; 0x80060a <__TEXT_REGION_LENGTH__+0x7f060a>
    8b56:	80 91 0d 06 	lds	r24, 0x060D	; 0x80060d <__TEXT_REGION_LENGTH__+0x7f060d>
    8b5a:	80 ff       	sbrs	r24, 0
    8b5c:	fc cf       	rjmp	.-8      	; 0x8b56 <dxUtilClass::checkVoltages(bool) [clone .constprop.124]+0xc>
    8b5e:	60 91 10 06 	lds	r22, 0x0610	; 0x800610 <__TEXT_REGION_LENGTH__+0x7f0610>
    8b62:	70 91 11 06 	lds	r23, 0x0611	; 0x800611 <__TEXT_REGION_LENGTH__+0x7f0611>
getVdd():
    8b66:	07 2e       	mov	r0, r23
    8b68:	00 0c       	add	r0, r0
    8b6a:	88 0b       	sbc	r24, r24
    8b6c:	99 0b       	sbc	r25, r25
    8b6e:	0e 94 e1 64 	call	0xc9c2	; 0xc9c2 <__floatsisf>
    8b72:	2a e0       	ldi	r18, 0x0A	; 10
    8b74:	37 ed       	ldi	r19, 0xD7	; 215
    8b76:	43 ea       	ldi	r20, 0xA3	; 163
    8b78:	5b e3       	ldi	r21, 0x3B	; 59
    8b7a:	0e 94 40 65 	call	0xca80	; 0xca80 <__mulsf3>
    8b7e:	ab 01       	movw	r20, r22
    8b80:	bc 01       	movw	r22, r24
print():
    8b82:	22 e0       	ldi	r18, 0x02	; 2
    8b84:	85 e4       	ldi	r24, 0x45	; 69
    8b86:	96 e6       	ldi	r25, 0x66	; 102
    8b88:	e1 de       	rcall	.-574    	; 0x894c <Print::printFloat(double, unsigned char)>
checkVoltages():
    8b8a:	61 e0       	ldi	r22, 0x01	; 1
    8b8c:	79 e0       	ldi	r23, 0x09	; 9
    8b8e:	85 e4       	ldi	r24, 0x45	; 69
    8b90:	96 e6       	ldi	r25, 0x66	; 102
    8b92:	0e 94 1a 2e 	call	0x5c34	; 0x5c34 <Print::print(__FlashStringHelper const*)>
analogRead():
    8b96:	85 e4       	ldi	r24, 0x45	; 69
    8b98:	80 93 08 06 	sts	0x0608, r24	; 0x800608 <__TEXT_REGION_LENGTH__+0x7f0608>
    8b9c:	81 e0       	ldi	r24, 0x01	; 1
    8b9e:	80 93 0a 06 	sts	0x060A, r24	; 0x80060a <__TEXT_REGION_LENGTH__+0x7f060a>
    8ba2:	80 91 0d 06 	lds	r24, 0x060D	; 0x80060d <__TEXT_REGION_LENGTH__+0x7f060d>
    8ba6:	80 ff       	sbrs	r24, 0
    8ba8:	fc cf       	rjmp	.-8      	; 0x8ba2 <dxUtilClass::checkVoltages(bool) [clone .constprop.124]+0x58>
    8baa:	60 91 10 06 	lds	r22, 0x0610	; 0x800610 <__TEXT_REGION_LENGTH__+0x7f0610>
    8bae:	70 91 11 06 	lds	r23, 0x0611	; 0x800611 <__TEXT_REGION_LENGTH__+0x7f0611>
getVddio2():
    8bb2:	07 2e       	mov	r0, r23
    8bb4:	00 0c       	add	r0, r0
    8bb6:	88 0b       	sbc	r24, r24
    8bb8:	99 0b       	sbc	r25, r25
    8bba:	0e 94 e1 64 	call	0xc9c2	; 0xc9c2 <__floatsisf>
    8bbe:	2a e0       	ldi	r18, 0x0A	; 10
    8bc0:	37 ed       	ldi	r19, 0xD7	; 215
    8bc2:	43 ea       	ldi	r20, 0xA3	; 163
    8bc4:	5b e3       	ldi	r21, 0x3B	; 59
    8bc6:	0e 94 40 65 	call	0xca80	; 0xca80 <__mulsf3>
    8bca:	ab 01       	movw	r20, r22
    8bcc:	bc 01       	movw	r22, r24
print():
    8bce:	22 e0       	ldi	r18, 0x02	; 2
    8bd0:	85 e4       	ldi	r24, 0x45	; 69
    8bd2:	96 e6       	ldi	r25, 0x66	; 102
    8bd4:	bb de       	rcall	.-650    	; 0x894c <Print::printFloat(double, unsigned char)>
checkVoltages():
    8bd6:	6f ef       	ldi	r22, 0xFF	; 255
    8bd8:	78 e0       	ldi	r23, 0x08	; 8
    8bda:	85 e4       	ldi	r24, 0x45	; 69
    8bdc:	96 e6       	ldi	r25, 0x66	; 102
    8bde:	0c 94 1a 2e 	jmp	0x5c34	; 0x5c34 <Print::print(__FlashStringHelper const*)>

00008be2 <MenuInputByte::draw(U8G2*, unsigned int, unsigned int, unsigned int, bool)>:
draw():
    8be2:	5f 92       	push	r5
    8be4:	6f 92       	push	r6
    8be6:	7f 92       	push	r7
    8be8:	8f 92       	push	r8
    8bea:	9f 92       	push	r9
    8bec:	af 92       	push	r10
    8bee:	bf 92       	push	r11
    8bf0:	cf 92       	push	r12
    8bf2:	df 92       	push	r13
    8bf4:	ef 92       	push	r14
    8bf6:	ff 92       	push	r15
    8bf8:	0f 93       	push	r16
    8bfa:	1f 93       	push	r17
    8bfc:	cf 93       	push	r28
    8bfe:	df 93       	push	r29
    8c00:	4c 01       	movw	r8, r24
    8c02:	5b 01       	movw	r10, r22
    8c04:	ea 01       	movw	r28, r20
    8c06:	69 01       	movw	r12, r18
    8c08:	38 01       	movw	r6, r16
    8c0a:	5e 2c       	mov	r5, r14
    8c0c:	0e 94 19 3d 	call	0x7a32	; 0x7a32 <UIMenuButtonItem::draw(U8G2*, unsigned int, unsigned int, unsigned int, bool)>
_ZN4U8G212setDrawColorEh():
    8c10:	75 01       	movw	r14, r10
    8c12:	84 e0       	ldi	r24, 0x04	; 4
    8c14:	e8 0e       	add	r14, r24
    8c16:	f1 1c       	adc	r15, r1
    8c18:	61 e0       	ldi	r22, 0x01	; 1
    8c1a:	c7 01       	movw	r24, r14
    8c1c:	0e 94 9b 35 	call	0x6b36	; 0x6b36 <u8g2_SetDrawColor>
u8g2_SetFontMode():
    8c20:	f5 01       	movw	r30, r10
    8c22:	e3 59       	subi	r30, 0x93	; 147
    8c24:	ff 4f       	sbci	r31, 0xFF	; 255
    8c26:	10 82       	st	Z, r1
_ZN4U8G29setCursorEjj():
    8c28:	b5 96       	adiw	r30, 0x25	; 37
draw():
    8c2a:	c8 01       	movw	r24, r16
    8c2c:	4e 97       	sbiw	r24, 0x1e	; 30
    8c2e:	8c 0f       	add	r24, r28
    8c30:	9d 1f       	adc	r25, r29
_ZN4U8G29setCursorEjj():
    8c32:	80 83       	st	Z, r24
    8c34:	91 83       	std	Z+1, r25	; 0x01
    8c36:	32 96       	adiw	r30, 0x02	; 2
draw():
    8c38:	c6 01       	movw	r24, r12
    8c3a:	02 96       	adiw	r24, 0x02	; 2
_ZN4U8G29setCursorEjj():
    8c3c:	80 83       	st	Z, r24
    8c3e:	91 83       	std	Z+1, r25	; 0x01
print():
    8c40:	f4 01       	movw	r30, r8
    8c42:	46 81       	ldd	r20, Z+6	; 0x06
    8c44:	50 e0       	ldi	r21, 0x00	; 0
    8c46:	70 e0       	ldi	r23, 0x00	; 0
    8c48:	60 e0       	ldi	r22, 0x00	; 0
    8c4a:	2a e0       	ldi	r18, 0x0A	; 10
    8c4c:	c5 01       	movw	r24, r10
    8c4e:	e1 dd       	rcall	.-1086   	; 0x8812 <Print::printNumber(unsigned long, unsigned char)>
draw():
    8c50:	55 20       	and	r5, r5
    8c52:	b9 f0       	breq	.+46     	; 0x8c82 <MenuInputByte::draw(U8G2*, unsigned int, unsigned int, unsigned int, bool)+0xa0>
    8c54:	25 96       	adiw	r28, 0x05	; 5
    8c56:	f4 01       	movw	r30, r8
    8c58:	a2 80       	ldd	r10, Z+2	; 0x02
    8c5a:	b3 80       	ldd	r11, Z+3	; 0x03
    8c5c:	ca 0c       	add	r12, r10
    8c5e:	db 1c       	adc	r13, r11
    8c60:	fa e0       	ldi	r31, 0x0A	; 10
    8c62:	6f 1a       	sub	r6, r31
    8c64:	71 08       	sbc	r7, r1
    8c66:	84 e0       	ldi	r24, 0x04	; 4
    8c68:	a8 1a       	sub	r10, r24
    8c6a:	b1 08       	sbc	r11, r1
    8c6c:	f4 01       	movw	r30, r8
    8c6e:	86 81       	ldd	r24, Z+6	; 0x06
_ZN4U8G27drawBoxEjjjj():
    8c70:	85 01       	movw	r16, r10
    8c72:	93 01       	movw	r18, r6
    8c74:	a6 01       	movw	r20, r12
    8c76:	be 01       	movw	r22, r28
draw():
    8c78:	8f 3f       	cpi	r24, 0xFF	; 255
    8c7a:	99 f4       	brne	.+38     	; 0x8ca2 <MenuInputByte::draw(U8G2*, unsigned int, unsigned int, unsigned int, bool)+0xc0>
_ZN4U8G27drawBoxEjjjj():
    8c7c:	c7 01       	movw	r24, r14
    8c7e:	0e 94 d5 3b 	call	0x77aa	; 0x77aa <u8g2_DrawBox>
draw():
    8c82:	df 91       	pop	r29
    8c84:	cf 91       	pop	r28
    8c86:	1f 91       	pop	r17
    8c88:	0f 91       	pop	r16
    8c8a:	ff 90       	pop	r15
    8c8c:	ef 90       	pop	r14
    8c8e:	df 90       	pop	r13
    8c90:	cf 90       	pop	r12
    8c92:	bf 90       	pop	r11
    8c94:	af 90       	pop	r10
    8c96:	9f 90       	pop	r9
    8c98:	8f 90       	pop	r8
    8c9a:	7f 90       	pop	r7
    8c9c:	6f 90       	pop	r6
    8c9e:	5f 90       	pop	r5
    8ca0:	08 95       	ret
_ZN4U8G29drawFrameEjjjj():
    8ca2:	c7 01       	movw	r24, r14
    8ca4:	0e 94 83 3b 	call	0x7706	; 0x7706 <u8g2_DrawFrame>
draw():
    8ca8:	f4 01       	movw	r30, r8
    8caa:	26 81       	ldd	r18, Z+6	; 0x06
    8cac:	26 9d       	mul	r18, r6
    8cae:	c0 01       	movw	r24, r0
    8cb0:	27 9d       	mul	r18, r7
    8cb2:	90 0d       	add	r25, r0
    8cb4:	11 24       	eor	r1, r1
    8cb6:	6f ef       	ldi	r22, 0xFF	; 255
    8cb8:	70 e0       	ldi	r23, 0x00	; 0
    8cba:	0e 94 16 67 	call	0xce2c	; 0xce2c <__divmodhi4>
    8cbe:	9b 01       	movw	r18, r22
_ZN4U8G27drawBoxEjjjj():
    8cc0:	a6 01       	movw	r20, r12
    8cc2:	be 01       	movw	r22, r28
    8cc4:	db cf       	rjmp	.-74     	; 0x8c7c <MenuInputByte::draw(U8G2*, unsigned int, unsigned int, unsigned int, bool)+0x9a>

00008cc6 <myButtonCallback(K197UIeventsource, K197UIeventType)>:
myButtonCallback():
    8cc6:	bf 92       	push	r11
    8cc8:	cf 92       	push	r12
    8cca:	df 92       	push	r13
    8ccc:	ef 92       	push	r14
    8cce:	ff 92       	push	r15
    8cd0:	0f 93       	push	r16
    8cd2:	1f 93       	push	r17
    8cd4:	cf 93       	push	r28
    8cd6:	df 93       	push	r29
    8cd8:	8c 01       	movw	r16, r24
    8cda:	eb 01       	movw	r28, r22
    8cdc:	0e 94 12 2c 	call	0x5824	; 0x5824 <dxUtilClass::checkFreeStack() [clone .constprop.157]>
_ZN10K197device5isCalEv():
    8ce0:	80 91 a6 6f 	lds	r24, 0x6FA6	; 0x806fa6 <k197dev+0x10>
    8ce4:	80 fd       	sbrc	r24, 0
    8ce6:	c2 c0       	rjmp	.+388    	; 0x8e6c <myButtonCallback(K197UIeventsource, K197UIeventType)+0x1a6>
    8ce8:	e0 90 7f 6f 	lds	r14, 0x6F7F	; 0x806f7f <uiman+0x6>
    8cec:	f0 90 80 6f 	lds	r15, 0x6F80	; 0x806f80 <uiman+0x7>
handleUIEvent():
    8cf0:	04 31       	cpi	r16, 0x14	; 20
    8cf2:	11 05       	cpc	r17, r1
    8cf4:	81 f4       	brne	.+32     	; 0x8d16 <myButtonCallback(K197UIeventsource, K197UIeventType)+0x50>
    8cf6:	c2 31       	cpi	r28, 0x12	; 18
    8cf8:	d1 05       	cpc	r29, r1
    8cfa:	69 f4       	brne	.+26     	; 0x8d16 <myButtonCallback(K197UIeventsource, K197UIeventType)+0x50>
    8cfc:	c7 01       	movw	r24, r14
    8cfe:	8f 70       	andi	r24, 0x0F	; 15
    8d00:	99 27       	eor	r25, r25
_ZN9UImanager12isFullScreenEv.isra.27():
    8d02:	e4 fe       	sbrs	r14, 4
    8d04:	06 c0       	rjmp	.+12     	; 0x8d12 <myButtonCallback(K197UIeventsource, K197UIeventType)+0x4c>
showOptionsMenu():
    8d06:	80 62       	ori	r24, 0x20	; 32
setScreenMode():
    8d08:	80 93 7f 6f 	sts	0x6F7F, r24	; 0x806f7f <uiman+0x6>
    8d0c:	90 93 80 6f 	sts	0x6F80, r25	; 0x806f80 <uiman+0x7>
    8d10:	de c0       	rjmp	.+444    	; 0x8ece <myButtonCallback(K197UIeventsource, K197UIeventType)+0x208>
showFullScreen():
    8d12:	80 61       	ori	r24, 0x10	; 16
    8d14:	f9 cf       	rjmp	.-14     	; 0x8d08 <myButtonCallback(K197UIeventsource, K197UIeventType)+0x42>
_ZN9UImanager13isMenuVisibleEv.isra.29():
    8d16:	e5 fc       	sbrc	r14, 5
    8d18:	20 c0       	rjmp	.+64     	; 0x8d5a <myButtonCallback(K197UIeventsource, K197UIeventType)+0x94>
handleUIEvent():
    8d1a:	0e 94 2c 2c 	call	0x5858	; 0x5858 <UImanager::isSplitScreen() [clone .constprop.153]>
    8d1e:	81 11       	cpse	r24, r1
    8d20:	c7 c0       	rjmp	.+398    	; 0x8eb0 <myButtonCallback(K197UIeventsource, K197UIeventType)+0x1ea>
    8d22:	03 31       	cpi	r16, 0x13	; 19
    8d24:	11 05       	cpc	r17, r1
    8d26:	09 f4       	brne	.+2      	; 0x8d2a <myButtonCallback(K197UIeventsource, K197UIeventType)+0x64>
    8d28:	0c c1       	rjmp	.+536    	; 0x8f42 <myButtonCallback(K197UIeventsource, K197UIeventType)+0x27c>
    8d2a:	08 f0       	brcs	.+2      	; 0x8d2e <myButtonCallback(K197UIeventsource, K197UIeventType)+0x68>
    8d2c:	da c0       	rjmp	.+436    	; 0x8ee2 <myButtonCallback(K197UIeventsource, K197UIeventType)+0x21c>
    8d2e:	01 31       	cpi	r16, 0x11	; 17
    8d30:	11 05       	cpc	r17, r1
    8d32:	09 f0       	breq	.+2      	; 0x8d36 <myButtonCallback(K197UIeventsource, K197UIeventType)+0x70>
    8d34:	93 c0       	rjmp	.+294    	; 0x8e5c <myButtonCallback(K197UIeventsource, K197UIeventType)+0x196>
    8d36:	80 91 b5 6e 	lds	r24, 0x6EB5	; 0x806eb5 <reassignStoRcl+0x6>
    8d3a:	88 23       	and	r24, r24
    8d3c:	09 f4       	brne	.+2      	; 0x8d40 <myButtonCallback(K197UIeventsource, K197UIeventType)+0x7a>
    8d3e:	92 c0       	rjmp	.+292    	; 0x8e64 <myButtonCallback(K197UIeventsource, K197UIeventType)+0x19e>
    8d40:	c1 31       	cpi	r28, 0x11	; 17
    8d42:	d1 05       	cpc	r29, r1
    8d44:	09 f0       	breq	.+2      	; 0x8d48 <myButtonCallback(K197UIeventsource, K197UIeventType)+0x82>
    8d46:	ed c0       	rjmp	.+474    	; 0x8f22 <myButtonCallback(K197UIeventsource, K197UIeventType)+0x25c>
_ZN10K197device14getDisplayHoldEv():
    8d48:	90 91 96 6f 	lds	r25, 0x6F96	; 0x806f96 <k197dev>
_ZN10K197device14setDisplayHoldEb():
    8d4c:	89 2f       	mov	r24, r25
    8d4e:	87 7f       	andi	r24, 0xF7	; 247
    8d50:	93 ff       	sbrs	r25, 3
    8d52:	88 60       	ori	r24, 0x08	; 8
_ZN10K197device9setTKModeEb():
    8d54:	80 93 96 6f 	sts	0x6F96, r24	; 0x806f96 <k197dev>
    8d58:	4b c0       	rjmp	.+150    	; 0x8df0 <myButtonCallback(K197UIeventsource, K197UIeventType)+0x12a>
_ZN6UImenu14getCurrentMenuEv():
    8d5a:	e0 90 8b 6f 	lds	r14, 0x6F8B	; 0x806f8b <UImenu::currentMenu>
    8d5e:	f0 90 8c 6f 	lds	r15, 0x6F8C	; 0x806f8c <UImenu::currentMenu+0x1>
handleUIEvent():
    8d62:	d7 01       	movw	r26, r14
    8d64:	14 96       	adiw	r26, 0x04	; 4
    8d66:	8c 91       	ld	r24, X
    8d68:	14 97       	sbiw	r26, 0x04	; 4
    8d6a:	90 e0       	ldi	r25, 0x00	; 0
    8d6c:	88 0f       	add	r24, r24
    8d6e:	99 1f       	adc	r25, r25
    8d70:	2d 91       	ld	r18, X+
    8d72:	3c 91       	ld	r19, X
    8d74:	82 0f       	add	r24, r18
    8d76:	93 1f       	adc	r25, r19
    8d78:	fc 01       	movw	r30, r24
    8d7a:	80 81       	ld	r24, Z
    8d7c:	91 81       	ldd	r25, Z+1	; 0x01
    8d7e:	dc 01       	movw	r26, r24
    8d80:	ed 91       	ld	r30, X+
    8d82:	fc 91       	ld	r31, X
    8d84:	04 80       	ldd	r0, Z+4	; 0x04
    8d86:	f5 81       	ldd	r31, Z+5	; 0x05
    8d88:	e0 2d       	mov	r30, r0
    8d8a:	ae 01       	movw	r20, r28
    8d8c:	b8 01       	movw	r22, r16
    8d8e:	09 95       	icall
    8d90:	81 11       	cpse	r24, r1
    8d92:	2e c0       	rjmp	.+92     	; 0x8df0 <myButtonCallback(K197UIeventsource, K197UIeventType)+0x12a>
    8d94:	05 31       	cpi	r16, 0x15	; 21
    8d96:	11 05       	cpc	r17, r1
    8d98:	a9 f5       	brne	.+106    	; 0x8e04 <myButtonCallback(K197UIeventsource, K197UIeventType)+0x13e>
    8d9a:	ce 01       	movw	r24, r28
    8d9c:	41 97       	sbiw	r24, 0x11	; 17
    8d9e:	03 97       	sbiw	r24, 0x03	; 3
    8da0:	08 f0       	brcs	.+2      	; 0x8da4 <myButtonCallback(K197UIeventsource, K197UIeventType)+0xde>
    8da2:	5c c0       	rjmp	.+184    	; 0x8e5c <myButtonCallback(K197UIeventsource, K197UIeventType)+0x196>
    8da4:	f7 01       	movw	r30, r14
    8da6:	d4 80       	ldd	r13, Z+4	; 0x04
    8da8:	82 81       	ldd	r24, Z+2	; 0x02
    8daa:	81 50       	subi	r24, 0x01	; 1
    8dac:	99 0b       	sbc	r25, r25
    8dae:	d8 16       	cp	r13, r24
    8db0:	19 06       	cpc	r1, r25
    8db2:	0c f0       	brlt	.+2      	; 0x8db6 <myButtonCallback(K197UIeventsource, K197UIeventType)+0xf0>
    8db4:	53 c0       	rjmp	.+166    	; 0x8e5c <myButtonCallback(K197UIeventsource, K197UIeventType)+0x196>
    8db6:	d3 94       	inc	r13
    8db8:	d7 01       	movw	r26, r14
    8dba:	12 96       	adiw	r26, 0x02	; 2
    8dbc:	8c 91       	ld	r24, X
    8dbe:	12 97       	sbiw	r26, 0x02	; 2
    8dc0:	d8 16       	cp	r13, r24
    8dc2:	08 f0       	brcs	.+2      	; 0x8dc6 <myButtonCallback(K197UIeventsource, K197UIeventType)+0x100>
    8dc4:	4b c0       	rjmp	.+150    	; 0x8e5c <myButtonCallback(K197UIeventsource, K197UIeventType)+0x196>
    8dc6:	8d 2d       	mov	r24, r13
    8dc8:	90 e0       	ldi	r25, 0x00	; 0
    8dca:	88 0f       	add	r24, r24
    8dcc:	99 1f       	adc	r25, r25
    8dce:	ed 91       	ld	r30, X+
    8dd0:	fc 91       	ld	r31, X
    8dd2:	e8 0f       	add	r30, r24
    8dd4:	f9 1f       	adc	r31, r25
    8dd6:	80 81       	ld	r24, Z
    8dd8:	91 81       	ldd	r25, Z+1	; 0x01
    8dda:	dc 01       	movw	r26, r24
    8ddc:	ed 91       	ld	r30, X+
    8dde:	fc 91       	ld	r31, X
    8de0:	06 80       	ldd	r0, Z+6	; 0x06
    8de2:	f7 81       	ldd	r31, Z+7	; 0x07
    8de4:	e0 2d       	mov	r30, r0
    8de6:	09 95       	icall
    8de8:	88 23       	and	r24, r24
    8dea:	29 f3       	breq	.-54     	; 0x8db6 <myButtonCallback(K197UIeventsource, K197UIeventType)+0xf0>
    8dec:	f7 01       	movw	r30, r14
    8dee:	d4 82       	std	Z+4, r13	; 0x04
myButtonCallback():
    8df0:	df 91       	pop	r29
    8df2:	cf 91       	pop	r28
    8df4:	1f 91       	pop	r17
    8df6:	0f 91       	pop	r16
    8df8:	ff 90       	pop	r15
    8dfa:	ef 90       	pop	r14
    8dfc:	df 90       	pop	r13
    8dfe:	cf 90       	pop	r12
    8e00:	bf 90       	pop	r11
    8e02:	08 95       	ret
handleUIEvent():
    8e04:	04 31       	cpi	r16, 0x14	; 20
    8e06:	11 05       	cpc	r17, r1
    8e08:	49 f5       	brne	.+82     	; 0x8e5c <myButtonCallback(K197UIeventsource, K197UIeventType)+0x196>
    8e0a:	c1 30       	cpi	r28, 0x01	; 1
    8e0c:	d1 05       	cpc	r29, r1
    8e0e:	31 f5       	brne	.+76     	; 0x8e5c <myButtonCallback(K197UIeventsource, K197UIeventType)+0x196>
    8e10:	d7 01       	movw	r26, r14
    8e12:	14 96       	adiw	r26, 0x04	; 4
    8e14:	bc 90       	ld	r11, X
    8e16:	bb 20       	and	r11, r11
    8e18:	09 f1       	breq	.+66     	; 0x8e5c <myButtonCallback(K197UIeventsource, K197UIeventType)+0x196>
    8e1a:	cb 2c       	mov	r12, r11
    8e1c:	d1 2c       	mov	r13, r1
    8e1e:	b1 e0       	ldi	r27, 0x01	; 1
    8e20:	cb 1a       	sub	r12, r27
    8e22:	b0 e8       	ldi	r27, 0x80	; 128
    8e24:	db 0a       	sbc	r13, r27
    8e26:	cc 0c       	add	r12, r12
    8e28:	dd 1c       	adc	r13, r13
    8e2a:	d7 01       	movw	r26, r14
    8e2c:	ed 91       	ld	r30, X+
    8e2e:	fc 91       	ld	r31, X
    8e30:	ec 0d       	add	r30, r12
    8e32:	fd 1d       	adc	r31, r13
    8e34:	80 81       	ld	r24, Z
    8e36:	91 81       	ldd	r25, Z+1	; 0x01
    8e38:	dc 01       	movw	r26, r24
    8e3a:	ed 91       	ld	r30, X+
    8e3c:	fc 91       	ld	r31, X
    8e3e:	06 80       	ldd	r0, Z+6	; 0x06
    8e40:	f7 81       	ldd	r31, Z+7	; 0x07
    8e42:	e0 2d       	mov	r30, r0
    8e44:	09 95       	icall
    8e46:	ba 94       	dec	r11
    8e48:	88 23       	and	r24, r24
    8e4a:	19 f0       	breq	.+6      	; 0x8e52 <myButtonCallback(K197UIeventsource, K197UIeventType)+0x18c>
    8e4c:	f7 01       	movw	r30, r14
    8e4e:	b4 82       	std	Z+4, r11	; 0x04
    8e50:	cf cf       	rjmp	.-98     	; 0x8df0 <myButtonCallback(K197UIeventsource, K197UIeventType)+0x12a>
    8e52:	f2 e0       	ldi	r31, 0x02	; 2
    8e54:	cf 1a       	sub	r12, r31
    8e56:	d1 08       	sbc	r13, r1
    8e58:	b1 10       	cpse	r11, r1
    8e5a:	e7 cf       	rjmp	.-50     	; 0x8e2a <myButtonCallback(K197UIeventsource, K197UIeventType)+0x164>
_ZN10K197device5isCalEv():
    8e5c:	80 91 a6 6f 	lds	r24, 0x6FA6	; 0x806fa6 <k197dev+0x10>
    8e60:	80 fd       	sbrc	r24, 0
    8e62:	04 c0       	rjmp	.+8      	; 0x8e6c <myButtonCallback(K197UIeventsource, K197UIeventType)+0x1a6>
myButtonCallback():
    8e64:	0e 94 2c 2c 	call	0x5858	; 0x5858 <UImanager::isSplitScreen() [clone .constprop.153]>
    8e68:	81 11       	cpse	r24, r1
    8e6a:	c2 cf       	rjmp	.-124    	; 0x8df0 <myButtonCallback(K197UIeventsource, K197UIeventType)+0x12a>
    8e6c:	c8 01       	movw	r24, r16
    8e6e:	44 97       	sbiw	r24, 0x14	; 20
    8e70:	02 97       	sbiw	r24, 0x02	; 2
    8e72:	08 f0       	brcs	.+2      	; 0x8e76 <myButtonCallback(K197UIeventsource, K197UIeventType)+0x1b0>
    8e74:	b9 c0       	rjmp	.+370    	; 0x8fe8 <myButtonCallback(K197UIeventsource, K197UIeventType)+0x322>
isSimultaneousPress():
    8e76:	84 e1       	ldi	r24, 0x14	; 20
    8e78:	90 e0       	ldi	r25, 0x00	; 0
    8e7a:	0e 94 3f 2c 	call	0x587e	; 0x587e <k197ButtonCluster::isPressed(K197UIeventsource) [clone .constprop.152]>
    8e7e:	88 23       	and	r24, r24
    8e80:	09 f4       	brne	.+2      	; 0x8e84 <myButtonCallback(K197UIeventsource, K197UIeventType)+0x1be>
    8e82:	b2 c0       	rjmp	.+356    	; 0x8fe8 <myButtonCallback(K197UIeventsource, K197UIeventType)+0x322>
    8e84:	85 e1       	ldi	r24, 0x15	; 21
    8e86:	90 e0       	ldi	r25, 0x00	; 0
    8e88:	0e 94 3f 2c 	call	0x587e	; 0x587e <k197ButtonCluster::isPressed(K197UIeventsource) [clone .constprop.152]>
    8e8c:	88 23       	and	r24, r24
    8e8e:	09 f4       	brne	.+2      	; 0x8e92 <myButtonCallback(K197UIeventsource, K197UIeventType)+0x1cc>
    8e90:	ab c0       	rjmp	.+342    	; 0x8fe8 <myButtonCallback(K197UIeventsource, K197UIeventType)+0x322>
myButtonCallback():
    8e92:	c1 31       	cpi	r28, 0x11	; 17
    8e94:	d1 05       	cpc	r29, r1
    8e96:	09 f0       	breq	.+2      	; 0x8e9a <myButtonCallback(K197UIeventsource, K197UIeventType)+0x1d4>
    8e98:	cc c0       	rjmp	.+408    	; 0x9032 <myButtonCallback(K197UIeventsource, K197UIeventType)+0x36c>
_pinConfigure():
    8e9a:	88 e0       	ldi	r24, 0x08	; 8
    8e9c:	80 93 61 04 	sts	0x0461, r24	; 0x800461 <__TEXT_REGION_LENGTH__+0x7f0461>
    8ea0:	80 93 65 04 	sts	0x0465, r24	; 0x800465 <__TEXT_REGION_LENGTH__+0x7f0465>
    8ea4:	80 e1       	ldi	r24, 0x10	; 16
    8ea6:	80 93 61 04 	sts	0x0461, r24	; 0x800461 <__TEXT_REGION_LENGTH__+0x7f0461>
    8eaa:	80 93 65 04 	sts	0x0465, r24	; 0x800465 <__TEXT_REGION_LENGTH__+0x7f0465>
    8eae:	a0 cf       	rjmp	.-192    	; 0x8df0 <myButtonCallback(K197UIeventsource, K197UIeventType)+0x12a>
handleUIEvent():
    8eb0:	c1 30       	cpi	r28, 0x01	; 1
    8eb2:	d1 05       	cpc	r29, r1
    8eb4:	19 f0       	breq	.+6      	; 0x8ebc <myButtonCallback(K197UIeventsource, K197UIeventType)+0x1f6>
    8eb6:	c2 31       	cpi	r28, 0x12	; 18
    8eb8:	d1 05       	cpc	r29, r1
    8eba:	a1 f6       	brne	.-88     	; 0x8e64 <myButtonCallback(K197UIeventsource, K197UIeventType)+0x19e>
showFullScreen():
    8ebc:	2f e0       	ldi	r18, 0x0F	; 15
    8ebe:	e2 22       	and	r14, r18
    8ec0:	ff 24       	eor	r15, r15
    8ec2:	68 94       	set
    8ec4:	e4 f8       	bld	r14, 4
    8ec6:	e0 92 7f 6f 	sts	0x6F7F, r14	; 0x806f7f <uiman+0x6>
    8eca:	f0 92 80 6f 	sts	0x6F80, r15	; 0x806f80 <uiman+0x7>
myButtonCallback():
    8ece:	df 91       	pop	r29
    8ed0:	cf 91       	pop	r28
    8ed2:	1f 91       	pop	r17
    8ed4:	0f 91       	pop	r16
    8ed6:	ff 90       	pop	r15
    8ed8:	ef 90       	pop	r14
    8eda:	df 90       	pop	r13
    8edc:	cf 90       	pop	r12
    8ede:	bf 90       	pop	r11
setScreenMode():
    8ee0:	f5 ca       	rjmp	.-2582   	; 0x84cc <UImanager::clearScreen() [clone .constprop.148]>
handleUIEvent():
    8ee2:	04 31       	cpi	r16, 0x14	; 20
    8ee4:	11 05       	cpc	r17, r1
    8ee6:	09 f4       	brne	.+2      	; 0x8eea <myButtonCallback(K197UIeventsource, K197UIeventType)+0x224>
    8ee8:	53 c0       	rjmp	.+166    	; 0x8f90 <myButtonCallback(K197UIeventsource, K197UIeventType)+0x2ca>
    8eea:	05 31       	cpi	r16, 0x15	; 21
    8eec:	11 05       	cpc	r17, r1
    8eee:	09 f0       	breq	.+2      	; 0x8ef2 <myButtonCallback(K197UIeventsource, K197UIeventType)+0x22c>
    8ef0:	b5 cf       	rjmp	.-150    	; 0x8e5c <myButtonCallback(K197UIeventsource, K197UIeventType)+0x196>
    8ef2:	80 91 bc 6e 	lds	r24, 0x6EBC	; 0x806ebc <additionalModes+0x6>
    8ef6:	88 23       	and	r24, r24
    8ef8:	09 f4       	brne	.+2      	; 0x8efc <myButtonCallback(K197UIeventsource, K197UIeventType)+0x236>
    8efa:	b4 cf       	rjmp	.-152    	; 0x8e64 <myButtonCallback(K197UIeventsource, K197UIeventType)+0x19e>
    8efc:	c1 31       	cpi	r28, 0x11	; 17
    8efe:	d1 05       	cpc	r29, r1
    8f00:	09 f0       	breq	.+2      	; 0x8f04 <myButtonCallback(K197UIeventsource, K197UIeventType)+0x23e>
    8f02:	b0 cf       	rjmp	.-160    	; 0x8e64 <myButtonCallback(K197UIeventsource, K197UIeventType)+0x19e>
    8f04:	80 91 a5 6f 	lds	r24, 0x6FA5	; 0x806fa5 <k197dev+0xf>
    8f08:	89 70       	andi	r24, 0x09	; 9
    8f0a:	89 30       	cpi	r24, 0x09	; 9
    8f0c:	21 f4       	brne	.+8      	; 0x8f16 <myButtonCallback(K197UIeventsource, K197UIeventType)+0x250>
    8f0e:	80 91 a4 6f 	lds	r24, 0x6FA4	; 0x806fa4 <k197dev+0xe>
    8f12:	84 ff       	sbrs	r24, 4
    8f14:	63 c0       	rjmp	.+198    	; 0x8fdc <myButtonCallback(K197UIeventsource, K197UIeventType)+0x316>
_ZN10K197device9setTKModeEb():
    8f16:	80 91 96 6f 	lds	r24, 0x6F96	; 0x806f96 <k197dev>
    8f1a:	8e 7f       	andi	r24, 0xFE	; 254
    8f1c:	80 93 96 6f 	sts	0x6F96, r24	; 0x806f96 <k197dev>
    8f20:	9d cf       	rjmp	.-198    	; 0x8e5c <myButtonCallback(K197UIeventsource, K197UIeventType)+0x196>
handleUIEvent():
    8f22:	62 97       	sbiw	r28, 0x12	; 18
    8f24:	09 f0       	breq	.+2      	; 0x8f28 <myButtonCallback(K197UIeventsource, K197UIeventType)+0x262>
    8f26:	64 cf       	rjmp	.-312    	; 0x8df0 <myButtonCallback(K197UIeventsource, K197UIeventType)+0x12a>
    8f28:	c7 01       	movw	r24, r14
    8f2a:	80 7f       	andi	r24, 0xF0	; 240
    8f2c:	99 27       	eor	r25, r25
_ZN9UImanager13getScreenModeEv():
    8f2e:	af e0       	ldi	r26, 0x0F	; 15
    8f30:	ea 22       	and	r14, r26
    8f32:	ff 24       	eor	r15, r15
handleUIEvent():
    8f34:	ea 94       	dec	r14
    8f36:	ef 28       	or	r14, r15
    8f38:	11 f4       	brne	.+4      	; 0x8f3e <myButtonCallback(K197UIeventsource, K197UIeventType)+0x278>
setScreenMode():
    8f3a:	82 60       	ori	r24, 0x02	; 2
    8f3c:	e5 ce       	rjmp	.-566    	; 0x8d08 <myButtonCallback(K197UIeventsource, K197UIeventType)+0x42>
    8f3e:	81 60       	ori	r24, 0x01	; 1
    8f40:	e3 ce       	rjmp	.-570    	; 0x8d08 <myButtonCallback(K197UIeventsource, K197UIeventType)+0x42>
handleUIEvent():
    8f42:	80 91 b5 6e 	lds	r24, 0x6EB5	; 0x806eb5 <reassignStoRcl+0x6>
    8f46:	88 23       	and	r24, r24
    8f48:	09 f4       	brne	.+2      	; 0x8f4c <myButtonCallback(K197UIeventsource, K197UIeventType)+0x286>
    8f4a:	8c cf       	rjmp	.-232    	; 0x8e64 <myButtonCallback(K197UIeventsource, K197UIeventType)+0x19e>
    8f4c:	c1 31       	cpi	r28, 0x11	; 17
    8f4e:	d1 05       	cpc	r29, r1
    8f50:	09 f0       	breq	.+2      	; 0x8f54 <myButtonCallback(K197UIeventsource, K197UIeventType)+0x28e>
    8f52:	88 cf       	rjmp	.-240    	; 0x8e64 <myButtonCallback(K197UIeventsource, K197UIeventType)+0x19e>
    8f54:	6f e2       	ldi	r22, 0x2F	; 47
    8f56:	75 e0       	ldi	r23, 0x05	; 5
    8f58:	85 e4       	ldi	r24, 0x45	; 69
    8f5a:	96 e6       	ldi	r25, 0x66	; 102
    8f5c:	0e 94 1a 2e 	call	0x5c34	; 0x5c34 <Print::print(__FlashStringHelper const*)>
print():
    8f60:	40 91 79 6f 	lds	r20, 0x6F79	; 0x806f79 <uiman>
    8f64:	50 91 7a 6f 	lds	r21, 0x6F7A	; 0x806f7a <uiman+0x1>
    8f68:	60 91 7b 6f 	lds	r22, 0x6F7B	; 0x806f7b <uiman+0x2>
    8f6c:	70 91 7c 6f 	lds	r23, 0x6F7C	; 0x806f7c <uiman+0x3>
    8f70:	2a e0       	ldi	r18, 0x0A	; 10
    8f72:	85 e4       	ldi	r24, 0x45	; 69
    8f74:	96 e6       	ldi	r25, 0x66	; 102
    8f76:	4d dc       	rcall	.-1894   	; 0x8812 <Print::printNumber(unsigned long, unsigned char)>
println():
    8f78:	85 e4       	ldi	r24, 0x45	; 69
    8f7a:	96 e6       	ldi	r25, 0x66	; 102
    8f7c:	36 dc       	rcall	.-1940   	; 0x87ea <Print::println()>
handleUIEvent():
    8f7e:	10 92 79 6f 	sts	0x6F79, r1	; 0x806f79 <uiman>
    8f82:	10 92 7a 6f 	sts	0x6F7A, r1	; 0x806f7a <uiman+0x1>
    8f86:	10 92 7b 6f 	sts	0x6F7B, r1	; 0x806f7b <uiman+0x2>
    8f8a:	10 92 7c 6f 	sts	0x6F7C, r1	; 0x806f7c <uiman+0x3>
    8f8e:	30 cf       	rjmp	.-416    	; 0x8df0 <myButtonCallback(K197UIeventsource, K197UIeventType)+0x12a>
    8f90:	c2 30       	cpi	r28, 0x02	; 2
    8f92:	d1 05       	cpc	r29, r1
    8f94:	09 f0       	breq	.+2      	; 0x8f98 <myButtonCallback(K197UIeventsource, K197UIeventType)+0x2d2>
    8f96:	66 cf       	rjmp	.-308    	; 0x8e64 <myButtonCallback(K197UIeventsource, K197UIeventType)+0x19e>
cancelClickREL():
    8f98:	1e ba       	out	0x1e, r1	; 30
resetStatistics():
    8f9a:	80 91 a0 6f 	lds	r24, 0x6FA0	; 0x806fa0 <k197dev+0xa>
    8f9e:	90 91 a1 6f 	lds	r25, 0x6FA1	; 0x806fa1 <k197dev+0xb>
    8fa2:	a0 91 a2 6f 	lds	r26, 0x6FA2	; 0x806fa2 <k197dev+0xc>
    8fa6:	b0 91 a3 6f 	lds	r27, 0x6FA3	; 0x806fa3 <k197dev+0xd>
    8faa:	80 93 b4 6f 	sts	0x6FB4, r24	; 0x806fb4 <k197dev+0x1e>
    8fae:	90 93 b5 6f 	sts	0x6FB5, r25	; 0x806fb5 <k197dev+0x1f>
    8fb2:	a0 93 b6 6f 	sts	0x6FB6, r26	; 0x806fb6 <k197dev+0x20>
    8fb6:	b0 93 b7 6f 	sts	0x6FB7, r27	; 0x806fb7 <k197dev+0x21>
    8fba:	80 93 b8 6f 	sts	0x6FB8, r24	; 0x806fb8 <k197dev+0x22>
    8fbe:	90 93 b9 6f 	sts	0x6FB9, r25	; 0x806fb9 <k197dev+0x23>
    8fc2:	a0 93 ba 6f 	sts	0x6FBA, r26	; 0x806fba <k197dev+0x24>
    8fc6:	b0 93 bb 6f 	sts	0x6FBB, r27	; 0x806fbb <k197dev+0x25>
    8fca:	80 93 bc 6f 	sts	0x6FBC, r24	; 0x806fbc <k197dev+0x26>
    8fce:	90 93 bd 6f 	sts	0x6FBD, r25	; 0x806fbd <k197dev+0x27>
    8fd2:	a0 93 be 6f 	sts	0x6FBE, r26	; 0x806fbe <k197dev+0x28>
    8fd6:	b0 93 bf 6f 	sts	0x6FBF, r27	; 0x806fbf <k197dev+0x29>
    8fda:	0a cf       	rjmp	.-492    	; 0x8df0 <myButtonCallback(K197UIeventsource, K197UIeventType)+0x12a>
_ZN10K197device9getTKModeEv():
    8fdc:	80 91 96 6f 	lds	r24, 0x6F96	; 0x806f96 <k197dev>
handleUIEvent():
    8fe0:	80 fd       	sbrc	r24, 0
    8fe2:	40 cf       	rjmp	.-384    	; 0x8e64 <myButtonCallback(K197UIeventsource, K197UIeventType)+0x19e>
_ZN10K197device9setTKModeEb():
    8fe4:	81 60       	ori	r24, 0x01	; 1
    8fe6:	b6 ce       	rjmp	.-660    	; 0x8d54 <myButtonCallback(K197UIeventsource, K197UIeventType)+0x8e>
myButtonCallback():
    8fe8:	03 31       	cpi	r16, 0x13	; 19
    8fea:	11 05       	cpc	r17, r1
    8fec:	61 f1       	breq	.+88     	; 0x9046 <myButtonCallback(K197UIeventsource, K197UIeventType)+0x380>
    8fee:	90 f4       	brcc	.+36     	; 0x9014 <myButtonCallback(K197UIeventsource, K197UIeventType)+0x34e>
    8ff0:	01 31       	cpi	r16, 0x11	; 17
    8ff2:	11 05       	cpc	r17, r1
    8ff4:	09 f0       	breq	.+2      	; 0x8ff8 <myButtonCallback(K197UIeventsource, K197UIeventType)+0x332>
    8ff6:	fc ce       	rjmp	.-520    	; 0x8df0 <myButtonCallback(K197UIeventsource, K197UIeventType)+0x12a>
_pinConfigure():
    8ff8:	84 e0       	ldi	r24, 0x04	; 4
myButtonCallback():
    8ffa:	c1 31       	cpi	r28, 0x11	; 17
    8ffc:	d1 05       	cpc	r29, r1
    8ffe:	09 f4       	brne	.+2      	; 0x9002 <myButtonCallback(K197UIeventsource, K197UIeventType)+0x33c>
    9000:	52 cf       	rjmp	.-348    	; 0x8ea6 <myButtonCallback(K197UIeventsource, K197UIeventType)+0x1e0>
_pinConfigure():
    9002:	84 e0       	ldi	r24, 0x04	; 4
myButtonCallback():
    9004:	64 97       	sbiw	r28, 0x14	; 20
    9006:	09 f0       	breq	.+2      	; 0x900a <myButtonCallback(K197UIeventsource, K197UIeventType)+0x344>
    9008:	f3 ce       	rjmp	.-538    	; 0x8df0 <myButtonCallback(K197UIeventsource, K197UIeventType)+0x12a>
_pinConfigure():
    900a:	80 93 62 04 	sts	0x0462, r24	; 0x800462 <__TEXT_REGION_LENGTH__+0x7f0462>
    900e:	80 93 66 04 	sts	0x0466, r24	; 0x800466 <__TEXT_REGION_LENGTH__+0x7f0466>
    9012:	ee ce       	rjmp	.-548    	; 0x8df0 <myButtonCallback(K197UIeventsource, K197UIeventType)+0x12a>
myButtonCallback():
    9014:	04 31       	cpi	r16, 0x14	; 20
    9016:	11 05       	cpc	r17, r1
    9018:	01 f1       	breq	.+64     	; 0x905a <myButtonCallback(K197UIeventsource, K197UIeventType)+0x394>
    901a:	05 31       	cpi	r16, 0x15	; 21
    901c:	11 05       	cpc	r17, r1
    901e:	09 f0       	breq	.+2      	; 0x9022 <myButtonCallback(K197UIeventsource, K197UIeventType)+0x35c>
    9020:	e7 ce       	rjmp	.-562    	; 0x8df0 <myButtonCallback(K197UIeventsource, K197UIeventType)+0x12a>
    9022:	c1 31       	cpi	r28, 0x11	; 17
    9024:	d1 05       	cpc	r29, r1
    9026:	09 f4       	brne	.+2      	; 0x902a <myButtonCallback(K197UIeventsource, K197UIeventType)+0x364>
    9028:	3d cf       	rjmp	.-390    	; 0x8ea4 <myButtonCallback(K197UIeventsource, K197UIeventType)+0x1de>
    902a:	64 97       	sbiw	r28, 0x14	; 20
    902c:	09 f0       	breq	.+2      	; 0x9030 <myButtonCallback(K197UIeventsource, K197UIeventType)+0x36a>
    902e:	e0 ce       	rjmp	.-576    	; 0x8df0 <myButtonCallback(K197UIeventsource, K197UIeventType)+0x12a>
    9030:	08 c0       	rjmp	.+16     	; 0x9042 <myButtonCallback(K197UIeventsource, K197UIeventType)+0x37c>
    9032:	64 97       	sbiw	r28, 0x14	; 20
    9034:	09 f0       	breq	.+2      	; 0x9038 <myButtonCallback(K197UIeventsource, K197UIeventType)+0x372>
    9036:	dc ce       	rjmp	.-584    	; 0x8df0 <myButtonCallback(K197UIeventsource, K197UIeventType)+0x12a>
_pinConfigure():
    9038:	88 e0       	ldi	r24, 0x08	; 8
    903a:	80 93 62 04 	sts	0x0462, r24	; 0x800462 <__TEXT_REGION_LENGTH__+0x7f0462>
    903e:	80 93 66 04 	sts	0x0466, r24	; 0x800466 <__TEXT_REGION_LENGTH__+0x7f0466>
    9042:	80 e1       	ldi	r24, 0x10	; 16
    9044:	e2 cf       	rjmp	.-60     	; 0x900a <myButtonCallback(K197UIeventsource, K197UIeventType)+0x344>
    9046:	82 e0       	ldi	r24, 0x02	; 2
myButtonCallback():
    9048:	c1 31       	cpi	r28, 0x11	; 17
    904a:	d1 05       	cpc	r29, r1
    904c:	09 f4       	brne	.+2      	; 0x9050 <myButtonCallback(K197UIeventsource, K197UIeventType)+0x38a>
    904e:	2b cf       	rjmp	.-426    	; 0x8ea6 <myButtonCallback(K197UIeventsource, K197UIeventType)+0x1e0>
_pinConfigure():
    9050:	82 e0       	ldi	r24, 0x02	; 2
myButtonCallback():
    9052:	64 97       	sbiw	r28, 0x14	; 20
    9054:	09 f0       	breq	.+2      	; 0x9058 <myButtonCallback(K197UIeventsource, K197UIeventType)+0x392>
    9056:	cc ce       	rjmp	.-616    	; 0x8df0 <myButtonCallback(K197UIeventsource, K197UIeventType)+0x12a>
    9058:	d8 cf       	rjmp	.-80     	; 0x900a <myButtonCallback(K197UIeventsource, K197UIeventType)+0x344>
_ZN10K197device5isCalEv():
    905a:	80 91 a6 6f 	lds	r24, 0x6FA6	; 0x806fa6 <k197dev+0x10>
    905e:	80 fd       	sbrc	r24, 0
    9060:	2a c0       	rjmp	.+84     	; 0x90b6 <myButtonCallback(K197UIeventsource, K197UIeventType)+0x3f0>
myButtonCallback():
    9062:	c1 30       	cpi	r28, 0x01	; 1
    9064:	d1 05       	cpc	r29, r1
    9066:	39 f5       	brne	.+78     	; 0x90b6 <myButtonCallback(K197UIeventsource, K197UIeventType)+0x3f0>
clickREL():
    9068:	8e b3       	in	r24, 0x1e	; 30
    906a:	85 30       	cpi	r24, 0x05	; 5
    906c:	20 f5       	brcc	.+72     	; 0x90b6 <myButtonCallback(K197UIeventsource, K197UIeventType)+0x3f0>
    906e:	f8 94       	cli
    9070:	8e b3       	in	r24, 0x1e	; 30
    9072:	8f 5f       	subi	r24, 0xFF	; 255
    9074:	8e bb       	out	0x1e, r24	; 30
    9076:	80 91 00 0a 	lds	r24, 0x0A00	; 0x800a00 <__TEXT_REGION_LENGTH__+0x7f0a00>
    907a:	80 fd       	sbrc	r24, 0
    907c:	1b c0       	rjmp	.+54     	; 0x90b4 <myButtonCallback(K197UIeventsource, K197UIeventType)+0x3ee>
    907e:	10 92 01 0a 	sts	0x0A01, r1	; 0x800a01 <__TEXT_REGION_LENGTH__+0x7f0a01>
    9082:	80 91 09 0a 	lds	r24, 0x0A09	; 0x800a09 <__TEXT_REGION_LENGTH__+0x7f0a09>
    9086:	8e 7f       	andi	r24, 0xFE	; 254
    9088:	80 93 09 0a 	sts	0x0A09, r24	; 0x800a09 <__TEXT_REGION_LENGTH__+0x7f0a09>
    908c:	88 e9       	ldi	r24, 0x98	; 152
    908e:	9a e3       	ldi	r25, 0x3A	; 58
    9090:	80 93 26 0a 	sts	0x0A26, r24	; 0x800a26 <__TEXT_REGION_LENGTH__+0x7f0a26>
    9094:	90 93 27 0a 	sts	0x0A27, r25	; 0x800a27 <__TEXT_REGION_LENGTH__+0x7f0a27>
    9098:	8e ee       	ldi	r24, 0xEE	; 238
    909a:	92 e0       	ldi	r25, 0x02	; 2
    909c:	80 93 28 0a 	sts	0x0A28, r24	; 0x800a28 <__TEXT_REGION_LENGTH__+0x7f0a28>
    90a0:	90 93 29 0a 	sts	0x0A29, r25	; 0x800a29 <__TEXT_REGION_LENGTH__+0x7f0a29>
    90a4:	81 e1       	ldi	r24, 0x11	; 17
    90a6:	80 93 0a 0a 	sts	0x0A0A, r24	; 0x800a0a <__TEXT_REGION_LENGTH__+0x7f0a0a>
    90aa:	8f e0       	ldi	r24, 0x0F	; 15
    90ac:	80 93 00 0a 	sts	0x0A00, r24	; 0x800a00 <__TEXT_REGION_LENGTH__+0x7f0a00>
    90b0:	81 e0       	ldi	r24, 0x01	; 1
    90b2:	8e bb       	out	0x1e, r24	; 30
    90b4:	78 94       	sei
_ZN10K197device5isCalEv():
    90b6:	80 91 a6 6f 	lds	r24, 0x6FA6	; 0x806fa6 <k197dev+0x10>
    90ba:	80 ff       	sbrs	r24, 0
    90bc:	99 ce       	rjmp	.-718    	; 0x8df0 <myButtonCallback(K197UIeventsource, K197UIeventType)+0x12a>
_pinConfigure():
    90be:	88 e0       	ldi	r24, 0x08	; 8
myButtonCallback():
    90c0:	c1 31       	cpi	r28, 0x11	; 17
    90c2:	d1 05       	cpc	r29, r1
    90c4:	09 f4       	brne	.+2      	; 0x90c8 <myButtonCallback(K197UIeventsource, K197UIeventType)+0x402>
    90c6:	ef ce       	rjmp	.-546    	; 0x8ea6 <myButtonCallback(K197UIeventsource, K197UIeventType)+0x1e0>
_pinConfigure():
    90c8:	88 e0       	ldi	r24, 0x08	; 8
myButtonCallback():
    90ca:	64 97       	sbiw	r28, 0x14	; 20
    90cc:	09 f0       	breq	.+2      	; 0x90d0 <myButtonCallback(K197UIeventsource, K197UIeventType)+0x40a>
    90ce:	90 ce       	rjmp	.-736    	; 0x8df0 <myButtonCallback(K197UIeventsource, K197UIeventType)+0x12a>
    90d0:	9c cf       	rjmp	.-200    	; 0x900a <myButtonCallback(K197UIeventsource, K197UIeventType)+0x344>

000090d2 <printHelp()>:
printHelp():
    90d2:	cf 93       	push	r28
    90d4:	df 93       	push	r29
    90d6:	81 e4       	ldi	r24, 0x41	; 65
    90d8:	94 e6       	ldi	r25, 0x64	; 100
    90da:	87 db       	rcall	.-2290   	; 0x87ea <Print::println()>
    90dc:	65 e1       	ldi	r22, 0x15	; 21
    90de:	75 e0       	ldi	r23, 0x05	; 5
    90e0:	81 e4       	ldi	r24, 0x41	; 65
    90e2:	94 e6       	ldi	r25, 0x64	; 100
    90e4:	85 db       	rcall	.-2294   	; 0x87f0 <Print::println(__FlashStringHelper const*)>
    90e6:	64 ef       	ldi	r22, 0xF4	; 244
    90e8:	74 e0       	ldi	r23, 0x04	; 4
    90ea:	81 e4       	ldi	r24, 0x41	; 65
    90ec:	94 e6       	ldi	r25, 0x64	; 100
    90ee:	80 db       	rcall	.-2304   	; 0x87f0 <Print::println(__FlashStringHelper const*)>
    90f0:	64 ed       	ldi	r22, 0xD4	; 212
    90f2:	74 e0       	ldi	r23, 0x04	; 4
    90f4:	81 e4       	ldi	r24, 0x41	; 65
    90f6:	94 e6       	ldi	r25, 0x64	; 100
    90f8:	7b db       	rcall	.-2314   	; 0x87f0 <Print::println(__FlashStringHelper const*)>
    90fa:	62 eb       	ldi	r22, 0xB2	; 178
    90fc:	74 e0       	ldi	r23, 0x04	; 4
    90fe:	81 e4       	ldi	r24, 0x41	; 65
    9100:	94 e6       	ldi	r25, 0x64	; 100
    9102:	76 db       	rcall	.-2324   	; 0x87f0 <Print::println(__FlashStringHelper const*)>
    9104:	6b e8       	ldi	r22, 0x8B	; 139
    9106:	74 e0       	ldi	r23, 0x04	; 4
    9108:	81 e4       	ldi	r24, 0x41	; 65
    910a:	94 e6       	ldi	r25, 0x64	; 100
    910c:	71 db       	rcall	.-2334   	; 0x87f0 <Print::println(__FlashStringHelper const*)>
    910e:	67 e5       	ldi	r22, 0x57	; 87
    9110:	74 e0       	ldi	r23, 0x04	; 4
    9112:	81 e4       	ldi	r24, 0x41	; 65
    9114:	94 e6       	ldi	r25, 0x64	; 100
    9116:	6c db       	rcall	.-2344   	; 0x87f0 <Print::println(__FlashStringHelper const*)>
    9118:	6a e3       	ldi	r22, 0x3A	; 58
    911a:	74 e0       	ldi	r23, 0x04	; 4
    911c:	81 e4       	ldi	r24, 0x41	; 65
    911e:	94 e6       	ldi	r25, 0x64	; 100
    9120:	67 db       	rcall	.-2354   	; 0x87f0 <Print::println(__FlashStringHelper const*)>
    9122:	6d e0       	ldi	r22, 0x0D	; 13
    9124:	74 e0       	ldi	r23, 0x04	; 4
    9126:	81 e4       	ldi	r24, 0x41	; 65
    9128:	94 e6       	ldi	r25, 0x64	; 100
    912a:	62 db       	rcall	.-2364   	; 0x87f0 <Print::println(__FlashStringHelper const*)>
printPrompt():
    912c:	81 e4       	ldi	r24, 0x41	; 65
    912e:	94 e6       	ldi	r25, 0x64	; 100
    9130:	5c db       	rcall	.-2376   	; 0x87ea <Print::println()>
    9132:	b4 db       	rcall	.-2200   	; 0x889c <dxUtilClass::reportStack(bool) [clone .constprop.136]>
    9134:	67 ef       	ldi	r22, 0xF7	; 247
    9136:	73 e0       	ldi	r23, 0x03	; 3
    9138:	81 e4       	ldi	r24, 0x41	; 65
    913a:	94 e6       	ldi	r25, 0x64	; 100
    913c:	0e 94 1a 2e 	call	0x5c34	; 0x5c34 <Print::print(__FlashStringHelper const*)>
    9140:	c9 e7       	ldi	r28, 0x79	; 121
    9142:	df e6       	ldi	r29, 0x6F	; 111
print():
    9144:	48 81       	ld	r20, Y
    9146:	59 81       	ldd	r21, Y+1	; 0x01
    9148:	6a 81       	ldd	r22, Y+2	; 0x02
    914a:	7b 81       	ldd	r23, Y+3	; 0x03
    914c:	2a e0       	ldi	r18, 0x0A	; 10
    914e:	81 e4       	ldi	r24, 0x41	; 65
    9150:	94 e6       	ldi	r25, 0x64	; 100
    9152:	5f db       	rcall	.-2370   	; 0x8812 <Print::printNumber(unsigned long, unsigned char)>
println():
    9154:	81 e4       	ldi	r24, 0x41	; 65
    9156:	94 e6       	ldi	r25, 0x64	; 100
    9158:	48 db       	rcall	.-2416   	; 0x87ea <Print::println()>
printPrompt():
    915a:	18 82       	st	Y, r1
    915c:	19 82       	std	Y+1, r1	; 0x01
    915e:	1a 82       	std	Y+2, r1	; 0x02
    9160:	1b 82       	std	Y+3, r1	; 0x03
    9162:	64 ef       	ldi	r22, 0xF4	; 244
    9164:	73 e0       	ldi	r23, 0x03	; 3
    9166:	81 e4       	ldi	r24, 0x41	; 65
    9168:	94 e6       	ldi	r25, 0x64	; 100
printHelp():
    916a:	df 91       	pop	r29
    916c:	cf 91       	pop	r28
printPrompt():
    916e:	40 cb       	rjmp	.-2432   	; 0x87f0 <Print::println(__FlashStringHelper const*)>

00009170 <Print::print(char const*)>:
write():
    9170:	61 15       	cp	r22, r1
    9172:	71 05       	cpc	r23, r1
    9174:	09 f0       	breq	.+2      	; 0x9178 <Print::print(char const*)+0x8>
    9176:	2a cb       	rjmp	.-2476   	; 0x87cc <Print::write(char const*) [clone .part.0]>
print():
    9178:	90 e0       	ldi	r25, 0x00	; 0
    917a:	80 e0       	ldi	r24, 0x00	; 0
    917c:	08 95       	ret

0000917e <debugUtil::write(char const*)>:
write():
    917e:	ef 92       	push	r14
    9180:	ff 92       	push	r15
    9182:	0f 93       	push	r16
    9184:	1f 93       	push	r17
    9186:	cf 93       	push	r28
    9188:	df 93       	push	r29
    918a:	ec 01       	movw	r28, r24
    918c:	8b 01       	movw	r16, r22
    918e:	8c 81       	ldd	r24, Y+4	; 0x04
    9190:	88 23       	and	r24, r24
    9192:	11 f1       	breq	.+68     	; 0x91d8 <debugUtil::write(char const*)+0x5a>
    9194:	61 15       	cp	r22, r1
    9196:	71 05       	cpc	r23, r1
    9198:	f9 f0       	breq	.+62     	; 0x91d8 <debugUtil::write(char const*)+0x5a>
    919a:	81 e4       	ldi	r24, 0x41	; 65
    919c:	94 e6       	ldi	r25, 0x64	; 100
    919e:	16 db       	rcall	.-2516   	; 0x87cc <Print::write(char const*) [clone .part.0]>
    91a0:	7c 01       	movw	r14, r24
    91a2:	8d 81       	ldd	r24, Y+5	; 0x05
    91a4:	d0 e0       	ldi	r29, 0x00	; 0
    91a6:	c0 e0       	ldi	r28, 0x00	; 0
    91a8:	88 23       	and	r24, r24
    91aa:	51 f0       	breq	.+20     	; 0x91c0 <debugUtil::write(char const*)+0x42>
    91ac:	e8 01       	movw	r28, r16
    91ae:	09 90       	ld	r0, Y+
    91b0:	00 20       	and	r0, r0
    91b2:	e9 f7       	brne	.-6      	; 0x91ae <debugUtil::write(char const*)+0x30>
    91b4:	21 97       	sbiw	r28, 0x01	; 1
    91b6:	c0 1b       	sub	r28, r16
    91b8:	d1 0b       	sbc	r29, r17
_ZN7U8G2LOG11writeStringEPKc():
    91ba:	c8 01       	movw	r24, r16
    91bc:	0e 94 46 34 	call	0x688c	; 0x688c <u8log_WriteString.constprop.39>
write():
    91c0:	c7 01       	movw	r24, r14
    91c2:	ec 16       	cp	r14, r28
    91c4:	fd 06       	cpc	r15, r29
    91c6:	08 f4       	brcc	.+2      	; 0x91ca <debugUtil::write(char const*)+0x4c>
    91c8:	ce 01       	movw	r24, r28
    91ca:	df 91       	pop	r29
    91cc:	cf 91       	pop	r28
    91ce:	1f 91       	pop	r17
    91d0:	0f 91       	pop	r16
    91d2:	ff 90       	pop	r15
    91d4:	ef 90       	pop	r14
    91d6:	08 95       	ret
    91d8:	e1 2c       	mov	r14, r1
    91da:	f1 2c       	mov	r15, r1
    91dc:	e2 cf       	rjmp	.-60     	; 0x91a2 <debugUtil::write(char const*)+0x24>

000091de <__vector_22>:
__vector_22():
    91de:	ef 93       	push	r30
    91e0:	ff 93       	push	r31
    91e2:	e1 e4       	ldi	r30, 0x41	; 65
    91e4:	f4 e6       	ldi	r31, 0x64	; 100
    91e6:	08 c0       	rjmp	.+16     	; 0x91f8 <_do_dre()>

000091e8 <__vector_21>:
__vector_21():
    91e8:	ef 93       	push	r30
    91ea:	ff 93       	push	r31
    91ec:	e1 e4       	ldi	r30, 0x41	; 65
    91ee:	f4 e6       	ldi	r31, 0x64	; 100
    91f0:	32 c0       	rjmp	.+100    	; 0x9256 <_do_rxc()>

000091f2 <__vector_23>:
__vector_23():
    91f2:	ef 93       	push	r30
    91f4:	e0 e0       	ldi	r30, 0x00	; 0
    91f6:	53 c0       	rjmp	.+166    	; 0x929e <_do_txc()>

000091f8 <_do_dre()>:
_Z7_do_drev():
    91f8:	2f 93       	push	r18
    91fa:	2f b7       	in	r18, 0x3f	; 63
    91fc:	2f 93       	push	r18
    91fe:	8f 93       	push	r24
    9200:	9f 93       	push	r25
    9202:	af 93       	push	r26
    9204:	bf 93       	push	r27
    9206:	68 94       	set

00009208 <_poll_dre>:
    9208:	cf 93       	push	r28
    920a:	df 93       	push	r29
    920c:	20 e0       	ldi	r18, 0x00	; 0
    920e:	c4 85       	ldd	r28, Z+12	; 0x0c
    9210:	d8 e0       	ldi	r29, 0x08	; 8
    9212:	96 89       	ldd	r25, Z+22	; 0x16
    9214:	df 01       	movw	r26, r30
    9216:	a9 0f       	add	r26, r25
    9218:	b2 1f       	adc	r27, r18
    921a:	a9 5a       	subi	r26, 0xA9	; 169
    921c:	bf 4f       	sbci	r27, 0xFF	; 255
    921e:	8c 91       	ld	r24, X
    9220:	20 e4       	ldi	r18, 0x40	; 64
    9222:	2c 83       	std	Y+4, r18	; 0x04
    9224:	8a 83       	std	Y+2, r24	; 0x02
    9226:	9f 5f       	subi	r25, 0xFF	; 255
    9228:	9f 73       	andi	r25, 0x3F	; 63
    922a:	8d 81       	ldd	r24, Y+5	; 0x05
    922c:	25 89       	ldd	r18, Z+21	; 0x15
    922e:	29 13       	cpse	r18, r25
    9230:	02 c0       	rjmp	.+4      	; 0x9236 <_done_dre_irq>
    9232:	8f 7d       	andi	r24, 0xDF	; 223
    9234:	8d 83       	std	Y+5, r24	; 0x05

00009236 <_done_dre_irq>:
    9236:	96 8b       	std	Z+22, r25	; 0x16
    9238:	df 91       	pop	r29
    923a:	cf 91       	pop	r28
    923c:	16 f0       	brts	.+4      	; 0x9242 <_done_dre_irq+0xc>
    923e:	0c 94 40 30 	jmp	0x6080	; 0x6080 <_poll_dre_done>
    9242:	bf 91       	pop	r27
    9244:	af 91       	pop	r26
    9246:	9f 91       	pop	r25
    9248:	8f 91       	pop	r24
    924a:	2f 91       	pop	r18
    924c:	2f bf       	out	0x3f, r18	; 63
    924e:	2f 91       	pop	r18
    9250:	ff 91       	pop	r31
    9252:	ef 91       	pop	r30
    9254:	18 95       	reti

00009256 <_do_rxc()>:
_Z7_do_rxcv():
    9256:	2f 93       	push	r18
    9258:	2f b7       	in	r18, 0x3f	; 63
    925a:	2f 93       	push	r18
    925c:	8f 93       	push	r24
    925e:	9f 93       	push	r25
    9260:	cf 93       	push	r28
    9262:	df 93       	push	r29
    9264:	c4 85       	ldd	r28, Z+12	; 0x0c
    9266:	d8 e0       	ldi	r29, 0x08	; 8
    9268:	89 81       	ldd	r24, Y+1	; 0x01
    926a:	98 81       	ld	r25, Y
    926c:	81 fd       	sbrc	r24, 1
    926e:	0d c0       	rjmp	.+26     	; 0x928a <_end_rxc>
    9270:	c3 89       	ldd	r28, Z+19	; 0x13
    9272:	81 e0       	ldi	r24, 0x01	; 1
    9274:	8c 0f       	add	r24, r28
    9276:	8f 73       	andi	r24, 0x3F	; 63
    9278:	24 89       	ldd	r18, Z+20	; 0x14
    927a:	28 17       	cp	r18, r24
    927c:	31 f0       	breq	.+12     	; 0x928a <_end_rxc>
    927e:	ce 0f       	add	r28, r30
    9280:	df 2f       	mov	r29, r31
    9282:	20 e0       	ldi	r18, 0x00	; 0
    9284:	d2 1f       	adc	r29, r18
    9286:	9f 8b       	std	Y+23, r25	; 0x17
    9288:	83 8b       	std	Z+19, r24	; 0x13

0000928a <_end_rxc>:
    928a:	df 91       	pop	r29
    928c:	cf 91       	pop	r28
    928e:	9f 91       	pop	r25
    9290:	8f 91       	pop	r24
    9292:	2f 91       	pop	r18
    9294:	2f bf       	out	0x3f, r18	; 63
    9296:	2f 91       	pop	r18
    9298:	ff 91       	pop	r31
    929a:	ef 91       	pop	r30
    929c:	18 95       	reti

0000929e <_do_txc()>:
_Z7_do_txcv():
    929e:	ff 93       	push	r31
    92a0:	8f 93       	push	r24
    92a2:	8f b7       	in	r24, 0x3f	; 63
    92a4:	8f 93       	push	r24
    92a6:	f8 e0       	ldi	r31, 0x08	; 8

000092a8 <_txc_flush_rx>:
    92a8:	80 81       	ld	r24, Z
    92aa:	84 81       	ldd	r24, Z+4	; 0x04
    92ac:	87 ff       	sbrs	r24, 7
    92ae:	fc cf       	rjmp	.-8      	; 0x92a8 <_txc_flush_rx>
    92b0:	85 81       	ldd	r24, Z+5	; 0x05
    92b2:	8f 7b       	andi	r24, 0xBF	; 191
    92b4:	80 68       	ori	r24, 0x80	; 128
    92b6:	85 83       	std	Z+5, r24	; 0x05
    92b8:	8f 91       	pop	r24
    92ba:	8f bf       	out	0x3f, r24	; 63
    92bc:	8f 91       	pop	r24
    92be:	ff 91       	pop	r31
    92c0:	ef 91       	pop	r30
    92c2:	18 95       	reti

000092c4 <__vector_31>:
__vector_31():
    92c4:	1f 92       	push	r1
    92c6:	0f 92       	push	r0
    92c8:	0f b6       	in	r0, 0x3f	; 63
    92ca:	0f 92       	push	r0
    92cc:	11 24       	eor	r1, r1
    92ce:	8f 93       	push	r24
    92d0:	9f 93       	push	r25
    92d2:	af 93       	push	r26
    92d4:	bf 93       	push	r27
    92d6:	80 91 35 64 	lds	r24, 0x6435	; 0x806435 <timer_millis>
    92da:	90 91 36 64 	lds	r25, 0x6436	; 0x806436 <timer_millis+0x1>
    92de:	a0 91 37 64 	lds	r26, 0x6437	; 0x806437 <timer_millis+0x2>
    92e2:	b0 91 38 64 	lds	r27, 0x6438	; 0x806438 <timer_millis+0x3>
    92e6:	01 96       	adiw	r24, 0x01	; 1
    92e8:	a1 1d       	adc	r26, r1
    92ea:	b1 1d       	adc	r27, r1
    92ec:	80 93 35 64 	sts	0x6435, r24	; 0x806435 <timer_millis>
    92f0:	90 93 36 64 	sts	0x6436, r25	; 0x806436 <timer_millis+0x1>
    92f4:	a0 93 37 64 	sts	0x6437, r26	; 0x806437 <timer_millis+0x2>
    92f8:	b0 93 38 64 	sts	0x6438, r27	; 0x806438 <timer_millis+0x3>
    92fc:	81 e0       	ldi	r24, 0x01	; 1
    92fe:	80 93 26 0b 	sts	0x0B26, r24	; 0x800b26 <__TEXT_REGION_LENGTH__+0x7f0b26>
    9302:	bf 91       	pop	r27
    9304:	af 91       	pop	r26
    9306:	9f 91       	pop	r25
    9308:	8f 91       	pop	r24
    930a:	0f 90       	pop	r0
    930c:	0f be       	out	0x3f, r0	; 63
    930e:	0f 90       	pop	r0
    9310:	1f 90       	pop	r1
    9312:	18 95       	reti

00009314 <__vector_18>:
__vector_18():
    9314:	1f 92       	push	r1
    9316:	0f 92       	push	r0
    9318:	0f b6       	in	r0, 0x3f	; 63
    931a:	0f 92       	push	r0
    931c:	11 24       	eor	r1, r1
    931e:	2f 93       	push	r18
    9320:	3f 93       	push	r19
    9322:	4f 93       	push	r20
    9324:	5f 93       	push	r21
    9326:	6f 93       	push	r22
    9328:	7f 93       	push	r23
    932a:	8f 93       	push	r24
    932c:	9f 93       	push	r25
    932e:	af 93       	push	r26
    9330:	bf 93       	push	r27
    9332:	ef 93       	push	r30
    9334:	ff 93       	push	r31
TWI_HandleSlaveIRQ():
    9336:	e0 91 e4 64 	lds	r30, 0x64E4	; 0x8064e4 <Wire+0xc>
    933a:	f0 91 e5 64 	lds	r31, 0x64E5	; 0x8064e5 <Wire+0xd>
    933e:	83 85       	ldd	r24, Z+11	; 0x0b
    9340:	98 2f       	mov	r25, r24
    9342:	9c 70       	andi	r25, 0x0C	; 12
    9344:	b1 f0       	breq	.+44     	; 0x9372 <__vector_18+0x5e>
    9346:	85 85       	ldd	r24, Z+13	; 0x0d
    9348:	10 92 e9 64 	sts	0x64E9, r1	; 0x8064e9 <Wire+0x11>
SlaveIRQ_DataReadNack():
    934c:	10 92 e8 64 	sts	0x64E8, r1	; 0x8064e8 <Wire+0x10>
__vector_18():
    9350:	ff 91       	pop	r31
    9352:	ef 91       	pop	r30
    9354:	bf 91       	pop	r27
    9356:	af 91       	pop	r26
    9358:	9f 91       	pop	r25
    935a:	8f 91       	pop	r24
    935c:	7f 91       	pop	r23
    935e:	6f 91       	pop	r22
    9360:	5f 91       	pop	r21
    9362:	4f 91       	pop	r20
    9364:	3f 91       	pop	r19
    9366:	2f 91       	pop	r18
    9368:	0f 90       	pop	r0
    936a:	0f be       	out	0x3f, r0	; 63
    936c:	0f 90       	pop	r0
    936e:	1f 90       	pop	r1
    9370:	18 95       	reti
TWI_HandleSlaveIRQ():
    9372:	86 ff       	sbrs	r24, 6
    9374:	2b c0       	rjmp	.+86     	; 0x93cc <__vector_18+0xb8>
    9376:	80 ff       	sbrs	r24, 0
    9378:	20 c0       	rjmp	.+64     	; 0x93ba <__vector_18+0xa6>
    937a:	81 ff       	sbrs	r24, 1
    937c:	15 c0       	rjmp	.+42     	; 0x93a8 <__vector_18+0x94>
SlaveIRQ_AddrRead():
    937e:	85 85       	ldd	r24, Z+13	; 0x0d
    9380:	80 93 e7 64 	sts	0x64E7, r24	; 0x8064e7 <Wire+0xf>
    9384:	0e 94 fd 2d 	call	0x5bfa	; 0x5bfa <NotifyUser_onReceive.constprop.17>
    9388:	10 92 e8 64 	sts	0x64E8, r1	; 0x8064e8 <Wire+0x10>
    938c:	10 92 eb 64 	sts	0x64EB, r1	; 0x8064eb <Wire+0x13>
NotifyUser_onRequest():
    9390:	e0 91 ec 64 	lds	r30, 0x64EC	; 0x8064ec <Wire+0x14>
    9394:	f0 91 ed 64 	lds	r31, 0x64ED	; 0x8064ed <Wire+0x15>
    9398:	30 97       	sbiw	r30, 0x00	; 0
    939a:	09 f0       	breq	.+2      	; 0x939e <__vector_18+0x8a>
    939c:	09 95       	icall
SlaveIRQ_DataWrite():
    939e:	e0 91 e4 64 	lds	r30, 0x64E4	; 0x8064e4 <Wire+0xc>
    93a2:	f0 91 e5 64 	lds	r31, 0x64E5	; 0x8064e5 <Wire+0xd>
    93a6:	07 c0       	rjmp	.+14     	; 0x93b6 <__vector_18+0xa2>
SlaveIRQ_AddrWrite():
    93a8:	85 85       	ldd	r24, Z+13	; 0x0d
    93aa:	80 93 e7 64 	sts	0x64E7, r24	; 0x8064e7 <Wire+0xf>
    93ae:	10 92 e9 64 	sts	0x64E9, r1	; 0x8064e9 <Wire+0x11>
    93b2:	10 92 ea 64 	sts	0x64EA, r1	; 0x8064ea <Wire+0x12>
SlaveIRQ_DataWrite():
    93b6:	83 e0       	ldi	r24, 0x03	; 3
    93b8:	32 c0       	rjmp	.+100    	; 0x941e <__vector_18+0x10a>
SlaveIRQ_Stop():
    93ba:	80 e4       	ldi	r24, 0x40	; 64
    93bc:	83 87       	std	Z+11, r24	; 0x0b
    93be:	0e 94 fd 2d 	call	0x5bfa	; 0x5bfa <NotifyUser_onReceive.constprop.17>
SlaveIRQ_DataWrite():
    93c2:	10 92 e9 64 	sts	0x64E9, r1	; 0x8064e9 <Wire+0x11>
    93c6:	10 92 ea 64 	sts	0x64EA, r1	; 0x8064ea <Wire+0x12>
    93ca:	c2 cf       	rjmp	.-124    	; 0x9350 <__vector_18+0x3c>
TWI_HandleSlaveIRQ():
    93cc:	87 ff       	sbrs	r24, 7
    93ce:	c0 cf       	rjmp	.-128    	; 0x9350 <__vector_18+0x3c>
    93d0:	81 ff       	sbrs	r24, 1
    93d2:	27 c0       	rjmp	.+78     	; 0x9422 <__vector_18+0x10e>
    93d4:	84 ff       	sbrs	r24, 4
    93d6:	0a c0       	rjmp	.+20     	; 0x93ec <__vector_18+0xd8>
    93d8:	80 91 e6 64 	lds	r24, 0x64E6	; 0x8064e6 <Wire+0xe>
    93dc:	87 ff       	sbrs	r24, 7
    93de:	06 c0       	rjmp	.+12     	; 0x93ec <__vector_18+0xd8>
SlaveIRQ_DataReadNack():
    93e0:	8f 77       	andi	r24, 0x7F	; 127
    93e2:	80 93 e6 64 	sts	0x64E6, r24	; 0x8064e6 <Wire+0xe>
    93e6:	82 e0       	ldi	r24, 0x02	; 2
    93e8:	82 87       	std	Z+10, r24	; 0x0a
    93ea:	b0 cf       	rjmp	.-160    	; 0x934c <__vector_18+0x38>
SlaveIRQ_DataReadAck():
    93ec:	80 91 e6 64 	lds	r24, 0x64E6	; 0x8064e6 <Wire+0xe>
    93f0:	80 68       	ori	r24, 0x80	; 128
    93f2:	80 93 e6 64 	sts	0x64E6, r24	; 0x8064e6 <Wire+0xe>
    93f6:	a0 91 eb 64 	lds	r26, 0x64EB	; 0x8064eb <Wire+0x13>
    93fa:	80 91 e8 64 	lds	r24, 0x64E8	; 0x8064e8 <Wire+0x10>
    93fe:	a8 17       	cp	r26, r24
    9400:	68 f4       	brcc	.+26     	; 0x941c <__vector_18+0x108>
    9402:	b0 e0       	ldi	r27, 0x00	; 0
    9404:	a0 51       	subi	r26, 0x10	; 16
    9406:	bb 49       	sbci	r27, 0x9B	; 155
    9408:	8c 91       	ld	r24, X
    940a:	85 87       	std	Z+13, r24	; 0x0d
    940c:	83 e0       	ldi	r24, 0x03	; 3
    940e:	82 87       	std	Z+10, r24	; 0x0a
    9410:	80 91 eb 64 	lds	r24, 0x64EB	; 0x8064eb <Wire+0x13>
    9414:	8f 5f       	subi	r24, 0xFF	; 255
    9416:	80 93 eb 64 	sts	0x64EB, r24	; 0x8064eb <Wire+0x13>
    941a:	9a cf       	rjmp	.-204    	; 0x9350 <__vector_18+0x3c>
    941c:	82 e0       	ldi	r24, 0x02	; 2
SlaveIRQ_DataWrite():
    941e:	82 87       	std	Z+10, r24	; 0x0a
    9420:	97 cf       	rjmp	.-210    	; 0x9350 <__vector_18+0x3c>
    9422:	95 85       	ldd	r25, Z+13	; 0x0d
    9424:	80 91 e9 64 	lds	r24, 0x64E9	; 0x8064e9 <Wire+0x11>
    9428:	82 38       	cpi	r24, 0x82	; 130
    942a:	58 f4       	brcc	.+22     	; 0x9442 <__vector_18+0x12e>
    942c:	e8 2f       	mov	r30, r24
    942e:	f0 e0       	ldi	r31, 0x00	; 0
    9430:	ee 58       	subi	r30, 0x8E	; 142
    9432:	fa 49       	sbci	r31, 0x9A	; 154
    9434:	90 83       	st	Z, r25
    9436:	80 91 e9 64 	lds	r24, 0x64E9	; 0x8064e9 <Wire+0x11>
    943a:	8f 5f       	subi	r24, 0xFF	; 255
    943c:	80 93 e9 64 	sts	0x64E9, r24	; 0x8064e9 <Wire+0x11>
    9440:	ae cf       	rjmp	.-164    	; 0x939e <__vector_18+0x8a>
    9442:	86 e0       	ldi	r24, 0x06	; 6
    9444:	82 87       	std	Z+10, r24	; 0x0a
    9446:	bd cf       	rjmp	.-134    	; 0x93c2 <__vector_18+0xae>

00009448 <__vector_7>:
__vector_7():
    9448:	1f 92       	push	r1
    944a:	0f 92       	push	r0
    944c:	0f b6       	in	r0, 0x3f	; 63
    944e:	0f 92       	push	r0
    9450:	11 24       	eor	r1, r1
    9452:	2f 93       	push	r18
    9454:	3f 93       	push	r19
    9456:	4f 93       	push	r20
    9458:	5f 93       	push	r21
    945a:	6f 93       	push	r22
    945c:	7f 93       	push	r23
    945e:	8f 93       	push	r24
    9460:	9f 93       	push	r25
    9462:	af 93       	push	r26
    9464:	bf 93       	push	r27
    9466:	ef 93       	push	r30
    9468:	ff 93       	push	r31
    946a:	80 91 c7 01 	lds	r24, 0x01C7	; 0x8001c7 <__TEXT_REGION_LENGTH__+0x7f01c7>
    946e:	80 ff       	sbrs	r24, 0
    9470:	0a c0       	rjmp	.+20     	; 0x9486 <__vector_7+0x3e>
    9472:	e0 91 39 64 	lds	r30, 0x6439	; 0x806439 <intFuncCCL>
    9476:	f0 91 3a 64 	lds	r31, 0x643A	; 0x80643a <intFuncCCL+0x1>
    947a:	09 95       	icall
    947c:	80 91 c7 01 	lds	r24, 0x01C7	; 0x8001c7 <__TEXT_REGION_LENGTH__+0x7f01c7>
    9480:	81 60       	ori	r24, 0x01	; 1
    9482:	80 93 c7 01 	sts	0x01C7, r24	; 0x8001c7 <__TEXT_REGION_LENGTH__+0x7f01c7>
    9486:	80 91 c7 01 	lds	r24, 0x01C7	; 0x8001c7 <__TEXT_REGION_LENGTH__+0x7f01c7>
    948a:	81 ff       	sbrs	r24, 1
    948c:	0a c0       	rjmp	.+20     	; 0x94a2 <__vector_7+0x5a>
    948e:	e0 91 3b 64 	lds	r30, 0x643B	; 0x80643b <intFuncCCL+0x2>
    9492:	f0 91 3c 64 	lds	r31, 0x643C	; 0x80643c <intFuncCCL+0x3>
    9496:	09 95       	icall
    9498:	80 91 c7 01 	lds	r24, 0x01C7	; 0x8001c7 <__TEXT_REGION_LENGTH__+0x7f01c7>
    949c:	82 60       	ori	r24, 0x02	; 2
    949e:	80 93 c7 01 	sts	0x01C7, r24	; 0x8001c7 <__TEXT_REGION_LENGTH__+0x7f01c7>
    94a2:	80 91 c7 01 	lds	r24, 0x01C7	; 0x8001c7 <__TEXT_REGION_LENGTH__+0x7f01c7>
    94a6:	82 ff       	sbrs	r24, 2
    94a8:	0a c0       	rjmp	.+20     	; 0x94be <__vector_7+0x76>
    94aa:	e0 91 3d 64 	lds	r30, 0x643D	; 0x80643d <intFuncCCL+0x4>
    94ae:	f0 91 3e 64 	lds	r31, 0x643E	; 0x80643e <intFuncCCL+0x5>
    94b2:	09 95       	icall
    94b4:	80 91 c7 01 	lds	r24, 0x01C7	; 0x8001c7 <__TEXT_REGION_LENGTH__+0x7f01c7>
    94b8:	84 60       	ori	r24, 0x04	; 4
    94ba:	80 93 c7 01 	sts	0x01C7, r24	; 0x8001c7 <__TEXT_REGION_LENGTH__+0x7f01c7>
    94be:	80 91 c7 01 	lds	r24, 0x01C7	; 0x8001c7 <__TEXT_REGION_LENGTH__+0x7f01c7>
    94c2:	83 ff       	sbrs	r24, 3
    94c4:	0a c0       	rjmp	.+20     	; 0x94da <__vector_7+0x92>
    94c6:	e0 91 3f 64 	lds	r30, 0x643F	; 0x80643f <intFuncCCL+0x6>
    94ca:	f0 91 40 64 	lds	r31, 0x6440	; 0x806440 <intFuncCCL+0x7>
    94ce:	09 95       	icall
    94d0:	80 91 c7 01 	lds	r24, 0x01C7	; 0x8001c7 <__TEXT_REGION_LENGTH__+0x7f01c7>
    94d4:	88 60       	ori	r24, 0x08	; 8
    94d6:	80 93 c7 01 	sts	0x01C7, r24	; 0x8001c7 <__TEXT_REGION_LENGTH__+0x7f01c7>
    94da:	ff 91       	pop	r31
    94dc:	ef 91       	pop	r30
    94de:	bf 91       	pop	r27
    94e0:	af 91       	pop	r26
    94e2:	9f 91       	pop	r25
    94e4:	8f 91       	pop	r24
    94e6:	7f 91       	pop	r23
    94e8:	6f 91       	pop	r22
    94ea:	5f 91       	pop	r21
    94ec:	4f 91       	pop	r20
    94ee:	3f 91       	pop	r19
    94f0:	2f 91       	pop	r18
    94f2:	0f 90       	pop	r0
    94f4:	0f be       	out	0x3f, r0	; 63
    94f6:	0f 90       	pop	r0
    94f8:	1f 90       	pop	r1
    94fa:	18 95       	reti

000094fc <__vector_37>:
__vector_37():
    94fc:	1f 92       	push	r1
    94fe:	0f 92       	push	r0
    9500:	0f b6       	in	r0, 0x3f	; 63
    9502:	0f 92       	push	r0
    9504:	11 24       	eor	r1, r1
    9506:	8f 93       	push	r24
    9508:	ef 93       	push	r30
    950a:	ff 93       	push	r31
    950c:	cf 93       	push	r28
    950e:	df 93       	push	r29
    9510:	1f 92       	push	r1
    9512:	cd b7       	in	r28, 0x3d	; 61
    9514:	de b7       	in	r29, 0x3e	; 62
    9516:	80 91 63 09 	lds	r24, 0x0963	; 0x800963 <__TEXT_REGION_LENGTH__+0x7f0963>
    951a:	87 ff       	sbrs	r24, 7
    951c:	12 c0       	rjmp	.+36     	; 0x9542 <__vector_37+0x46>
    951e:	80 91 64 09 	lds	r24, 0x0964	; 0x800964 <__TEXT_REGION_LENGTH__+0x7f0964>
    9522:	89 83       	std	Y+1, r24	; 0x01
    9524:	8d b3       	in	r24, 0x1d	; 29
    9526:	82 31       	cpi	r24, 0x12	; 18
    9528:	60 f4       	brcc	.+24     	; 0x9542 <__vector_37+0x46>
    952a:	51 99       	sbic	0x0a, 1	; 10
    952c:	f4 cf       	rjmp	.-24     	; 0x9516 <__vector_37+0x1a>
    952e:	89 81       	ldd	r24, Y+1	; 0x01
    9530:	ed b3       	in	r30, 0x1d	; 29
    9532:	f0 e0       	ldi	r31, 0x00	; 0
    9534:	e5 52       	subi	r30, 0x25	; 37
    9536:	fc 49       	sbci	r31, 0x9C	; 156
    9538:	80 83       	st	Z, r24
    953a:	8d b3       	in	r24, 0x1d	; 29
    953c:	8f 5f       	subi	r24, 0xFF	; 255
    953e:	8d bb       	out	0x1d, r24	; 29
    9540:	ea cf       	rjmp	.-44     	; 0x9516 <__vector_37+0x1a>
    9542:	0f 90       	pop	r0
    9544:	df 91       	pop	r29
    9546:	cf 91       	pop	r28
    9548:	ff 91       	pop	r31
    954a:	ef 91       	pop	r30
    954c:	8f 91       	pop	r24
    954e:	0f 90       	pop	r0
    9550:	0f be       	out	0x3f, r0	; 63
    9552:	0f 90       	pop	r0
    9554:	1f 90       	pop	r1
    9556:	18 95       	reti

00009558 <__vector_30>:
__vector_30():
    9558:	1f 92       	push	r1
    955a:	0f 92       	push	r0
    955c:	0f b6       	in	r0, 0x3f	; 63
    955e:	0f 92       	push	r0
    9560:	11 24       	eor	r1, r1
    9562:	5b 9a       	sbi	0x0b, 3	; 11
    9564:	53 9b       	sbis	0x0a, 3	; 10
    9566:	06 c0       	rjmp	.+12     	; 0x9574 <__vector_30+0x1c>
    9568:	e0 9a       	sbi	0x1c, 0	; 28
    956a:	0f 90       	pop	r0
    956c:	0f be       	out	0x3f, r0	; 63
    956e:	0f 90       	pop	r0
    9570:	1f 90       	pop	r1
    9572:	18 95       	reti
    9574:	1d ba       	out	0x1d, r1	; 29
    9576:	f9 cf       	rjmp	.-14     	; 0x956a <__vector_30+0x12>

00009578 <__vector_11>:
__vector_11():
    9578:	1f 92       	push	r1
    957a:	0f 92       	push	r0
    957c:	0f b6       	in	r0, 0x3f	; 63
    957e:	0f 92       	push	r0
    9580:	11 24       	eor	r1, r1
    9582:	8f 93       	push	r24
    9584:	80 e1       	ldi	r24, 0x10	; 16
    9586:	80 93 0b 0a 	sts	0x0A0B, r24	; 0x800a0b <__TEXT_REGION_LENGTH__+0x7f0a0b>
    958a:	63 98       	cbi	0x0c, 3	; 12
    958c:	6b 98       	cbi	0x0d, 3	; 13
    958e:	8f 91       	pop	r24
    9590:	0f 90       	pop	r0
    9592:	0f be       	out	0x3f, r0	; 63
    9594:	0f 90       	pop	r0
    9596:	1f 90       	pop	r1
    9598:	18 95       	reti

0000959a <__vector_9>:
__vector_9():
    959a:	1f 92       	push	r1
    959c:	0f 92       	push	r0
    959e:	0f b6       	in	r0, 0x3f	; 63
    95a0:	0f 92       	push	r0
    95a2:	11 24       	eor	r1, r1
    95a4:	8f 93       	push	r24
    95a6:	81 e0       	ldi	r24, 0x01	; 1
    95a8:	80 93 0b 0a 	sts	0x0A0B, r24	; 0x800a0b <__TEXT_REGION_LENGTH__+0x7f0a0b>
    95ac:	8e b3       	in	r24, 0x1e	; 30
    95ae:	88 23       	and	r24, r24
    95b0:	59 f0       	breq	.+22     	; 0x95c8 <__vector_9+0x2e>
    95b2:	63 9a       	sbi	0x0c, 3	; 12
    95b4:	6b 9a       	sbi	0x0d, 3	; 13
    95b6:	8e b3       	in	r24, 0x1e	; 30
    95b8:	81 50       	subi	r24, 0x01	; 1
    95ba:	8e bb       	out	0x1e, r24	; 30
    95bc:	8f 91       	pop	r24
    95be:	0f 90       	pop	r0
    95c0:	0f be       	out	0x3f, r0	; 63
    95c2:	0f 90       	pop	r0
    95c4:	1f 90       	pop	r1
    95c6:	18 95       	reti
    95c8:	10 92 0a 0a 	sts	0x0A0A, r1	; 0x800a0a <__TEXT_REGION_LENGTH__+0x7f0a0a>
    95cc:	8e e0       	ldi	r24, 0x0E	; 14
    95ce:	80 93 00 0a 	sts	0x0A00, r24	; 0x800a00 <__TEXT_REGION_LENGTH__+0x7f0a00>
    95d2:	f4 cf       	rjmp	.-24     	; 0x95bc <__vector_9+0x22>

000095d4 <vfprintf>:
vfprintf():
    95d4:	ab e0       	ldi	r26, 0x0B	; 11
    95d6:	b0 e0       	ldi	r27, 0x00	; 0
    95d8:	e0 ef       	ldi	r30, 0xF0	; 240
    95da:	fa e4       	ldi	r31, 0x4A	; 74
    95dc:	0c 94 16 60 	jmp	0xc02c	; 0xc02c <__prologue_saves__+0x8>
    95e0:	6c 01       	movw	r12, r24
    95e2:	7b 01       	movw	r14, r22
    95e4:	3a 01       	movw	r6, r20
    95e6:	fc 01       	movw	r30, r24
    95e8:	16 82       	std	Z+6, r1	; 0x06
    95ea:	17 82       	std	Z+7, r1	; 0x07
    95ec:	83 81       	ldd	r24, Z+3	; 0x03
    95ee:	81 ff       	sbrs	r24, 1
    95f0:	0a c1       	rjmp	.+532    	; 0x9806 <vfprintf+0x232>
    95f2:	ce 01       	movw	r24, r28
    95f4:	01 96       	adiw	r24, 0x01	; 1
    95f6:	4c 01       	movw	r8, r24
    95f8:	f6 01       	movw	r30, r12
    95fa:	b3 80       	ldd	r11, Z+3	; 0x03
    95fc:	f7 01       	movw	r30, r14
    95fe:	b3 fc       	sbrc	r11, 3
    9600:	05 91       	lpm	r16, Z+
    9602:	b3 fe       	sbrs	r11, 3
    9604:	01 91       	ld	r16, Z+
    9606:	7f 01       	movw	r14, r30
    9608:	00 23       	and	r16, r16
    960a:	51 f1       	breq	.+84     	; 0x9660 <vfprintf+0x8c>
    960c:	05 32       	cpi	r16, 0x25	; 37
    960e:	39 f4       	brne	.+14     	; 0x961e <vfprintf+0x4a>
    9610:	b3 fc       	sbrc	r11, 3
    9612:	05 91       	lpm	r16, Z+
    9614:	b3 fe       	sbrs	r11, 3
    9616:	01 91       	ld	r16, Z+
    9618:	7f 01       	movw	r14, r30
    961a:	05 32       	cpi	r16, 0x25	; 37
    961c:	51 f5       	brne	.+84     	; 0x9672 <vfprintf+0x9e>
    961e:	b6 01       	movw	r22, r12
    9620:	80 2f       	mov	r24, r16
    9622:	90 e0       	ldi	r25, 0x00	; 0
    9624:	0e 94 b4 60 	call	0xc168	; 0xc168 <fputc>
    9628:	53 01       	movw	r10, r6
    962a:	35 01       	movw	r6, r10
    962c:	e5 cf       	rjmp	.-54     	; 0x95f8 <vfprintf+0x24>
    962e:	10 68       	ori	r17, 0x80	; 128
    9630:	f7 01       	movw	r30, r14
    9632:	b3 fc       	sbrc	r11, 3
    9634:	05 91       	lpm	r16, Z+
    9636:	b3 fe       	sbrs	r11, 3
    9638:	01 91       	ld	r16, Z+
    963a:	7f 01       	movw	r14, r30
    963c:	17 fd       	sbrc	r17, 7
    963e:	0e c0       	rjmp	.+28     	; 0x965c <vfprintf+0x88>
    9640:	00 23       	and	r16, r16
    9642:	71 f0       	breq	.+28     	; 0x9660 <vfprintf+0x8c>
    9644:	60 2f       	mov	r22, r16
    9646:	70 e0       	ldi	r23, 0x00	; 0
    9648:	84 ee       	ldi	r24, 0xE4	; 228
    964a:	93 e0       	ldi	r25, 0x03	; 3
    964c:	0e 94 93 60 	call	0xc126	; 0xc126 <strchr_P>
    9650:	89 2b       	or	r24, r25
    9652:	71 f7       	brne	.-36     	; 0x9630 <vfprintf+0x5c>
    9654:	03 32       	cpi	r16, 0x23	; 35
    9656:	59 f0       	breq	.+22     	; 0x966e <vfprintf+0x9a>
    9658:	0c 36       	cpi	r16, 0x6C	; 108
    965a:	49 f3       	breq	.-46     	; 0x962e <vfprintf+0x5a>
    965c:	01 11       	cpse	r16, r1
    965e:	0b c0       	rjmp	.+22     	; 0x9676 <vfprintf+0xa2>
    9660:	f6 01       	movw	r30, r12
    9662:	86 81       	ldd	r24, Z+6	; 0x06
    9664:	97 81       	ldd	r25, Z+7	; 0x07
    9666:	2b 96       	adiw	r28, 0x0b	; 11
    9668:	ee e0       	ldi	r30, 0x0E	; 14
    966a:	0c 94 2f 60 	jmp	0xc05e	; 0xc05e <__epilogue_restores__+0x8>
    966e:	10 e1       	ldi	r17, 0x10	; 16
    9670:	df cf       	rjmp	.-66     	; 0x9630 <vfprintf+0x5c>
    9672:	10 e0       	ldi	r17, 0x00	; 0
    9674:	e3 cf       	rjmp	.-58     	; 0x963c <vfprintf+0x68>
    9676:	60 2f       	mov	r22, r16
    9678:	70 e0       	ldi	r23, 0x00	; 0
    967a:	8d ed       	ldi	r24, 0xDD	; 221
    967c:	93 e0       	ldi	r25, 0x03	; 3
    967e:	0e 94 93 60 	call	0xc126	; 0xc126 <strchr_P>
    9682:	89 2b       	or	r24, r25
    9684:	51 f0       	breq	.+20     	; 0x969a <vfprintf+0xc6>
    9686:	53 01       	movw	r10, r6
    9688:	f4 e0       	ldi	r31, 0x04	; 4
    968a:	af 0e       	add	r10, r31
    968c:	b1 1c       	adc	r11, r1
    968e:	b6 01       	movw	r22, r12
    9690:	8f e3       	ldi	r24, 0x3F	; 63
    9692:	90 e0       	ldi	r25, 0x00	; 0
    9694:	0e 94 b4 60 	call	0xc168	; 0xc168 <fputc>
    9698:	c8 cf       	rjmp	.-112    	; 0x962a <vfprintf+0x56>
    969a:	03 36       	cpi	r16, 0x63	; 99
    969c:	09 f4       	brne	.+2      	; 0x96a0 <vfprintf+0xcc>
    969e:	57 c0       	rjmp	.+174    	; 0x974e <vfprintf+0x17a>
    96a0:	03 37       	cpi	r16, 0x73	; 115
    96a2:	09 f4       	brne	.+2      	; 0x96a6 <vfprintf+0xd2>
    96a4:	5e c0       	rjmp	.+188    	; 0x9762 <vfprintf+0x18e>
    96a6:	03 35       	cpi	r16, 0x53	; 83
    96a8:	09 f4       	brne	.+2      	; 0x96ac <vfprintf+0xd8>
    96aa:	5a c0       	rjmp	.+180    	; 0x9760 <vfprintf+0x18c>
    96ac:	04 36       	cpi	r16, 0x64	; 100
    96ae:	19 f0       	breq	.+6      	; 0x96b6 <vfprintf+0xe2>
    96b0:	09 36       	cpi	r16, 0x69	; 105
    96b2:	09 f0       	breq	.+2      	; 0x96b6 <vfprintf+0xe2>
    96b4:	76 c0       	rjmp	.+236    	; 0x97a2 <vfprintf+0x1ce>
    96b6:	53 01       	movw	r10, r6
    96b8:	17 ff       	sbrs	r17, 7
    96ba:	68 c0       	rjmp	.+208    	; 0x978c <vfprintf+0x1b8>
    96bc:	f4 e0       	ldi	r31, 0x04	; 4
    96be:	af 0e       	add	r10, r31
    96c0:	b1 1c       	adc	r11, r1
    96c2:	f3 01       	movw	r30, r6
    96c4:	60 81       	ld	r22, Z
    96c6:	71 81       	ldd	r23, Z+1	; 0x01
    96c8:	82 81       	ldd	r24, Z+2	; 0x02
    96ca:	93 81       	ldd	r25, Z+3	; 0x03
    96cc:	1f 7e       	andi	r17, 0xEF	; 239
    96ce:	97 ff       	sbrs	r25, 7
    96d0:	08 c0       	rjmp	.+16     	; 0x96e2 <vfprintf+0x10e>
    96d2:	90 95       	com	r25
    96d4:	80 95       	com	r24
    96d6:	70 95       	com	r23
    96d8:	61 95       	neg	r22
    96da:	7f 4f       	sbci	r23, 0xFF	; 255
    96dc:	8f 4f       	sbci	r24, 0xFF	; 255
    96de:	9f 4f       	sbci	r25, 0xFF	; 255
    96e0:	10 64       	ori	r17, 0x40	; 64
    96e2:	2a e0       	ldi	r18, 0x0A	; 10
    96e4:	30 e0       	ldi	r19, 0x00	; 0
    96e6:	a4 01       	movw	r20, r8
    96e8:	0e 94 e4 60 	call	0xc1c8	; 0xc1c8 <__ultoa_invert>
    96ec:	08 2f       	mov	r16, r24
    96ee:	08 19       	sub	r16, r8
    96f0:	16 ff       	sbrs	r17, 6
    96f2:	05 c0       	rjmp	.+10     	; 0x96fe <vfprintf+0x12a>
    96f4:	b6 01       	movw	r22, r12
    96f6:	8d e2       	ldi	r24, 0x2D	; 45
    96f8:	90 e0       	ldi	r25, 0x00	; 0
    96fa:	0e 94 b4 60 	call	0xc168	; 0xc168 <fputc>
    96fe:	14 ff       	sbrs	r17, 4
    9700:	15 c0       	rjmp	.+42     	; 0x972c <vfprintf+0x158>
    9702:	fe 01       	movw	r30, r28
    9704:	e0 0f       	add	r30, r16
    9706:	f1 1d       	adc	r31, r1
    9708:	80 81       	ld	r24, Z
    970a:	80 33       	cpi	r24, 0x30	; 48
    970c:	79 f0       	breq	.+30     	; 0x972c <vfprintf+0x158>
    970e:	b6 01       	movw	r22, r12
    9710:	80 e3       	ldi	r24, 0x30	; 48
    9712:	90 e0       	ldi	r25, 0x00	; 0
    9714:	0e 94 b4 60 	call	0xc168	; 0xc168 <fputc>
    9718:	12 ff       	sbrs	r17, 2
    971a:	08 c0       	rjmp	.+16     	; 0x972c <vfprintf+0x158>
    971c:	10 72       	andi	r17, 0x20	; 32
    971e:	81 2f       	mov	r24, r17
    9720:	90 e0       	ldi	r25, 0x00	; 0
    9722:	b6 01       	movw	r22, r12
    9724:	88 5a       	subi	r24, 0xA8	; 168
    9726:	9f 4f       	sbci	r25, 0xFF	; 255
    9728:	0e 94 b4 60 	call	0xc168	; 0xc168 <fputc>
    972c:	01 50       	subi	r16, 0x01	; 1
    972e:	10 e0       	ldi	r17, 0x00	; 0
    9730:	0f 5f       	subi	r16, 0xFF	; 255
    9732:	1f 4f       	sbci	r17, 0xFF	; 255
    9734:	08 0d       	add	r16, r8
    9736:	19 1d       	adc	r17, r9
    9738:	f8 01       	movw	r30, r16
    973a:	82 91       	ld	r24, -Z
    973c:	8f 01       	movw	r16, r30
    973e:	b6 01       	movw	r22, r12
    9740:	90 e0       	ldi	r25, 0x00	; 0
    9742:	0e 94 b4 60 	call	0xc168	; 0xc168 <fputc>
    9746:	08 15       	cp	r16, r8
    9748:	19 05       	cpc	r17, r9
    974a:	b1 f7       	brne	.-20     	; 0x9738 <vfprintf+0x164>
    974c:	6e cf       	rjmp	.-292    	; 0x962a <vfprintf+0x56>
    974e:	53 01       	movw	r10, r6
    9750:	82 e0       	ldi	r24, 0x02	; 2
    9752:	a8 0e       	add	r10, r24
    9754:	b1 1c       	adc	r11, r1
    9756:	b6 01       	movw	r22, r12
    9758:	f3 01       	movw	r30, r6
    975a:	80 81       	ld	r24, Z
    975c:	91 81       	ldd	r25, Z+1	; 0x01
    975e:	9a cf       	rjmp	.-204    	; 0x9694 <vfprintf+0xc0>
    9760:	11 60       	ori	r17, 0x01	; 1
    9762:	53 01       	movw	r10, r6
    9764:	f2 e0       	ldi	r31, 0x02	; 2
    9766:	af 0e       	add	r10, r31
    9768:	b1 1c       	adc	r11, r1
    976a:	f3 01       	movw	r30, r6
    976c:	60 80       	ld	r6, Z
    976e:	71 80       	ldd	r7, Z+1	; 0x01
    9770:	f3 01       	movw	r30, r6
    9772:	10 fd       	sbrc	r17, 0
    9774:	85 91       	lpm	r24, Z+
    9776:	10 ff       	sbrs	r17, 0
    9778:	81 91       	ld	r24, Z+
    977a:	3f 01       	movw	r6, r30
    977c:	88 23       	and	r24, r24
    977e:	09 f4       	brne	.+2      	; 0x9782 <vfprintf+0x1ae>
    9780:	54 cf       	rjmp	.-344    	; 0x962a <vfprintf+0x56>
    9782:	b6 01       	movw	r22, r12
    9784:	90 e0       	ldi	r25, 0x00	; 0
    9786:	0e 94 b4 60 	call	0xc168	; 0xc168 <fputc>
    978a:	f2 cf       	rjmp	.-28     	; 0x9770 <vfprintf+0x19c>
    978c:	f2 e0       	ldi	r31, 0x02	; 2
    978e:	af 0e       	add	r10, r31
    9790:	b1 1c       	adc	r11, r1
    9792:	f3 01       	movw	r30, r6
    9794:	60 81       	ld	r22, Z
    9796:	71 81       	ldd	r23, Z+1	; 0x01
    9798:	07 2e       	mov	r0, r23
    979a:	00 0c       	add	r0, r0
    979c:	88 0b       	sbc	r24, r24
    979e:	99 0b       	sbc	r25, r25
    97a0:	95 cf       	rjmp	.-214    	; 0x96cc <vfprintf+0xf8>
    97a2:	00 37       	cpi	r16, 0x70	; 112
    97a4:	09 f1       	breq	.+66     	; 0x97e8 <vfprintf+0x214>
    97a6:	40 f4       	brcc	.+16     	; 0x97b8 <vfprintf+0x1e4>
    97a8:	08 35       	cpi	r16, 0x58	; 88
    97aa:	01 f1       	breq	.+64     	; 0x97ec <vfprintf+0x218>
    97ac:	0f 36       	cpi	r16, 0x6F	; 111
    97ae:	09 f0       	breq	.+2      	; 0x97b2 <vfprintf+0x1de>
    97b0:	57 cf       	rjmp	.-338    	; 0x9660 <vfprintf+0x8c>
    97b2:	28 e0       	ldi	r18, 0x08	; 8
    97b4:	30 e0       	ldi	r19, 0x00	; 0
    97b6:	0c c0       	rjmp	.+24     	; 0x97d0 <vfprintf+0x1fc>
    97b8:	05 37       	cpi	r16, 0x75	; 117
    97ba:	39 f0       	breq	.+14     	; 0x97ca <vfprintf+0x1f6>
    97bc:	08 37       	cpi	r16, 0x78	; 120
    97be:	09 f0       	breq	.+2      	; 0x97c2 <vfprintf+0x1ee>
    97c0:	4f cf       	rjmp	.-354    	; 0x9660 <vfprintf+0x8c>
    97c2:	14 62       	ori	r17, 0x24	; 36
    97c4:	20 e1       	ldi	r18, 0x10	; 16
    97c6:	30 e0       	ldi	r19, 0x00	; 0
    97c8:	03 c0       	rjmp	.+6      	; 0x97d0 <vfprintf+0x1fc>
    97ca:	1f 7e       	andi	r17, 0xEF	; 239
    97cc:	2a e0       	ldi	r18, 0x0A	; 10
    97ce:	30 e0       	ldi	r19, 0x00	; 0
    97d0:	53 01       	movw	r10, r6
    97d2:	17 ff       	sbrs	r17, 7
    97d4:	0f c0       	rjmp	.+30     	; 0x97f4 <vfprintf+0x220>
    97d6:	f4 e0       	ldi	r31, 0x04	; 4
    97d8:	af 0e       	add	r10, r31
    97da:	b1 1c       	adc	r11, r1
    97dc:	f3 01       	movw	r30, r6
    97de:	60 81       	ld	r22, Z
    97e0:	71 81       	ldd	r23, Z+1	; 0x01
    97e2:	82 81       	ldd	r24, Z+2	; 0x02
    97e4:	93 81       	ldd	r25, Z+3	; 0x03
    97e6:	7f cf       	rjmp	.-258    	; 0x96e6 <vfprintf+0x112>
    97e8:	10 61       	ori	r17, 0x10	; 16
    97ea:	eb cf       	rjmp	.-42     	; 0x97c2 <vfprintf+0x1ee>
    97ec:	14 60       	ori	r17, 0x04	; 4
    97ee:	20 e1       	ldi	r18, 0x10	; 16
    97f0:	32 e0       	ldi	r19, 0x02	; 2
    97f2:	ee cf       	rjmp	.-36     	; 0x97d0 <vfprintf+0x1fc>
    97f4:	f2 e0       	ldi	r31, 0x02	; 2
    97f6:	af 0e       	add	r10, r31
    97f8:	b1 1c       	adc	r11, r1
    97fa:	f3 01       	movw	r30, r6
    97fc:	60 81       	ld	r22, Z
    97fe:	71 81       	ldd	r23, Z+1	; 0x01
    9800:	90 e0       	ldi	r25, 0x00	; 0
    9802:	80 e0       	ldi	r24, 0x00	; 0
    9804:	70 cf       	rjmp	.-288    	; 0x96e6 <vfprintf+0x112>
    9806:	8f ef       	ldi	r24, 0xFF	; 255
    9808:	9f ef       	ldi	r25, 0xFF	; 255
    980a:	2d cf       	rjmp	.-422    	; 0x9666 <vfprintf+0x92>

0000980c <global constructors keyed to 65535_0_BTmanager.cpp.o.26296>:
_GLOBAL__I_65535_0_BTmanager.cpp.o.26296():
    980c:	cf 93       	push	r28
    980e:	10 92 43 64 	sts	0x6443, r1	; 0x806443 <Serial0+0x2>
    9812:	10 92 44 64 	sts	0x6444, r1	; 0x806444 <Serial0+0x3>
    9816:	88 ee       	ldi	r24, 0xE8	; 232
    9818:	93 e0       	ldi	r25, 0x03	; 3
    981a:	a0 e0       	ldi	r26, 0x00	; 0
    981c:	b0 e0       	ldi	r27, 0x00	; 0
    981e:	80 93 45 64 	sts	0x6445, r24	; 0x806445 <Serial0+0x4>
    9822:	90 93 46 64 	sts	0x6446, r25	; 0x806446 <Serial0+0x5>
    9826:	a0 93 47 64 	sts	0x6447, r26	; 0x806447 <Serial0+0x6>
    982a:	b0 93 48 64 	sts	0x6448, r27	; 0x806448 <Serial0+0x7>
    982e:	47 e2       	ldi	r20, 0x27	; 39
    9830:	51 e6       	ldi	r21, 0x61	; 97
    9832:	40 93 41 64 	sts	0x6441, r20	; 0x806441 <Serial0>
    9836:	50 93 42 64 	sts	0x6442, r21	; 0x806442 <Serial0+0x1>
    983a:	40 e0       	ldi	r20, 0x00	; 0
    983c:	58 e0       	ldi	r21, 0x08	; 8
    983e:	40 93 4d 64 	sts	0x644D, r20	; 0x80644d <Serial0+0xc>
    9842:	50 93 4e 64 	sts	0x644E, r21	; 0x80644e <Serial0+0xd>
    9846:	46 e1       	ldi	r20, 0x16	; 22
    9848:	59 e0       	ldi	r21, 0x09	; 9
    984a:	40 93 4f 64 	sts	0x644F, r20	; 0x80644f <Serial0+0xe>
    984e:	50 93 50 64 	sts	0x6450, r21	; 0x806450 <Serial0+0xf>
    9852:	42 e0       	ldi	r20, 0x02	; 2
    9854:	40 93 51 64 	sts	0x6451, r20	; 0x806451 <Serial0+0x10>
    9858:	10 92 52 64 	sts	0x6452, r1	; 0x806452 <Serial0+0x11>
    985c:	10 92 53 64 	sts	0x6453, r1	; 0x806453 <Serial0+0x12>
    9860:	10 92 da 64 	sts	0x64DA, r1	; 0x8064da <Wire+0x2>
    9864:	10 92 db 64 	sts	0x64DB, r1	; 0x8064db <Wire+0x3>
    9868:	80 93 dc 64 	sts	0x64DC, r24	; 0x8064dc <Wire+0x4>
    986c:	90 93 dd 64 	sts	0x64DD, r25	; 0x8064dd <Wire+0x5>
    9870:	a0 93 de 64 	sts	0x64DE, r26	; 0x8064de <Wire+0x6>
    9874:	b0 93 df 64 	sts	0x64DF, r27	; 0x8064df <Wire+0x7>
    9878:	81 e4       	ldi	r24, 0x41	; 65
    987a:	91 e6       	ldi	r25, 0x61	; 97
    987c:	80 93 d8 64 	sts	0x64D8, r24	; 0x8064d8 <Wire>
    9880:	90 93 d9 64 	sts	0x64D9, r25	; 0x8064d9 <Wire+0x1>
    9884:	80 e0       	ldi	r24, 0x00	; 0
    9886:	99 e0       	ldi	r25, 0x09	; 9
    9888:	80 93 e4 64 	sts	0x64E4, r24	; 0x8064e4 <Wire+0xc>
    988c:	90 93 e5 64 	sts	0x64E5, r25	; 0x8064e5 <Wire+0xd>
    9890:	40 e0       	ldi	r20, 0x00	; 0
    9892:	5b e1       	ldi	r21, 0x1B	; 27
    9894:	67 eb       	ldi	r22, 0xB7	; 183
    9896:	70 e0       	ldi	r23, 0x00	; 0
    9898:	80 e0       	ldi	r24, 0x00	; 0
    989a:	76 95       	lsr	r23
    989c:	67 95       	ror	r22
    989e:	57 95       	ror	r21
    98a0:	47 95       	ror	r20
    98a2:	8f 5f       	subi	r24, 0xFF	; 255
    98a4:	86 30       	cpi	r24, 0x06	; 6
    98a6:	11 f4       	brne	.+4      	; 0x98ac <global constructors keyed to 65535_0_BTmanager.cpp.o.26296+0xa0>
    98a8:	87 e0       	ldi	r24, 0x07	; 7
    98aa:	07 c0       	rjmp	.+14     	; 0x98ba <global constructors keyed to 65535_0_BTmanager.cpp.o.26296+0xae>
    98ac:	41 30       	cpi	r20, 0x01	; 1
    98ae:	99 e0       	ldi	r25, 0x09	; 9
    98b0:	59 07       	cpc	r21, r25
    98b2:	9d e3       	ldi	r25, 0x3D	; 61
    98b4:	69 07       	cpc	r22, r25
    98b6:	71 05       	cpc	r23, r1
    98b8:	80 f7       	brcc	.-32     	; 0x989a <global constructors keyed to 65535_0_BTmanager.cpp.o.26296+0x8e>
    98ba:	94 e0       	ldi	r25, 0x04	; 4
    98bc:	90 93 00 66 	sts	0x6600, r25	; 0x806600 <DEFAULT_SPI_SETTINGS+0x1>
    98c0:	48 2f       	mov	r20, r24
    98c2:	40 95       	com	r20
    98c4:	24 2f       	mov	r18, r20
    98c6:	21 70       	andi	r18, 0x01	; 1
    98c8:	30 e0       	ldi	r19, 0x00	; 0
    98ca:	44 e0       	ldi	r20, 0x04	; 4
    98cc:	22 0f       	add	r18, r18
    98ce:	33 1f       	adc	r19, r19
    98d0:	4a 95       	dec	r20
    98d2:	e1 f7       	brne	.-8      	; 0x98cc <global constructors keyed to 65535_0_BTmanager.cpp.o.26296+0xc0>
    98d4:	81 62       	ori	r24, 0x21	; 33
    98d6:	82 2b       	or	r24, r18
    98d8:	80 93 ff 65 	sts	0x65FF, r24	; 0x8065ff <DEFAULT_SPI_SETTINGS>
    98dc:	20 e4       	ldi	r18, 0x40	; 64
    98de:	39 e0       	ldi	r19, 0x09	; 9
    98e0:	20 93 f4 65 	sts	0x65F4, r18	; 0x8065f4 <SPI>
    98e4:	30 93 f5 65 	sts	0x65F5, r19	; 0x8065f5 <SPI+0x1>
    98e8:	90 93 f7 65 	sts	0x65F7, r25	; 0x8065f7 <SPI+0x3>
    98ec:	86 e0       	ldi	r24, 0x06	; 6
    98ee:	80 93 f8 65 	sts	0x65F8, r24	; 0x8065f8 <SPI+0x4>
    98f2:	10 92 fa 65 	sts	0x65FA, r1	; 0x8065fa <SPI+0x6>
    98f6:	10 92 fb 65 	sts	0x65FB, r1	; 0x8065fb <SPI+0x7>
    98fa:	10 92 28 66 	sts	0x6628, r1	; 0x806628 <Logic0>
    98fe:	10 92 29 66 	sts	0x6629, r1	; 0x806629 <Logic0+0x1>
    9902:	10 92 2a 66 	sts	0x662A, r1	; 0x80662a <Logic0+0x2>
    9906:	10 92 2b 66 	sts	0x662B, r1	; 0x80662b <Logic0+0x3>
    990a:	10 92 2c 66 	sts	0x662C, r1	; 0x80662c <Logic0+0x4>
    990e:	10 92 2d 66 	sts	0x662D, r1	; 0x80662d <Logic0+0x5>
    9912:	10 92 2e 66 	sts	0x662E, r1	; 0x80662e <Logic0+0x6>
    9916:	10 92 2f 66 	sts	0x662F, r1	; 0x80662f <Logic0+0x7>
    991a:	10 92 30 66 	sts	0x6630, r1	; 0x806630 <Logic0+0x8>
    991e:	10 92 31 66 	sts	0x6631, r1	; 0x806631 <Logic0+0x9>
    9922:	10 92 32 66 	sts	0x6632, r1	; 0x806632 <Logic0+0xa>
    9926:	2f e4       	ldi	r18, 0x4F	; 79
    9928:	31 e6       	ldi	r19, 0x61	; 97
    992a:	20 93 33 66 	sts	0x6633, r18	; 0x806633 <Logic0+0xb>
    992e:	30 93 34 66 	sts	0x6634, r19	; 0x806634 <Logic0+0xc>
    9932:	10 92 1b 66 	sts	0x661B, r1	; 0x80661b <Logic1>
    9936:	10 92 1c 66 	sts	0x661C, r1	; 0x80661c <Logic1+0x1>
    993a:	10 92 1d 66 	sts	0x661D, r1	; 0x80661d <Logic1+0x2>
    993e:	10 92 1e 66 	sts	0x661E, r1	; 0x80661e <Logic1+0x3>
    9942:	10 92 1f 66 	sts	0x661F, r1	; 0x80661f <Logic1+0x4>
    9946:	10 92 20 66 	sts	0x6620, r1	; 0x806620 <Logic1+0x5>
    994a:	10 92 21 66 	sts	0x6621, r1	; 0x806621 <Logic1+0x6>
    994e:	10 92 22 66 	sts	0x6622, r1	; 0x806622 <Logic1+0x7>
    9952:	10 92 23 66 	sts	0x6623, r1	; 0x806623 <Logic1+0x8>
    9956:	10 92 24 66 	sts	0x6624, r1	; 0x806624 <Logic1+0x9>
    995a:	10 92 25 66 	sts	0x6625, r1	; 0x806625 <Logic1+0xa>
    995e:	25 e6       	ldi	r18, 0x65	; 101
    9960:	31 e6       	ldi	r19, 0x61	; 97
    9962:	20 93 26 66 	sts	0x6626, r18	; 0x806626 <Logic1+0xb>
    9966:	30 93 27 66 	sts	0x6627, r19	; 0x806627 <Logic1+0xc>
    996a:	10 92 0e 66 	sts	0x660E, r1	; 0x80660e <Logic2>
    996e:	10 92 0f 66 	sts	0x660F, r1	; 0x80660f <Logic2+0x1>
    9972:	10 92 10 66 	sts	0x6610, r1	; 0x806610 <Logic2+0x2>
    9976:	10 92 11 66 	sts	0x6611, r1	; 0x806611 <Logic2+0x3>
    997a:	10 92 12 66 	sts	0x6612, r1	; 0x806612 <Logic2+0x4>
    997e:	10 92 13 66 	sts	0x6613, r1	; 0x806613 <Logic2+0x5>
    9982:	10 92 14 66 	sts	0x6614, r1	; 0x806614 <Logic2+0x6>
    9986:	10 92 15 66 	sts	0x6615, r1	; 0x806615 <Logic2+0x7>
    998a:	10 92 16 66 	sts	0x6616, r1	; 0x806616 <Logic2+0x8>
    998e:	10 92 17 66 	sts	0x6617, r1	; 0x806617 <Logic2+0x9>
    9992:	10 92 18 66 	sts	0x6618, r1	; 0x806618 <Logic2+0xa>
    9996:	2b e7       	ldi	r18, 0x7B	; 123
    9998:	31 e6       	ldi	r19, 0x61	; 97
    999a:	20 93 19 66 	sts	0x6619, r18	; 0x806619 <Logic2+0xb>
    999e:	30 93 1a 66 	sts	0x661A, r19	; 0x80661a <Logic2+0xc>
    99a2:	10 92 01 66 	sts	0x6601, r1	; 0x806601 <Logic3>
    99a6:	10 92 02 66 	sts	0x6602, r1	; 0x806602 <Logic3+0x1>
    99aa:	10 92 03 66 	sts	0x6603, r1	; 0x806603 <Logic3+0x2>
    99ae:	10 92 04 66 	sts	0x6604, r1	; 0x806604 <Logic3+0x3>
    99b2:	10 92 05 66 	sts	0x6605, r1	; 0x806605 <Logic3+0x4>
    99b6:	10 92 06 66 	sts	0x6606, r1	; 0x806606 <Logic3+0x5>
    99ba:	10 92 07 66 	sts	0x6607, r1	; 0x806607 <Logic3+0x6>
    99be:	10 92 08 66 	sts	0x6608, r1	; 0x806608 <Logic3+0x7>
    99c2:	10 92 09 66 	sts	0x6609, r1	; 0x806609 <Logic3+0x8>
    99c6:	10 92 0a 66 	sts	0x660A, r1	; 0x80660a <Logic3+0x9>
    99ca:	10 92 0b 66 	sts	0x660B, r1	; 0x80660b <Logic3+0xa>
    99ce:	21 e9       	ldi	r18, 0x91	; 145
    99d0:	31 e6       	ldi	r19, 0x61	; 97
    99d2:	20 93 0c 66 	sts	0x660C, r18	; 0x80660c <Logic3+0xb>
    99d6:	30 93 0d 66 	sts	0x660D, r19	; 0x80660d <Logic3+0xc>
    99da:	82 e0       	ldi	r24, 0x02	; 2
    99dc:	80 93 41 66 	sts	0x6641, r24	; 0x806641 <Event2>
    99e0:	22 e1       	ldi	r18, 0x12	; 18
    99e2:	32 e0       	ldi	r19, 0x02	; 2
    99e4:	20 93 42 66 	sts	0x6642, r18	; 0x806642 <Event2+0x1>
    99e8:	30 93 43 66 	sts	0x6643, r19	; 0x806643 <Event2+0x2>
    99ec:	83 e0       	ldi	r24, 0x03	; 3
    99ee:	80 93 3d 66 	sts	0x663D, r24	; 0x80663d <Event3>
    99f2:	23 e1       	ldi	r18, 0x13	; 19
    99f4:	32 e0       	ldi	r19, 0x02	; 2
    99f6:	20 93 3e 66 	sts	0x663E, r18	; 0x80663e <Event3+0x1>
    99fa:	30 93 3f 66 	sts	0x663F, r19	; 0x80663f <Event3+0x2>
    99fe:	90 93 39 66 	sts	0x6639, r25	; 0x806639 <Event4>
    9a02:	84 e1       	ldi	r24, 0x14	; 20
    9a04:	92 e0       	ldi	r25, 0x02	; 2
    9a06:	80 93 3a 66 	sts	0x663A, r24	; 0x80663a <Event4+0x1>
    9a0a:	90 93 3b 66 	sts	0x663B, r25	; 0x80663b <Event4+0x2>
    9a0e:	85 e0       	ldi	r24, 0x05	; 5
    9a10:	80 93 35 66 	sts	0x6635, r24	; 0x806635 <Event5>
    9a14:	85 e1       	ldi	r24, 0x15	; 21
    9a16:	92 e0       	ldi	r25, 0x02	; 2
    9a18:	80 93 36 66 	sts	0x6636, r24	; 0x806636 <Event5+0x1>
    9a1c:	90 93 37 66 	sts	0x6637, r25	; 0x806637 <Event5+0x2>
    9a20:	10 92 47 66 	sts	0x6647, r1	; 0x806647 <DebugOut+0x2>
    9a24:	10 92 48 66 	sts	0x6648, r1	; 0x806648 <DebugOut+0x3>
    9a28:	8b ea       	ldi	r24, 0xAB	; 171
    9a2a:	91 e6       	ldi	r25, 0x61	; 97
    9a2c:	80 93 45 66 	sts	0x6645, r24	; 0x806645 <DebugOut>
    9a30:	90 93 46 66 	sts	0x6646, r25	; 0x806646 <DebugOut+0x1>
    9a34:	10 92 49 66 	sts	0x6649, r1	; 0x806649 <DebugOut+0x4>
    9a38:	10 92 4a 66 	sts	0x664A, r1	; 0x80664a <DebugOut+0x5>
    9a3c:	10 92 8f 6f 	sts	0x6F8F, r1	; 0x806f8f <UImainMenu+0x2>
    9a40:	10 92 90 6f 	sts	0x6F90, r1	; 0x806f90 <UImainMenu+0x3>
    9a44:	10 92 91 6f 	sts	0x6F91, r1	; 0x806f91 <UImainMenu+0x4>
    9a48:	10 92 94 6f 	sts	0x6F94, r1	; 0x806f94 <UImainMenu+0x7>
    9a4c:	10 92 95 6f 	sts	0x6F95, r1	; 0x806f95 <UImainMenu+0x8>
    9a50:	82 e8       	ldi	r24, 0x82	; 130
    9a52:	90 e0       	ldi	r25, 0x00	; 0
    9a54:	80 93 92 6f 	sts	0x6F92, r24	; 0x806f92 <UImainMenu+0x5>
    9a58:	90 93 93 6f 	sts	0x6F93, r25	; 0x806f93 <UImainMenu+0x6>
    9a5c:	2d e8       	ldi	r18, 0x8D	; 141
    9a5e:	3f e6       	ldi	r19, 0x6F	; 111
    9a60:	20 93 8b 6f 	sts	0x6F8B, r18	; 0x806f8b <UImenu::currentMenu>
    9a64:	30 93 8c 6f 	sts	0x6F8C, r19	; 0x806f8c <UImenu::currentMenu+0x1>
    9a68:	10 92 84 6f 	sts	0x6F84, r1	; 0x806f84 <UIlogMenu+0x2>
    9a6c:	10 92 85 6f 	sts	0x6F85, r1	; 0x806f85 <UIlogMenu+0x3>
    9a70:	10 92 86 6f 	sts	0x6F86, r1	; 0x806f86 <UIlogMenu+0x4>
    9a74:	10 92 89 6f 	sts	0x6F89, r1	; 0x806f89 <UIlogMenu+0x7>
    9a78:	10 92 8a 6f 	sts	0x6F8A, r1	; 0x806f8a <UIlogMenu+0x8>
    9a7c:	80 93 87 6f 	sts	0x6F87, r24	; 0x806f87 <UIlogMenu+0x5>
    9a80:	90 93 88 6f 	sts	0x6F88, r25	; 0x806f88 <UIlogMenu+0x6>
    9a84:	10 92 79 6f 	sts	0x6F79, r1	; 0x806f79 <uiman>
    9a88:	10 92 7a 6f 	sts	0x6F7A, r1	; 0x806f7a <uiman+0x1>
    9a8c:	10 92 7b 6f 	sts	0x6F7B, r1	; 0x806f7b <uiman+0x2>
    9a90:	10 92 7c 6f 	sts	0x6F7C, r1	; 0x806f7c <uiman+0x3>
    9a94:	10 92 7d 6f 	sts	0x6F7D, r1	; 0x806f7d <uiman+0x4>
    9a98:	10 92 7e 6f 	sts	0x6F7E, r1	; 0x806f7e <uiman+0x5>
    9a9c:	81 e1       	ldi	r24, 0x11	; 17
    9a9e:	90 e0       	ldi	r25, 0x00	; 0
    9aa0:	80 93 7f 6f 	sts	0x6F7F, r24	; 0x806f7f <uiman+0x6>
    9aa4:	90 93 80 6f 	sts	0x6F80, r25	; 0x806f80 <uiman+0x7>
    9aa8:	10 92 81 6f 	sts	0x6F81, r1	; 0x806f81 <uiman+0x8>
    9aac:	10 92 e5 6e 	sts	0x6EE5, r1	; 0x806ee5 <u8g2+0x2>
    9ab0:	10 92 e6 6e 	sts	0x6EE6, r1	; 0x806ee6 <u8g2+0x3>
    9ab4:	86 e9       	ldi	r24, 0x96	; 150
    9ab6:	9b e2       	ldi	r25, 0x2B	; 43
    9ab8:	80 93 73 6f 	sts	0x6F73, r24	; 0x806f73 <u8g2+0x90>
    9abc:	90 93 74 6f 	sts	0x6F74, r25	; 0x806f74 <u8g2+0x91>
    9ac0:	10 92 75 6f 	sts	0x6F75, r1	; 0x806f75 <u8g2+0x92>
    9ac4:	10 92 76 6f 	sts	0x6F76, r1	; 0x806f76 <u8g2+0x93>
    9ac8:	10 92 77 6f 	sts	0x6F77, r1	; 0x806f77 <u8g2+0x94>
    9acc:	10 92 78 6f 	sts	0x6F78, r1	; 0x806f78 <u8g2+0x95>
    9ad0:	10 92 ff 6e 	sts	0x6EFF, r1	; 0x806eff <u8g2+0x1c>
    9ad4:	89 eb       	ldi	r24, 0xB9	; 185
    9ad6:	91 e6       	ldi	r25, 0x61	; 97
    9ad8:	80 93 e3 6e 	sts	0x6EE3, r24	; 0x806ee3 <u8g2>
    9adc:	90 93 e4 6e 	sts	0x6EE4, r25	; 0x806ee4 <u8g2+0x1>
    9ae0:	10 92 e7 6e 	sts	0x6EE7, r1	; 0x806ee7 <u8g2+0x4>
    9ae4:	10 92 e8 6e 	sts	0x6EE8, r1	; 0x806ee8 <u8g2+0x5>
    9ae8:	10 92 fc 6e 	sts	0x6EFC, r1	; 0x806efc <u8g2+0x19>
    9aec:	10 92 f3 6e 	sts	0x6EF3, r1	; 0x806ef3 <u8g2+0x10>
    9af0:	10 92 f4 6e 	sts	0x6EF4, r1	; 0x806ef4 <u8g2+0x11>
    9af4:	10 92 f5 6e 	sts	0x6EF5, r1	; 0x806ef5 <u8g2+0x12>
    9af8:	10 92 f6 6e 	sts	0x6EF6, r1	; 0x806ef6 <u8g2+0x13>
    9afc:	8f ef       	ldi	r24, 0xFF	; 255
    9afe:	80 93 fd 6e 	sts	0x6EFD, r24	; 0x806efd <u8g2+0x1a>
    9b02:	80 93 01 6f 	sts	0x6F01, r24	; 0x806f01 <u8g2+0x1e>
    9b06:	e5 e0       	ldi	r30, 0x05	; 5
    9b08:	ff e6       	ldi	r31, 0x6F	; 111
    9b0a:	8b e1       	ldi	r24, 0x1B	; 27
    9b0c:	9f e6       	ldi	r25, 0x6F	; 111
    9b0e:	cf ef       	ldi	r28, 0xFF	; 255
    9b10:	c1 93       	st	Z+, r28
    9b12:	8e 17       	cp	r24, r30
    9b14:	9f 07       	cpc	r25, r31
    9b16:	e1 f7       	brne	.-8      	; 0x9b10 <global constructors keyed to 65535_0_BTmanager.cpp.o.26296+0x304>
    9b18:	8f e3       	ldi	r24, 0x3F	; 63
    9b1a:	92 e3       	ldi	r25, 0x32	; 50
    9b1c:	80 93 eb 6e 	sts	0x6EEB, r24	; 0x806eeb <u8g2+0x8>
    9b20:	90 93 ec 6e 	sts	0x6EEC, r25	; 0x806eec <u8g2+0x9>
    9b24:	84 e3       	ldi	r24, 0x34	; 52
    9b26:	93 e3       	ldi	r25, 0x33	; 51
    9b28:	80 93 ed 6e 	sts	0x6EED, r24	; 0x806eed <u8g2+0xa>
    9b2c:	90 93 ee 6e 	sts	0x6EEE, r25	; 0x806eee <u8g2+0xb>
    9b30:	8b e7       	ldi	r24, 0x7B	; 123
    9b32:	92 e4       	ldi	r25, 0x42	; 66
    9b34:	80 93 ef 6e 	sts	0x6EEF, r24	; 0x806eef <u8g2+0xc>
    9b38:	90 93 f0 6e 	sts	0x6EF0, r25	; 0x806ef0 <u8g2+0xd>
    9b3c:	84 ed       	ldi	r24, 0xD4	; 212
    9b3e:	90 e4       	ldi	r25, 0x40	; 64
    9b40:	80 93 f1 6e 	sts	0x6EF1, r24	; 0x806ef1 <u8g2+0xe>
    9b44:	90 93 f2 6e 	sts	0x6EF2, r25	; 0x806ef2 <u8g2+0xf>
    9b48:	30 e0       	ldi	r19, 0x00	; 0
    9b4a:	20 e0       	ldi	r18, 0x00	; 0
    9b4c:	40 e0       	ldi	r20, 0x00	; 0
    9b4e:	69 e0       	ldi	r22, 0x09	; 9
    9b50:	87 ee       	ldi	r24, 0xE7	; 231
    9b52:	9e e6       	ldi	r25, 0x6E	; 110
    9b54:	0e 94 3f 32 	call	0x647e	; 0x647e <u8x8_d_ssd1322_nhd_256x64>
    9b58:	10 92 41 6f 	sts	0x6F41, r1	; 0x806f41 <u8g2+0x5e>
    9b5c:	10 92 42 6f 	sts	0x6F42, r1	; 0x806f42 <u8g2+0x5f>
    9b60:	80 ea       	ldi	r24, 0xA0	; 160
    9b62:	9b e2       	ldi	r25, 0x2B	; 43
    9b64:	80 93 1b 6f 	sts	0x6F1B, r24	; 0x806f1b <u8g2+0x38>
    9b68:	90 93 1c 6f 	sts	0x6F1C, r25	; 0x806f1c <u8g2+0x39>
    9b6c:	8b e4       	ldi	r24, 0x4B	; 75
    9b6e:	96 e6       	ldi	r25, 0x66	; 102
    9b70:	80 93 1f 6f 	sts	0x6F1F, r24	; 0x806f1f <u8g2+0x3c>
    9b74:	90 93 20 6f 	sts	0x6F20, r25	; 0x806f20 <u8g2+0x3d>
    9b78:	88 e0       	ldi	r24, 0x08	; 8
    9b7a:	80 93 21 6f 	sts	0x6F21, r24	; 0x806f21 <u8g2+0x3e>
    9b7e:	10 92 22 6f 	sts	0x6F22, r1	; 0x806f22 <u8g2+0x3f>
    9b82:	10 92 50 6f 	sts	0x6F50, r1	; 0x806f50 <u8g2+0x6d>
    9b86:	10 92 70 6f 	sts	0x6F70, r1	; 0x806f70 <u8g2+0x8d>
    9b8a:	81 e0       	ldi	r24, 0x01	; 1
    9b8c:	80 93 71 6f 	sts	0x6F71, r24	; 0x806f71 <u8g2+0x8e>
    9b90:	80 93 72 6f 	sts	0x6F72, r24	; 0x806f72 <u8g2+0x8f>
    9b94:	89 e5       	ldi	r24, 0x59	; 89
    9b96:	92 e6       	ldi	r25, 0x62	; 98
    9b98:	80 93 1d 6f 	sts	0x6F1D, r24	; 0x806f1d <u8g2+0x3a>
    9b9c:	90 93 1e 6f 	sts	0x6F1E, r25	; 0x806f1e <u8g2+0x3b>
    9ba0:	87 ee       	ldi	r24, 0xE7	; 231
    9ba2:	9e e6       	ldi	r25, 0x6E	; 110
    9ba4:	0e 94 63 34 	call	0x68c6	; 0x68c6 <u8g2_update_dimension_r0>
    9ba8:	10 92 39 6f 	sts	0x6F39, r1	; 0x806f39 <u8g2+0x56>
    9bac:	10 92 3a 6f 	sts	0x6F3A, r1	; 0x806f3a <u8g2+0x57>
    9bb0:	10 92 3d 6f 	sts	0x6F3D, r1	; 0x806f3d <u8g2+0x5a>
    9bb4:	10 92 3e 6f 	sts	0x6F3E, r1	; 0x806f3e <u8g2+0x5b>
    9bb8:	8f ef       	ldi	r24, 0xFF	; 255
    9bba:	9f ef       	ldi	r25, 0xFF	; 255
    9bbc:	80 93 3b 6f 	sts	0x6F3B, r24	; 0x806f3b <u8g2+0x58>
    9bc0:	90 93 3c 6f 	sts	0x6F3C, r25	; 0x806f3c <u8g2+0x59>
    9bc4:	80 93 3f 6f 	sts	0x6F3F, r24	; 0x806f3f <u8g2+0x5c>
    9bc8:	90 93 40 6f 	sts	0x6F40, r25	; 0x806f40 <u8g2+0x5d>
    9bcc:	e0 91 1d 6f 	lds	r30, 0x6F1D	; 0x806f1d <u8g2+0x3a>
    9bd0:	f0 91 1e 6f 	lds	r31, 0x6F1E	; 0x806f1e <u8g2+0x3b>
    9bd4:	02 80       	ldd	r0, Z+2	; 0x02
    9bd6:	f3 81       	ldd	r31, Z+3	; 0x03
    9bd8:	e0 2d       	mov	r30, r0
    9bda:	87 ee       	ldi	r24, 0xE7	; 231
    9bdc:	9e e6       	ldi	r25, 0x6E	; 110
    9bde:	09 95       	icall
    9be0:	8f e0       	ldi	r24, 0x0F	; 15
    9be2:	9c e2       	ldi	r25, 0x2C	; 44
    9be4:	80 93 43 6f 	sts	0x6F43, r24	; 0x806f43 <u8g2+0x60>
    9be8:	90 93 44 6f 	sts	0x6F44, r25	; 0x806f44 <u8g2+0x61>
    9bec:	10 92 53 6f 	sts	0x6F53, r1	; 0x806f53 <u8g2+0x70>
    9bf0:	e3 e0       	ldi	r30, 0x03	; 3
    9bf2:	e0 93 0e 6f 	sts	0x6F0E, r30	; 0x806f0e <u8g2+0x2b>
    9bf6:	c0 93 10 6f 	sts	0x6F10, r28	; 0x806f10 <u8g2+0x2d>
    9bfa:	10 92 d1 6e 	sts	0x6ED1, r1	; 0x806ed1 <u8g2log+0x2>
    9bfe:	10 92 d2 6e 	sts	0x6ED2, r1	; 0x806ed2 <u8g2log+0x3>
    9c02:	81 e5       	ldi	r24, 0x51	; 81
    9c04:	92 e6       	ldi	r25, 0x62	; 98
    9c06:	80 93 cf 6e 	sts	0x6ECF, r24	; 0x806ecf <u8g2log>
    9c0a:	90 93 d0 6e 	sts	0x6ED0, r25	; 0x806ed0 <u8g2log+0x1>
    9c0e:	8f e0       	ldi	r24, 0x0F	; 15
    9c10:	90 e0       	ldi	r25, 0x00	; 0
    9c12:	80 93 cb 6e 	sts	0x6ECB, r24	; 0x806ecb <closeMenu+0x2>
    9c16:	90 93 cc 6e 	sts	0x6ECC, r25	; 0x806ecc <closeMenu+0x3>
    9c1a:	28 e1       	ldi	r18, 0x18	; 24
    9c1c:	3a e0       	ldi	r19, 0x0A	; 10
    9c1e:	20 93 cd 6e 	sts	0x6ECD, r18	; 0x806ecd <closeMenu+0x4>
    9c22:	30 93 ce 6e 	sts	0x6ECE, r19	; 0x806ece <closeMenu+0x5>
    9c26:	23 e4       	ldi	r18, 0x43	; 67
    9c28:	32 e6       	ldi	r19, 0x62	; 98
    9c2a:	20 93 c9 6e 	sts	0x6EC9, r18	; 0x806ec9 <closeMenu>
    9c2e:	30 93 ca 6e 	sts	0x6ECA, r19	; 0x806eca <closeMenu+0x1>
    9c32:	80 93 c5 6e 	sts	0x6EC5, r24	; 0x806ec5 <exitMenu+0x2>
    9c36:	90 93 c6 6e 	sts	0x6EC6, r25	; 0x806ec6 <exitMenu+0x3>
    9c3a:	23 e1       	ldi	r18, 0x13	; 19
    9c3c:	3a e0       	ldi	r19, 0x0A	; 10
    9c3e:	20 93 c7 6e 	sts	0x6EC7, r18	; 0x806ec7 <exitMenu+0x4>
    9c42:	30 93 c8 6e 	sts	0x6EC8, r19	; 0x806ec8 <exitMenu+0x5>
    9c46:	25 e3       	ldi	r18, 0x35	; 53
    9c48:	32 e6       	ldi	r19, 0x62	; 98
    9c4a:	20 93 c3 6e 	sts	0x6EC3, r18	; 0x806ec3 <exitMenu>
    9c4e:	30 93 c4 6e 	sts	0x6EC4, r19	; 0x806ec4 <exitMenu+0x1>
    9c52:	80 93 bf 6e 	sts	0x6EBF, r24	; 0x806ebf <mainSeparator0+0x2>
    9c56:	90 93 c0 6e 	sts	0x6EC0, r25	; 0x806ec0 <mainSeparator0+0x3>
    9c5a:	47 e2       	ldi	r20, 0x27	; 39
    9c5c:	52 e6       	ldi	r21, 0x62	; 98
    9c5e:	40 93 bd 6e 	sts	0x6EBD, r20	; 0x806ebd <mainSeparator0>
    9c62:	50 93 be 6e 	sts	0x6EBE, r21	; 0x806ebe <mainSeparator0+0x1>
    9c66:	27 e0       	ldi	r18, 0x07	; 7
    9c68:	3a e0       	ldi	r19, 0x0A	; 10
    9c6a:	20 93 c1 6e 	sts	0x6EC1, r18	; 0x806ec1 <mainSeparator0+0x4>
    9c6e:	30 93 c2 6e 	sts	0x6EC2, r19	; 0x806ec2 <mainSeparator0+0x5>
    9c72:	80 93 b8 6e 	sts	0x6EB8, r24	; 0x806eb8 <additionalModes+0x2>
    9c76:	90 93 b9 6e 	sts	0x6EB9, r25	; 0x806eb9 <additionalModes+0x3>
    9c7a:	2b ef       	ldi	r18, 0xFB	; 251
    9c7c:	39 e0       	ldi	r19, 0x09	; 9
    9c7e:	20 93 ba 6e 	sts	0x6EBA, r18	; 0x806eba <additionalModes+0x4>
    9c82:	30 93 bb 6e 	sts	0x6EBB, r19	; 0x806ebb <additionalModes+0x5>
    9c86:	29 e1       	ldi	r18, 0x19	; 25
    9c88:	32 e6       	ldi	r19, 0x62	; 98
    9c8a:	20 93 b6 6e 	sts	0x6EB6, r18	; 0x806eb6 <additionalModes>
    9c8e:	30 93 b7 6e 	sts	0x6EB7, r19	; 0x806eb7 <additionalModes+0x1>
    9c92:	10 92 bc 6e 	sts	0x6EBC, r1	; 0x806ebc <additionalModes+0x6>
    9c96:	80 93 b1 6e 	sts	0x6EB1, r24	; 0x806eb1 <reassignStoRcl+0x2>
    9c9a:	90 93 b2 6e 	sts	0x6EB2, r25	; 0x806eb2 <reassignStoRcl+0x3>
    9c9e:	6a ee       	ldi	r22, 0xEA	; 234
    9ca0:	79 e0       	ldi	r23, 0x09	; 9
    9ca2:	60 93 b3 6e 	sts	0x6EB3, r22	; 0x806eb3 <reassignStoRcl+0x4>
    9ca6:	70 93 b4 6e 	sts	0x6EB4, r23	; 0x806eb4 <reassignStoRcl+0x5>
    9caa:	20 93 af 6e 	sts	0x6EAF, r18	; 0x806eaf <reassignStoRcl>
    9cae:	30 93 b0 6e 	sts	0x6EB0, r19	; 0x806eb0 <reassignStoRcl+0x1>
    9cb2:	10 92 b5 6e 	sts	0x6EB5, r1	; 0x806eb5 <reassignStoRcl+0x6>
    9cb6:	80 93 a9 6e 	sts	0x6EA9, r24	; 0x806ea9 <btDatalog+0x2>
    9cba:	90 93 aa 6e 	sts	0x6EAA, r25	; 0x806eaa <btDatalog+0x3>
    9cbe:	69 ed       	ldi	r22, 0xD9	; 217
    9cc0:	79 e0       	ldi	r23, 0x09	; 9
    9cc2:	60 93 ab 6e 	sts	0x6EAB, r22	; 0x806eab <btDatalog+0x4>
    9cc6:	70 93 ac 6e 	sts	0x6EAC, r23	; 0x806eac <btDatalog+0x5>
    9cca:	6b e0       	ldi	r22, 0x0B	; 11
    9ccc:	72 e6       	ldi	r23, 0x62	; 98
    9cce:	60 93 a7 6e 	sts	0x6EA7, r22	; 0x806ea7 <btDatalog>
    9cd2:	70 93 a8 6e 	sts	0x6EA8, r23	; 0x806ea8 <btDatalog+0x1>
    9cd6:	62 e8       	ldi	r22, 0x82	; 130
    9cd8:	7f e6       	ldi	r23, 0x6F	; 111
    9cda:	60 93 ad 6e 	sts	0x6EAD, r22	; 0x806ead <btDatalog+0x6>
    9cde:	70 93 ae 6e 	sts	0x6EAE, r23	; 0x806eae <btDatalog+0x7>
    9ce2:	80 93 a3 6e 	sts	0x6EA3, r24	; 0x806ea3 <bluetoothMenu+0x2>
    9ce6:	90 93 a4 6e 	sts	0x6EA4, r25	; 0x806ea4 <bluetoothMenu+0x3>
    9cea:	6d ef       	ldi	r22, 0xFD	; 253
    9cec:	71 e6       	ldi	r23, 0x61	; 97
    9cee:	60 93 a1 6e 	sts	0x6EA1, r22	; 0x806ea1 <bluetoothMenu>
    9cf2:	70 93 a2 6e 	sts	0x6EA2, r23	; 0x806ea2 <bluetoothMenu+0x1>
    9cf6:	af ec       	ldi	r26, 0xCF	; 207
    9cf8:	b9 e0       	ldi	r27, 0x09	; 9
    9cfa:	a0 93 a5 6e 	sts	0x6EA5, r26	; 0x806ea5 <bluetoothMenu+0x4>
    9cfe:	b0 93 a6 6e 	sts	0x6EA6, r27	; 0x806ea6 <bluetoothMenu+0x5>
    9d02:	80 93 9c 6e 	sts	0x6E9C, r24	; 0x806e9c <contrastCtrl+0x2>
    9d06:	90 93 9d 6e 	sts	0x6E9D, r25	; 0x806e9d <contrastCtrl+0x3>
    9d0a:	a6 ec       	ldi	r26, 0xC6	; 198
    9d0c:	b9 e0       	ldi	r27, 0x09	; 9
    9d0e:	a0 93 9e 6e 	sts	0x6E9E, r26	; 0x806e9e <contrastCtrl+0x4>
    9d12:	b0 93 9f 6e 	sts	0x6E9F, r27	; 0x806e9f <contrastCtrl+0x5>
    9d16:	10 92 a0 6e 	sts	0x6EA0, r1	; 0x806ea0 <contrastCtrl+0x6>
    9d1a:	af ee       	ldi	r26, 0xEF	; 239
    9d1c:	b1 e6       	ldi	r27, 0x61	; 97
    9d1e:	a0 93 9a 6e 	sts	0x6E9A, r26	; 0x806e9a <contrastCtrl>
    9d22:	b0 93 9b 6e 	sts	0x6E9B, r27	; 0x806e9b <contrastCtrl+0x1>
    9d26:	80 93 96 6e 	sts	0x6E96, r24	; 0x806e96 <saveSettings+0x2>
    9d2a:	90 93 97 6e 	sts	0x6E97, r25	; 0x806e97 <saveSettings+0x3>
    9d2e:	60 93 94 6e 	sts	0x6E94, r22	; 0x806e94 <saveSettings>
    9d32:	70 93 95 6e 	sts	0x6E95, r23	; 0x806e95 <saveSettings+0x1>
    9d36:	a8 eb       	ldi	r26, 0xB8	; 184
    9d38:	b9 e0       	ldi	r27, 0x09	; 9
    9d3a:	a0 93 98 6e 	sts	0x6E98, r26	; 0x806e98 <saveSettings+0x4>
    9d3e:	b0 93 99 6e 	sts	0x6E99, r27	; 0x806e99 <saveSettings+0x5>
    9d42:	80 93 90 6e 	sts	0x6E90, r24	; 0x806e90 <reloadSettings+0x2>
    9d46:	90 93 91 6e 	sts	0x6E91, r25	; 0x806e91 <reloadSettings+0x3>
    9d4a:	60 93 8e 6e 	sts	0x6E8E, r22	; 0x806e8e <reloadSettings>
    9d4e:	70 93 8f 6e 	sts	0x6E8F, r23	; 0x806e8f <reloadSettings+0x1>
    9d52:	68 ea       	ldi	r22, 0xA8	; 168
    9d54:	79 e0       	ldi	r23, 0x09	; 9
    9d56:	60 93 92 6e 	sts	0x6E92, r22	; 0x806e92 <reloadSettings+0x4>
    9d5a:	70 93 93 6e 	sts	0x6E93, r23	; 0x806e93 <reloadSettings+0x5>
    9d5e:	80 93 8a 6e 	sts	0x6E8A, r24	; 0x806e8a <openLog+0x2>
    9d62:	90 93 8b 6e 	sts	0x6E8B, r25	; 0x806e8b <openLog+0x3>
    9d66:	6f e9       	ldi	r22, 0x9F	; 159
    9d68:	79 e0       	ldi	r23, 0x09	; 9
    9d6a:	60 93 8c 6e 	sts	0x6E8C, r22	; 0x806e8c <openLog+0x4>
    9d6e:	70 93 8d 6e 	sts	0x6E8D, r23	; 0x806e8d <openLog+0x5>
    9d72:	61 ee       	ldi	r22, 0xE1	; 225
    9d74:	71 e6       	ldi	r23, 0x61	; 97
    9d76:	60 93 88 6e 	sts	0x6E88, r22	; 0x806e88 <openLog>
    9d7a:	70 93 89 6e 	sts	0x6E89, r23	; 0x806e89 <openLog+0x1>
    9d7e:	80 93 84 6e 	sts	0x6E84, r24	; 0x806e84 <logSeparator0+0x2>
    9d82:	90 93 85 6e 	sts	0x6E85, r25	; 0x806e85 <logSeparator0+0x3>
    9d86:	40 93 82 6e 	sts	0x6E82, r20	; 0x806e82 <logSeparator0>
    9d8a:	50 93 83 6e 	sts	0x6E83, r21	; 0x806e83 <logSeparator0+0x1>
    9d8e:	6c e8       	ldi	r22, 0x8C	; 140
    9d90:	79 e0       	ldi	r23, 0x09	; 9
    9d92:	60 93 86 6e 	sts	0x6E86, r22	; 0x806e86 <logSeparator0+0x4>
    9d96:	70 93 87 6e 	sts	0x6E87, r23	; 0x806e87 <logSeparator0+0x5>
    9d9a:	80 93 7d 6e 	sts	0x6E7D, r24	; 0x806e7d <logEnable+0x2>
    9d9e:	90 93 7e 6e 	sts	0x6E7E, r25	; 0x806e7e <logEnable+0x3>
    9da2:	64 e8       	ldi	r22, 0x84	; 132
    9da4:	79 e0       	ldi	r23, 0x09	; 9
    9da6:	60 93 7f 6e 	sts	0x6E7F, r22	; 0x806e7f <logEnable+0x4>
    9daa:	70 93 80 6e 	sts	0x6E80, r23	; 0x806e80 <logEnable+0x5>
    9dae:	20 93 7b 6e 	sts	0x6E7B, r18	; 0x806e7b <logEnable>
    9db2:	30 93 7c 6e 	sts	0x6E7C, r19	; 0x806e7c <logEnable+0x1>
    9db6:	10 92 81 6e 	sts	0x6E81, r1	; 0x806e81 <logEnable+0x6>
    9dba:	80 93 76 6e 	sts	0x6E76, r24	; 0x806e76 <logSkip+0x2>
    9dbe:	90 93 77 6e 	sts	0x6E77, r25	; 0x806e77 <logSkip+0x3>
    9dc2:	64 e7       	ldi	r22, 0x74	; 116
    9dc4:	79 e0       	ldi	r23, 0x09	; 9
    9dc6:	60 93 78 6e 	sts	0x6E78, r22	; 0x806e78 <logSkip+0x4>
    9dca:	70 93 79 6e 	sts	0x6E79, r23	; 0x806e79 <logSkip+0x5>
    9dce:	63 ed       	ldi	r22, 0xD3	; 211
    9dd0:	71 e6       	ldi	r23, 0x61	; 97
    9dd2:	60 93 74 6e 	sts	0x6E74, r22	; 0x806e74 <logSkip>
    9dd6:	70 93 75 6e 	sts	0x6E75, r23	; 0x806e75 <logSkip+0x1>
    9dda:	10 92 7a 6e 	sts	0x6E7A, r1	; 0x806e7a <logSkip+0x6>
    9dde:	80 93 6f 6e 	sts	0x6E6F, r24	; 0x806e6f <logSplitUnit+0x2>
    9de2:	90 93 70 6e 	sts	0x6E70, r25	; 0x806e70 <logSplitUnit+0x3>
    9de6:	69 e6       	ldi	r22, 0x69	; 105
    9de8:	79 e0       	ldi	r23, 0x09	; 9
    9dea:	60 93 71 6e 	sts	0x6E71, r22	; 0x806e71 <logSplitUnit+0x4>
    9dee:	70 93 72 6e 	sts	0x6E72, r23	; 0x806e72 <logSplitUnit+0x5>
    9df2:	20 93 6d 6e 	sts	0x6E6D, r18	; 0x806e6d <logSplitUnit>
    9df6:	30 93 6e 6e 	sts	0x6E6E, r19	; 0x806e6e <logSplitUnit+0x1>
    9dfa:	10 92 73 6e 	sts	0x6E73, r1	; 0x806e73 <logSplitUnit+0x6>
    9dfe:	80 93 68 6e 	sts	0x6E68, r24	; 0x806e68 <logTimestamp+0x2>
    9e02:	90 93 69 6e 	sts	0x6E69, r25	; 0x806e69 <logTimestamp+0x3>
    9e06:	6b e5       	ldi	r22, 0x5B	; 91
    9e08:	79 e0       	ldi	r23, 0x09	; 9
    9e0a:	60 93 6a 6e 	sts	0x6E6A, r22	; 0x806e6a <logTimestamp+0x4>
    9e0e:	70 93 6b 6e 	sts	0x6E6B, r23	; 0x806e6b <logTimestamp+0x5>
    9e12:	20 93 66 6e 	sts	0x6E66, r18	; 0x806e66 <logTimestamp>
    9e16:	30 93 67 6e 	sts	0x6E67, r19	; 0x806e67 <logTimestamp+0x1>
    9e1a:	10 92 6c 6e 	sts	0x6E6C, r1	; 0x806e6c <logTimestamp+0x6>
    9e1e:	80 93 61 6e 	sts	0x6E61, r24	; 0x806e61 <logTamb+0x2>
    9e22:	90 93 62 6e 	sts	0x6E62, r25	; 0x806e62 <logTamb+0x3>
    9e26:	6e e4       	ldi	r22, 0x4E	; 78
    9e28:	79 e0       	ldi	r23, 0x09	; 9
    9e2a:	60 93 63 6e 	sts	0x6E63, r22	; 0x806e63 <logTamb+0x4>
    9e2e:	70 93 64 6e 	sts	0x6E64, r23	; 0x806e64 <logTamb+0x5>
    9e32:	20 93 5f 6e 	sts	0x6E5F, r18	; 0x806e5f <logTamb>
    9e36:	30 93 60 6e 	sts	0x6E60, r19	; 0x806e60 <logTamb+0x1>
    9e3a:	10 92 65 6e 	sts	0x6E65, r1	; 0x806e65 <logTamb+0x6>
    9e3e:	80 93 5a 6e 	sts	0x6E5A, r24	; 0x806e5a <logStat+0x2>
    9e42:	90 93 5b 6e 	sts	0x6E5B, r25	; 0x806e5b <logStat+0x3>
    9e46:	6b e3       	ldi	r22, 0x3B	; 59
    9e48:	79 e0       	ldi	r23, 0x09	; 9
    9e4a:	60 93 5c 6e 	sts	0x6E5C, r22	; 0x806e5c <logStat+0x4>
    9e4e:	70 93 5d 6e 	sts	0x6E5D, r23	; 0x806e5d <logStat+0x5>
    9e52:	20 93 58 6e 	sts	0x6E58, r18	; 0x806e58 <logStat>
    9e56:	30 93 59 6e 	sts	0x6E59, r19	; 0x806e59 <logStat+0x1>
    9e5a:	10 92 5e 6e 	sts	0x6E5E, r1	; 0x806e5e <logStat+0x6>
    9e5e:	80 93 54 6e 	sts	0x6E54, r24	; 0x806e54 <logSeparator1+0x2>
    9e62:	90 93 55 6e 	sts	0x6E55, r25	; 0x806e55 <logSeparator1+0x3>
    9e66:	40 93 52 6e 	sts	0x6E52, r20	; 0x806e52 <logSeparator1>
    9e6a:	50 93 53 6e 	sts	0x6E53, r21	; 0x806e53 <logSeparator1+0x1>
    9e6e:	2c e2       	ldi	r18, 0x2C	; 44
    9e70:	39 e0       	ldi	r19, 0x09	; 9
    9e72:	20 93 56 6e 	sts	0x6E56, r18	; 0x806e56 <logSeparator1+0x4>
    9e76:	30 93 57 6e 	sts	0x6E57, r19	; 0x806e57 <logSeparator1+0x5>
    9e7a:	80 93 4d 6e 	sts	0x6E4D, r24	; 0x806e4d <logStatSamples+0x2>
    9e7e:	90 93 4e 6e 	sts	0x6E4E, r25	; 0x806e4e <logStatSamples+0x3>
    9e82:	8f e1       	ldi	r24, 0x1F	; 31
    9e84:	99 e0       	ldi	r25, 0x09	; 9
    9e86:	80 93 4f 6e 	sts	0x6E4F, r24	; 0x806e4f <logStatSamples+0x4>
    9e8a:	90 93 50 6e 	sts	0x6E50, r25	; 0x806e50 <logStatSamples+0x5>
    9e8e:	10 92 51 6e 	sts	0x6E51, r1	; 0x806e51 <logStatSamples+0x6>
    9e92:	85 ec       	ldi	r24, 0xC5	; 197
    9e94:	91 e6       	ldi	r25, 0x61	; 97
    9e96:	80 93 4b 6e 	sts	0x6E4B, r24	; 0x806e4b <logStatSamples>
    9e9a:	90 93 4c 6e 	sts	0x6E4C, r25	; 0x806e4c <logStatSamples+0x1>
    9e9e:	10 92 96 6f 	sts	0x6F96, r1	; 0x806f96 <k197dev>
    9ea2:	10 92 9f 6f 	sts	0x6F9F, r1	; 0x806f9f <k197dev+0x9>
    9ea6:	10 92 a0 6f 	sts	0x6FA0, r1	; 0x806fa0 <k197dev+0xa>
    9eaa:	10 92 a1 6f 	sts	0x6FA1, r1	; 0x806fa1 <k197dev+0xb>
    9eae:	10 92 a2 6f 	sts	0x6FA2, r1	; 0x806fa2 <k197dev+0xc>
    9eb2:	10 92 a3 6f 	sts	0x6FA3, r1	; 0x806fa3 <k197dev+0xd>
    9eb6:	10 92 a4 6f 	sts	0x6FA4, r1	; 0x806fa4 <k197dev+0xe>
    9eba:	10 92 a5 6f 	sts	0x6FA5, r1	; 0x806fa5 <k197dev+0xf>
    9ebe:	10 92 a6 6f 	sts	0x6FA6, r1	; 0x806fa6 <k197dev+0x10>
    9ec2:	10 92 a7 6f 	sts	0x6FA7, r1	; 0x806fa7 <k197dev+0x11>
    9ec6:	10 92 a8 6f 	sts	0x6FA8, r1	; 0x806fa8 <k197dev+0x12>
    9eca:	10 92 a9 6f 	sts	0x6FA9, r1	; 0x806fa9 <k197dev+0x13>
    9ece:	10 92 aa 6f 	sts	0x6FAA, r1	; 0x806faa <k197dev+0x14>
    9ed2:	e0 93 ab 6f 	sts	0x6FAB, r30	; 0x806fab <k197dev+0x15>
    9ed6:	10 92 ac 6f 	sts	0x6FAC, r1	; 0x806fac <k197dev+0x16>
    9eda:	10 92 ad 6f 	sts	0x6FAD, r1	; 0x806fad <k197dev+0x17>
    9ede:	10 92 ae 6f 	sts	0x6FAE, r1	; 0x806fae <k197dev+0x18>
    9ee2:	10 92 af 6f 	sts	0x6FAF, r1	; 0x806faf <k197dev+0x19>
    9ee6:	10 92 b0 6f 	sts	0x6FB0, r1	; 0x806fb0 <k197dev+0x1a>
    9eea:	10 92 b1 6f 	sts	0x6FB1, r1	; 0x806fb1 <k197dev+0x1b>
    9eee:	10 92 b2 6f 	sts	0x6FB2, r1	; 0x806fb2 <k197dev+0x1c>
    9ef2:	10 92 b3 6f 	sts	0x6FB3, r1	; 0x806fb3 <k197dev+0x1d>
    9ef6:	10 92 b4 6f 	sts	0x6FB4, r1	; 0x806fb4 <k197dev+0x1e>
    9efa:	10 92 b5 6f 	sts	0x6FB5, r1	; 0x806fb5 <k197dev+0x1f>
    9efe:	10 92 b6 6f 	sts	0x6FB6, r1	; 0x806fb6 <k197dev+0x20>
    9f02:	10 92 b7 6f 	sts	0x6FB7, r1	; 0x806fb7 <k197dev+0x21>
    9f06:	10 92 b8 6f 	sts	0x6FB8, r1	; 0x806fb8 <k197dev+0x22>
    9f0a:	10 92 b9 6f 	sts	0x6FB9, r1	; 0x806fb9 <k197dev+0x23>
    9f0e:	10 92 ba 6f 	sts	0x6FBA, r1	; 0x806fba <k197dev+0x24>
    9f12:	10 92 bb 6f 	sts	0x6FBB, r1	; 0x806fbb <k197dev+0x25>
    9f16:	10 92 bc 6f 	sts	0x6FBC, r1	; 0x806fbc <k197dev+0x26>
    9f1a:	10 92 bd 6f 	sts	0x6FBD, r1	; 0x806fbd <k197dev+0x27>
    9f1e:	10 92 be 6f 	sts	0x6FBE, r1	; 0x806fbe <k197dev+0x28>
    9f22:	10 92 bf 6f 	sts	0x6FBF, r1	; 0x806fbf <k197dev+0x29>
    9f26:	10 92 97 6f 	sts	0x6F97, r1	; 0x806f97 <k197dev+0x1>
    9f2a:	10 92 c0 6f 	sts	0x6FC0, r1	; 0x806fc0 <BTman>
    9f2e:	10 92 c1 6f 	sts	0x6FC1, r1	; 0x806fc1 <BTman+0x1>
    9f32:	cf 91       	pop	r28
    9f34:	08 95       	ret

00009f36 <main>:
main():
C:\Users\dax\AppData\Local\Arduino15\packages\DxCore\hardware\megaavr\1.4.10\cores\dxcore/main.cpp:49
 * called first in non-optiboot configurations (neither is needed on Optibooot configurations() *
 * an extra bit of initialization code in .init3 to fix the vectors and still happen if user    *
 * overrides main. In the past there was a USB-related function here, that is removed, as work  *
 * will be needed in any event at the core level if VUSB-based "stuff" arrives, but really I'm  *
 * just waiting for the DU-series now                                                           */
int main() {
    9f36:	cf 93       	push	r28
    9f38:	df 93       	push	r29
    9f3a:	cd b7       	in	r28, 0x3d	; 61
    9f3c:	de b7       	in	r29, 0x3e	; 62
    9f3e:	6a 97       	sbiw	r28, 0x1a	; 26
    9f40:	cd bf       	out	0x3d, r28	; 61
    9f42:	de bf       	out	0x3e, r29	; 62
init():
C:\Users\dax\AppData\Local\Arduino15\packages\DxCore\hardware\megaavr\1.4.10\cores\dxcore/wiring.c:1048
void init() {
  // this is called by main() before setup() - configures the on-chip peripherals.
  #if ((defined(DB_28_PINS) || defined(DB_32_pins)) && !defined(NO_PIN_PD0_BUG))
    // PD0 does not exist on these parts - VDDIO2 took it's (physical) spot.
    // but due to a silicon bug, the input buffer is on, but it's input is floating. Per errata, we are supposed to turn it off.
    PORTD.PIN0CTRL = PORT_ISC_INPUT_DISABLE_gc;
    9f44:	84 e0       	ldi	r24, 0x04	; 4
    9f46:	80 93 70 04 	sts	0x0470, r24	; 0x800470 <__TEXT_REGION_LENGTH__+0x7f0470>
init_clock():
C:\Users\dax\AppData\Local\Arduino15\packages\DxCore\hardware\megaavr\1.4.10\cores\dxcore/wiring.c:1305
      _PROTECTED_WRITE(CLKCTRL_OSCHFCTRLA, (0x0B << 2));
    #elif (F_CPU == 28000000)
      /* Overclocked - generally quite reliable at room temperature, but a dumb frequency (see PWM section) */
      _PROTECTED_WRITE(CLKCTRL_OSCHFCTRLA, (0x0A << 2));
    #elif (F_CPU == 24000000)
      _PROTECTED_WRITE(CLKCTRL_OSCHFCTRLA, (0x09 << 2));
    9f4a:	88 ed       	ldi	r24, 0xD8	; 216
    9f4c:	94 e2       	ldi	r25, 0x24	; 36
    9f4e:	84 bf       	out	0x34, r24	; 52
    9f50:	90 93 68 00 	sts	0x0068, r25	; 0x800068 <__TEXT_REGION_LENGTH__+0x7f0068>
init_TCA0():
C:\Users\dax\AppData\Local\Arduino15\packages\DxCore\hardware\megaavr\1.4.10\cores\dxcore/wiring.c:1565
}

void __attribute__((weak)) init_TCA0() {
  /* TCA0_PINS from pins_arduino.h */
  /* Enable Split Mode to get more PWM pins, since analogWrite() only provides 8-bit PWM anyway*/
  TCA0.SPLIT.CTRLD = TCA_SPLIT_SPLITM_bm;
    9f54:	11 e0       	ldi	r17, 0x01	; 1
    9f56:	10 93 03 0a 	sts	0x0A03, r17	; 0x800a03 <__TEXT_REGION_LENGTH__+0x7f0a03>
C:\Users\dax\AppData\Local\Arduino15\packages\DxCore\hardware\megaavr\1.4.10\cores\dxcore/wiring.c:1570

  // Only 1 WGM is available in split mode

  /* Period setting, 8-bit register in SPLIT mode */
  TCA0.SPLIT.LPER    = PWM_TIMER_PERIOD;
    9f5a:	9e ef       	ldi	r25, 0xFE	; 254
    9f5c:	90 93 26 0a 	sts	0x0A26, r25	; 0x800a26 <__TEXT_REGION_LENGTH__+0x7f0a26>
C:\Users\dax\AppData\Local\Arduino15\packages\DxCore\hardware\megaavr\1.4.10\cores\dxcore/wiring.c:1571
  TCA0.SPLIT.HPER    = PWM_TIMER_PERIOD;
    9f60:	90 93 27 0a 	sts	0x0A27, r25	; 0x800a27 <__TEXT_REGION_LENGTH__+0x7f0a27>
C:\Users\dax\AppData\Local\Arduino15\packages\DxCore\hardware\megaavr\1.4.10\cores\dxcore/wiring.c:1602
    TCA0.SPLIT.CTRLA   = (TCA_SPLIT_CLKSEL_DIV256_gc) | (TCA_SPLIT_ENABLE_bm);
  #elif (F_CPU > 5000000) // use 64 divider unless it's 5 MHz or under
    #if defined(MILLIS_USE_TIMERA0) && (TIME_TRACKING_TIMER_DIVIDER != 64)
      #error "wiring.c and timers.h want to set millis timer TCA0 to different divider"
    #endif
    TCA0.SPLIT.CTRLA   =  (TCA_SPLIT_CLKSEL_DIV64_gc) | (TCA_SPLIT_ENABLE_bm);
    9f64:	8b e0       	ldi	r24, 0x0B	; 11
    9f66:	80 93 00 0a 	sts	0x0A00, r24	; 0x800a00 <__TEXT_REGION_LENGTH__+0x7f0a00>
init_timers():
C:\Users\dax\AppData\Local\Arduino15\packages\DxCore\hardware\megaavr\1.4.10\cores\dxcore/wiring.c:1554
  init_TCA0();
  #if (defined(TCA1))
    PORTMUX.TCAROUTEA = TCA0_PINS | TCA1_PINS;
    init_TCA1();
  #else
    PORTMUX.TCAROUTEA = TCA0_PINS;
    9f6a:	03 e0       	ldi	r16, 0x03	; 3
    9f6c:	00 93 e6 05 	sts	0x05E6, r16	; 0x8005e6 <__TEXT_REGION_LENGTH__+0x7f05e6>
init_TCBs():
C:\Users\dax\AppData\Local\Arduino15\packages\DxCore\hardware\megaavr\1.4.10\cores\dxcore/wiring.c:1657
 * Set up routing (defined in pins_arduino.h)
 * Notice how there's no semicolon until after the preprocessor conditionals.
 * In other words, that's all one line.
 */

  PORTMUX.TCBROUTEA = 0
    9f70:	10 92 e7 05 	sts	0x05E7, r1	; 0x8005e7 <__TEXT_REGION_LENGTH__+0x7f05e7>
C:\Users\dax\AppData\Local\Arduino15\packages\DxCore\hardware\megaavr\1.4.10\cores\dxcore/wiring.c:1696
  #endif

  // Timer B Setup loop for TCB[0:end]
  do {
    // 8 bit PWM mode, but do not enable output yet, will do in analogWrite()
    timer_B->CTRLB = (TCB_CNTMODE_PWM8_gc);
    9f74:	27 e0       	ldi	r18, 0x07	; 7
    9f76:	20 93 01 0b 	sts	0x0B01, r18	; 0x800b01 <__TEXT_REGION_LENGTH__+0x7f0b01>
C:\Users\dax\AppData\Local\Arduino15\packages\DxCore\hardware\megaavr\1.4.10\cores\dxcore/wiring.c:1699

    // Assign 8-bit period
    timer_B->CCMPL = PWM_TIMER_PERIOD; // TOP = 254 see section at start
    9f7a:	90 93 0c 0b 	sts	0x0B0C, r25	; 0x800b0c <__TEXT_REGION_LENGTH__+0x7f0b0c>
C:\Users\dax\AppData\Local\Arduino15\packages\DxCore\hardware\megaavr\1.4.10\cores\dxcore/wiring.c:1702
    // default duty 50% - we have to set something here because of the
    // errata, otherwise CCMP will not get the CCMPL either.
    timer_B->CCMPH = PWM_TIMER_COMPARE;
    9f7e:	10 92 0d 0b 	sts	0x0B0D, r1	; 0x800b0d <__TEXT_REGION_LENGTH__+0x7f0b0d>
C:\Users\dax\AppData\Local\Arduino15\packages\DxCore\hardware\megaavr\1.4.10\cores\dxcore/wiring.c:1705

    // Use TCA clock (250kHz, +/- 50%) and enable
    timer_B->CTRLA = (TCB_CLKSEL_TCA0_gc) | (TCB_ENABLE_bm);
    9f82:	85 e0       	ldi	r24, 0x05	; 5
    9f84:	80 93 00 0b 	sts	0x0B00, r24	; 0x800b00 <__TEXT_REGION_LENGTH__+0x7f0b00>
C:\Users\dax\AppData\Local\Arduino15\packages\DxCore\hardware\megaavr\1.4.10\cores\dxcore/wiring.c:1696
  #endif

  // Timer B Setup loop for TCB[0:end]
  do {
    // 8 bit PWM mode, but do not enable output yet, will do in analogWrite()
    timer_B->CTRLB = (TCB_CNTMODE_PWM8_gc);
    9f88:	20 93 11 0b 	sts	0x0B11, r18	; 0x800b11 <__TEXT_REGION_LENGTH__+0x7f0b11>
C:\Users\dax\AppData\Local\Arduino15\packages\DxCore\hardware\megaavr\1.4.10\cores\dxcore/wiring.c:1699

    // Assign 8-bit period
    timer_B->CCMPL = PWM_TIMER_PERIOD; // TOP = 254 see section at start
    9f8c:	90 93 1c 0b 	sts	0x0B1C, r25	; 0x800b1c <__TEXT_REGION_LENGTH__+0x7f0b1c>
C:\Users\dax\AppData\Local\Arduino15\packages\DxCore\hardware\megaavr\1.4.10\cores\dxcore/wiring.c:1702
    // default duty 50% - we have to set something here because of the
    // errata, otherwise CCMP will not get the CCMPL either.
    timer_B->CCMPH = PWM_TIMER_COMPARE;
    9f90:	10 92 1d 0b 	sts	0x0B1D, r1	; 0x800b1d <__TEXT_REGION_LENGTH__+0x7f0b1d>
C:\Users\dax\AppData\Local\Arduino15\packages\DxCore\hardware\megaavr\1.4.10\cores\dxcore/wiring.c:1705

    // Use TCA clock (250kHz, +/- 50%) and enable
    timer_B->CTRLA = (TCB_CLKSEL_TCA0_gc) | (TCB_ENABLE_bm);
    9f94:	80 93 10 0b 	sts	0x0B10, r24	; 0x800b10 <__TEXT_REGION_LENGTH__+0x7f0b10>
init_TCD0():
C:\Users\dax\AppData\Local\Arduino15\packages\DxCore\hardware\megaavr\1.4.10\cores\dxcore/wiring.c:1749
 * be set in the status register. We skip checking this here because, as we do many places the  *
 * initiialization functions assume that the chip starts from a reset condition.                */

void __attribute__((weak)) init_TCD0() {
  #if defined(USE_TIMERD0_PWM) || defined (MILLIS_USE_TIMERD0)
    TCD0.CMPACLR  = 0x0FFF;
    9f98:	2f ef       	ldi	r18, 0xFF	; 255
    9f9a:	3f e0       	ldi	r19, 0x0F	; 15
    9f9c:	20 93 aa 0b 	sts	0x0BAA, r18	; 0x800baa <__TEXT_REGION_LENGTH__+0x7f0baa>
    9fa0:	30 93 ab 0b 	sts	0x0BAB, r19	; 0x800bab <__TEXT_REGION_LENGTH__+0x7f0bab>
C:\Users\dax\AppData\Local\Arduino15\packages\DxCore\hardware\megaavr\1.4.10\cores\dxcore/wiring.c:1753
    // Match with CMPBCLR clears all outputs. For normal PWM this just needs to be higher than
    // it will count to - so set to maximum (other settings used for non-overlapping PWM and
    // other advanced functionality)
    TCD0.CTRLC    = 0x80;                   // WOD outputs PWM B, WOC outputs PWM A
    9fa4:	90 e8       	ldi	r25, 0x80	; 128
    9fa6:	90 93 82 0b 	sts	0x0B82, r25	; 0x800b82 <__TEXT_REGION_LENGTH__+0x7f0b82>
C:\Users\dax\AppData\Local\Arduino15\packages\DxCore\hardware\megaavr\1.4.10\cores\dxcore/wiring.c:1755
    // That doesn't need to be that way, but I declare that that's all we support through analogWrite()
    TCD0.CTRLB    = TIMERD0_WGMODE_SETTING;
    9faa:	10 92 81 0b 	sts	0x0B81, r1	; 0x800b81 <__TEXT_REGION_LENGTH__+0x7f0b81>
C:\Users\dax\AppData\Local\Arduino15\packages\DxCore\hardware\megaavr\1.4.10\cores\dxcore/wiring.c:1758
    // One ramp or dual slope are the only options that are viable to reproduce classic behavior without
    // considerable calculation overhead. We use one-ramp mode
    TCD0.CMPBCLR  = TIMERD0_TOP_SETTING;
    9fae:	2b ef       	ldi	r18, 0xFB	; 251
    9fb0:	33 e0       	ldi	r19, 0x03	; 3
    9fb2:	20 93 ae 0b 	sts	0x0BAE, r18	; 0x800bae <__TEXT_REGION_LENGTH__+0x7f0bae>
    9fb6:	30 93 af 0b 	sts	0x0BAF, r19	; 0x800baf <__TEXT_REGION_LENGTH__+0x7f0baf>
C:\Users\dax\AppData\Local\Arduino15\packages\DxCore\hardware\megaavr\1.4.10\cores\dxcore/wiring.c:1767
    #if defined(TIMERD0_SET_CLOCK)
      _PROTECTED_WRITE(CLKCTRL_OSCHFCTRLA, (TIMERD0_SET_CLOCK));
    #endif


    TCD0.CTRLA    = TIMERD0_CLOCK_SETTING | TCD_ENABLE_bm;
    9fba:	21 e7       	ldi	r18, 0x71	; 113
    9fbc:	20 93 80 0b 	sts	0x0B80, r18	; 0x800b80 <__TEXT_REGION_LENGTH__+0x7f0b80>
init_ADC0():
C:\Users\dax\AppData\Local\Arduino15\packages\DxCore\hardware\megaavr\1.4.10\cores\dxcore/wiring.c:1197
    #elif F_CPU >= 36000000
      ADC0.CTRLC = ADC_PRESC_DIV28_gc; // 1.286 @ 36 MHz
    #elif F_CPU >  28000000
      ADC0.CTRLC = ADC_PRESC_DIV24_gc; // 1.33 @ 32 MHz, 1.
    #elif F_CPU >= 24000000
      ADC0.CTRLC = ADC_PRESC_DIV20_gc; // 1.2 @ 24, 1.25 @ 25, 1.4 @ 28  MHz
    9fc0:	80 93 02 06 	sts	0x0602, r24	; 0x800602 <__TEXT_REGION_LENGTH__+0x7f0602>
C:\Users\dax\AppData\Local\Arduino15\packages\DxCore\hardware\megaavr\1.4.10\cores\dxcore/wiring.c:1209
    #elif F_CPU >= 4000000
      ADC0.CTRLC = ADC_PRESC_DIV4_gc;  // 1 MHz
    #else  // 1 MHz / 2 = 500 kHz - the lowest setting
      ADC0.CTRLC = ADC_PRESC_DIV2_gc;
    #endif
    ADC0.SAMPCTRL = 14; // 16 ADC clock sampling time - should be about the same amount of *time* as originally?
    9fc4:	2e e0       	ldi	r18, 0x0E	; 14
    9fc6:	20 93 05 06 	sts	0x0605, r18	; 0x800605 <__TEXT_REGION_LENGTH__+0x7f0605>
C:\Users\dax\AppData\Local\Arduino15\packages\DxCore\hardware\megaavr\1.4.10\cores\dxcore/wiring.c:1211
    // This is WAY conservative! We could drop it down...
    ADC0.CTRLD = ADC_INITDLY_DLY64_gc; // VREF can take 50uS to become ready, and we're running the ADC clock
    9fca:	20 e6       	ldi	r18, 0x60	; 96
    9fcc:	20 93 03 06 	sts	0x0603, r18	; 0x800603 <__TEXT_REGION_LENGTH__+0x7f0603>
C:\Users\dax\AppData\Local\Arduino15\packages\DxCore\hardware\megaavr\1.4.10\cores\dxcore/wiring.c:1214
    // at around 1 MHz, so we want 64 ADC clocks when we start up a new reference so we don't get bad readings at first
    /* Enable ADC */
    ADC0.CTRLA = ADC_ENABLE_bm | ADC_RESSEL_10BIT_gc;
    9fd0:	80 93 00 06 	sts	0x0600, r24	; 0x800600 <__TEXT_REGION_LENGTH__+0x7f0600>
analogReference():
C:\Users\dax\AppData\Local\Arduino15\packages\DxCore\hardware\megaavr\1.4.10\cores\dxcore/wiring_analog.c:124


void analogReference(uint8_t mode) {
  check_valid_analog_ref(mode);
  if (mode < 7 && mode !=4) {
    VREF.ADC0REF = (VREF.ADC0REF & ~(VREF_REFSEL_gm))|(mode);
    9fd4:	80 91 b0 00 	lds	r24, 0x00B0	; 0x8000b0 <__TEXT_REGION_LENGTH__+0x7f00b0>
    9fd8:	88 7f       	andi	r24, 0xF8	; 248
    9fda:	85 60       	ori	r24, 0x05	; 5
    9fdc:	80 93 b0 00 	sts	0x00B0, r24	; 0x8000b0 <__TEXT_REGION_LENGTH__+0x7f00b0>
DACReference():
C:\Users\dax\AppData\Local\Arduino15\packages\DxCore\hardware\megaavr\1.4.10\cores\dxcore/wiring_analog.c:131
}

void DACReference(uint8_t mode) {
  check_valid_analog_ref(mode);
  if (mode < 7 && mode !=4) {
    VREF.DAC0REF = (VREF.DAC0REF & ~(VREF_REFSEL_gm))|(mode);
    9fe0:	80 91 b2 00 	lds	r24, 0x00B2	; 0x8000b2 <__TEXT_REGION_LENGTH__+0x7f00b2>
    9fe4:	88 7f       	andi	r24, 0xF8	; 248
    9fe6:	85 60       	ori	r24, 0x05	; 5
    9fe8:	80 93 b2 00 	sts	0x00B2, r24	; 0x8000b2 <__TEXT_REGION_LENGTH__+0x7f00b2>
init_millis():
C:\Users\dax\AppData\Local\Arduino15\packages\DxCore\hardware\megaavr\1.4.10\cores\dxcore/wiring.c:1134
      // RTC.CLKSEL = 0; this is the power on value
    #endif
      RTC.INTCTRL = 0x01; // enable overflow interrupt
      RTC.CTRLA = (RTC_RUNSTDBY_bm|RTC_RTCEN_bm|RTC_PRESCALER_DIV32_gc);//fire it up, prescale by 32.
    #else // It's a type b timer
      _timer->CCMP = TIME_TRACKING_TIMER_PERIOD;
    9fec:	2f ed       	ldi	r18, 0xDF	; 223
    9fee:	3e e2       	ldi	r19, 0x2E	; 46
    9ff0:	20 93 2c 0b 	sts	0x0B2C, r18	; 0x800b2c <__TEXT_REGION_LENGTH__+0x7f0b2c>
    9ff4:	30 93 2d 0b 	sts	0x0B2D, r19	; 0x800b2d <__TEXT_REGION_LENGTH__+0x7f0b2d>
C:\Users\dax\AppData\Local\Arduino15\packages\DxCore\hardware\megaavr\1.4.10\cores\dxcore/wiring.c:1136
      // Enable timer interrupt, but clear the rest of register
      _timer->INTCTRL = TCB_CAPT_bm;
    9ff8:	10 93 25 0b 	sts	0x0B25, r17	; 0x800b25 <__TEXT_REGION_LENGTH__+0x7f0b25>
C:\Users\dax\AppData\Local\Arduino15\packages\DxCore\hardware\megaavr\1.4.10\cores\dxcore/wiring.c:1138
      // Clear timer mode (since it will have been set as PWM by init())
      _timer->CTRLB = 0;
    9ffc:	10 92 21 0b 	sts	0x0B21, r1	; 0x800b21 <__TEXT_REGION_LENGTH__+0x7f0b21>
C:\Users\dax\AppData\Local\Arduino15\packages\DxCore\hardware\megaavr\1.4.10\cores\dxcore/wiring.c:1140
      // CLK_PER/1 is 0b00, . CLK_PER/2 is 0b01, so bitwise OR of valid divider with enable works
      _timer->CTRLA = TIME_TRACKING_TIMER_DIVIDER|TCB_ENABLE_bm;  // Keep this last before enabling interrupts to ensure tracking as accurate as possible
    a000:	00 93 20 0b 	sts	0x0B20, r16	; 0x800b20 <__TEXT_REGION_LENGTH__+0x7f0b20>
main():
C:\Users\dax\AppData\Local\Arduino15\packages\DxCore\hardware\megaavr\1.4.10\cores\dxcore/main.cpp:53
  onBeforeInit(); // Emnpty callback called before init but after the .init stuff. First normal code executed
  init(); // Interrupts are turned on just prior to init() returning.
  initVariant();
  if (!onAfterInit()) sei();  // enable interrupts.
    a004:	78 94       	sei
setup():
C:\Users\dax\Google Drive\GitLocalRepositories\K197Display/K197Display.ino:309
*/
void setup() {
  // Enable slew rate limiting on all ports
  // Note: simple assignment ok on DA, DB, and DD-series parts, no other bits of
  // PORTCTRL are used
  PORTA.PORTCTRL = PORT_SRL_bm;
    a006:	10 93 0a 04 	sts	0x040A, r17	; 0x80040a <__TEXT_REGION_LENGTH__+0x7f040a>
C:\Users\dax\Google Drive\GitLocalRepositories\K197Display/K197Display.ino:310
  PORTC.PORTCTRL = PORT_SRL_bm;
    a00a:	10 93 4a 04 	sts	0x044A, r17	; 0x80044a <__TEXT_REGION_LENGTH__+0x7f044a>
C:\Users\dax\Google Drive\GitLocalRepositories\K197Display/K197Display.ino:311
  PORTD.PORTCTRL = PORT_SRL_bm;
    a00e:	10 93 6a 04 	sts	0x046A, r17	; 0x80046a <__TEXT_REGION_LENGTH__+0x7f046a>
C:\Users\dax\Google Drive\GitLocalRepositories\K197Display/K197Display.ino:312
  PORTF.PORTCTRL = PORT_SRL_bm;
    a012:	10 93 aa 04 	sts	0x04AA, r17	; 0x8004aa <__TEXT_REGION_LENGTH__+0x7f04aa>
_pinConfigure():
C:\Users\dax\AppData\Local\Arduino15\packages\DxCore\hardware\megaavr\1.4.10\cores\dxcore/wiring_digital.c:120
  }
  volatile uint8_t *portbase = (volatile uint8_t*) digitalPinToPortStruct(pin);
  uint8_t bit_pos = digitalPinToBitPosition(pin);
  uint8_t setting = pinconfig & 0x03; // grab direction bits
  if (setting) {
    *(portbase + setting) = bit_mask; // DIR
    a016:	80 e2       	ldi	r24, 0x20	; 32
    a018:	80 93 62 04 	sts	0x0462, r24	; 0x800462 <__TEXT_REGION_LENGTH__+0x7f0462>
C:\Users\dax\AppData\Local\Arduino15\packages\DxCore\hardware\megaavr\1.4.10\cores\dxcore/wiring_digital.c:129
  if (setting) {
    *(portbase + 4 + setting) = bit_mask;  // OUT
  }
  if (!(pinconfig & 0x3FFC)) return; // RETURN if we're done before we start this mess.
  pinconfig >>= 2;
  uint8_t oldSREG = SREG;
    a01c:	2f b7       	in	r18, 0x3f	; 63
C:\Users\dax\AppData\Local\Arduino15\packages\DxCore\hardware\megaavr\1.4.10\cores\dxcore/wiring_digital.c:130
  cli();
    a01e:	f8 94       	cli
C:\Users\dax\AppData\Local\Arduino15\packages\DxCore\hardware\megaavr\1.4.10\cores\dxcore/wiring_digital.c:131
  uint8_t pinncfg = *(portbase + 0x10 + bit_pos);
    a020:	80 91 75 04 	lds	r24, 0x0475	; 0x800475 <__TEXT_REGION_LENGTH__+0x7f0475>
    a024:	88 73       	andi	r24, 0x38	; 56
C:\Users\dax\AppData\Local\Arduino15\packages\DxCore\hardware\megaavr\1.4.10\cores\dxcore/wiring_digital.c:178
  temp = pinconfig & 0x0C; // INVERT PIN
  if (temp) {
    if (temp == 0x0C) {
      pinncfg ^= 0x80;    // toggle invert - of dubious utility, but I'll accept it.
    } else if (temp == 0x08) {
      pinncfg &= ~(0x80); // clear
    a026:	88 60       	ori	r24, 0x08	; 8
C:\Users\dax\AppData\Local\Arduino15\packages\DxCore\hardware\megaavr\1.4.10\cores\dxcore/wiring_digital.c:183
    } else {
      pinncfg |= 0x80;    // set
    }
  }
  *(portbase + 0x10 + bit_pos) = pinncfg;
    a028:	80 93 75 04 	sts	0x0475, r24	; 0x800475 <__TEXT_REGION_LENGTH__+0x7f0475>
C:\Users\dax\AppData\Local\Arduino15\packages\DxCore\hardware\megaavr\1.4.10\cores\dxcore/wiring_digital.c:184
  SREG=oldSREG; // re-enable interrupts
    a02c:	2f bf       	out	0x3f, r18	; 63
C:\Users\dax\AppData\Local\Arduino15\packages\DxCore\hardware\megaavr\1.4.10\cores\dxcore/wiring_digital.c:120
  }
  volatile uint8_t *portbase = (volatile uint8_t*) digitalPinToPortStruct(pin);
  uint8_t bit_pos = digitalPinToBitPosition(pin);
  uint8_t setting = pinconfig & 0x03; // grab direction bits
  if (setting) {
    *(portbase + setting) = bit_mask; // DIR
    a02e:	90 93 62 04 	sts	0x0462, r25	; 0x800462 <__TEXT_REGION_LENGTH__+0x7f0462>
C:\Users\dax\AppData\Local\Arduino15\packages\DxCore\hardware\megaavr\1.4.10\cores\dxcore/wiring_digital.c:129
  if (setting) {
    *(portbase + 4 + setting) = bit_mask;  // OUT
  }
  if (!(pinconfig & 0x3FFC)) return; // RETURN if we're done before we start this mess.
  pinconfig >>= 2;
  uint8_t oldSREG = SREG;
    a032:	9f b7       	in	r25, 0x3f	; 63
C:\Users\dax\AppData\Local\Arduino15\packages\DxCore\hardware\megaavr\1.4.10\cores\dxcore/wiring_digital.c:130
  cli();
    a034:	f8 94       	cli
C:\Users\dax\AppData\Local\Arduino15\packages\DxCore\hardware\megaavr\1.4.10\cores\dxcore/wiring_digital.c:131
  uint8_t pinncfg = *(portbase + 0x10 + bit_pos);
    a036:	80 91 77 04 	lds	r24, 0x0477	; 0x800477 <__TEXT_REGION_LENGTH__+0x7f0477>
    a03a:	88 73       	andi	r24, 0x38	; 56
C:\Users\dax\AppData\Local\Arduino15\packages\DxCore\hardware\megaavr\1.4.10\cores\dxcore/wiring_digital.c:178
  temp = pinconfig & 0x0C; // INVERT PIN
  if (temp) {
    if (temp == 0x0C) {
      pinncfg ^= 0x80;    // toggle invert - of dubious utility, but I'll accept it.
    } else if (temp == 0x08) {
      pinncfg &= ~(0x80); // clear
    a03c:	88 60       	ori	r24, 0x08	; 8
C:\Users\dax\AppData\Local\Arduino15\packages\DxCore\hardware\megaavr\1.4.10\cores\dxcore/wiring_digital.c:183
    } else {
      pinncfg |= 0x80;    // set
    }
  }
  *(portbase + 0x10 + bit_pos) = pinncfg;
    a03e:	80 93 77 04 	sts	0x0477, r24	; 0x800477 <__TEXT_REGION_LENGTH__+0x7f0477>
C:\Users\dax\AppData\Local\Arduino15\packages\DxCore\hardware\megaavr\1.4.10\cores\dxcore/wiring_digital.c:184
  SREG=oldSREG; // re-enable interrupts
    a042:	9f bf       	out	0x3f, r25	; 63
C:\Users\dax\AppData\Local\Arduino15\packages\DxCore\hardware\megaavr\1.4.10\cores\dxcore/wiring_digital.c:120
  }
  volatile uint8_t *portbase = (volatile uint8_t*) digitalPinToPortStruct(pin);
  uint8_t bit_pos = digitalPinToBitPosition(pin);
  uint8_t setting = pinconfig & 0x03; // grab direction bits
  if (setting) {
    *(portbase + setting) = bit_mask; // DIR
    a044:	10 93 a2 04 	sts	0x04A2, r17	; 0x8004a2 <__TEXT_REGION_LENGTH__+0x7f04a2>
C:\Users\dax\AppData\Local\Arduino15\packages\DxCore\hardware\megaavr\1.4.10\cores\dxcore/wiring_digital.c:129
  if (setting) {
    *(portbase + 4 + setting) = bit_mask;  // OUT
  }
  if (!(pinconfig & 0x3FFC)) return; // RETURN if we're done before we start this mess.
  pinconfig >>= 2;
  uint8_t oldSREG = SREG;
    a048:	9f b7       	in	r25, 0x3f	; 63
C:\Users\dax\AppData\Local\Arduino15\packages\DxCore\hardware\megaavr\1.4.10\cores\dxcore/wiring_digital.c:130
  cli();
    a04a:	f8 94       	cli
C:\Users\dax\AppData\Local\Arduino15\packages\DxCore\hardware\megaavr\1.4.10\cores\dxcore/wiring_digital.c:131
  uint8_t pinncfg = *(portbase + 0x10 + bit_pos);
    a04c:	80 91 b0 04 	lds	r24, 0x04B0	; 0x8004b0 <__TEXT_REGION_LENGTH__+0x7f04b0>
    a050:	88 73       	andi	r24, 0x38	; 56
C:\Users\dax\AppData\Local\Arduino15\packages\DxCore\hardware\megaavr\1.4.10\cores\dxcore/wiring_digital.c:178
  temp = pinconfig & 0x0C; // INVERT PIN
  if (temp) {
    if (temp == 0x0C) {
      pinncfg ^= 0x80;    // toggle invert - of dubious utility, but I'll accept it.
    } else if (temp == 0x08) {
      pinncfg &= ~(0x80); // clear
    a052:	88 60       	ori	r24, 0x08	; 8
C:\Users\dax\AppData\Local\Arduino15\packages\DxCore\hardware\megaavr\1.4.10\cores\dxcore/wiring_digital.c:183
    } else {
      pinncfg |= 0x80;    // set
    }
  }
  *(portbase + 0x10 + bit_pos) = pinncfg;
    a054:	80 93 b0 04 	sts	0x04B0, r24	; 0x8004b0 <__TEXT_REGION_LENGTH__+0x7f04b0>
C:\Users\dax\AppData\Local\Arduino15\packages\DxCore\hardware\megaavr\1.4.10\cores\dxcore/wiring_digital.c:184
  SREG=oldSREG; // re-enable interrupts
    a058:	9f bf       	out	0x3f, r25	; 63
C:\Users\dax\AppData\Local\Arduino15\packages\DxCore\hardware\megaavr\1.4.10\cores\dxcore/wiring_digital.c:120
  }
  volatile uint8_t *portbase = (volatile uint8_t*) digitalPinToPortStruct(pin);
  uint8_t bit_pos = digitalPinToBitPosition(pin);
  uint8_t setting = pinconfig & 0x03; // grab direction bits
  if (setting) {
    *(portbase + setting) = bit_mask; // DIR
    a05a:	72 e0       	ldi	r23, 0x02	; 2
    a05c:	f7 2e       	mov	r15, r23
    a05e:	f0 92 a2 04 	sts	0x04A2, r15	; 0x8004a2 <__TEXT_REGION_LENGTH__+0x7f04a2>
C:\Users\dax\AppData\Local\Arduino15\packages\DxCore\hardware\megaavr\1.4.10\cores\dxcore/wiring_digital.c:129
  if (setting) {
    *(portbase + 4 + setting) = bit_mask;  // OUT
  }
  if (!(pinconfig & 0x3FFC)) return; // RETURN if we're done before we start this mess.
  pinconfig >>= 2;
  uint8_t oldSREG = SREG;
    a062:	9f b7       	in	r25, 0x3f	; 63
C:\Users\dax\AppData\Local\Arduino15\packages\DxCore\hardware\megaavr\1.4.10\cores\dxcore/wiring_digital.c:130
  cli();
    a064:	f8 94       	cli
C:\Users\dax\AppData\Local\Arduino15\packages\DxCore\hardware\megaavr\1.4.10\cores\dxcore/wiring_digital.c:131
  uint8_t pinncfg = *(portbase + 0x10 + bit_pos);
    a066:	80 91 b1 04 	lds	r24, 0x04B1	; 0x8004b1 <__TEXT_REGION_LENGTH__+0x7f04b1>
    a06a:	88 73       	andi	r24, 0x38	; 56
C:\Users\dax\AppData\Local\Arduino15\packages\DxCore\hardware\megaavr\1.4.10\cores\dxcore/wiring_digital.c:178
  temp = pinconfig & 0x0C; // INVERT PIN
  if (temp) {
    if (temp == 0x0C) {
      pinncfg ^= 0x80;    // toggle invert - of dubious utility, but I'll accept it.
    } else if (temp == 0x08) {
      pinncfg &= ~(0x80); // clear
    a06c:	88 60       	ori	r24, 0x08	; 8
C:\Users\dax\AppData\Local\Arduino15\packages\DxCore\hardware\megaavr\1.4.10\cores\dxcore/wiring_digital.c:183
    } else {
      pinncfg |= 0x80;    // set
    }
  }
  *(portbase + 0x10 + bit_pos) = pinncfg;
    a06e:	80 93 b1 04 	sts	0x04B1, r24	; 0x8004b1 <__TEXT_REGION_LENGTH__+0x7f04b1>
C:\Users\dax\AppData\Local\Arduino15\packages\DxCore\hardware\megaavr\1.4.10\cores\dxcore/wiring_digital.c:184
  SREG=oldSREG; // re-enable interrupts
    a072:	9f bf       	out	0x3f, r25	; 63
setup():
C:\Users\dax\Google Drive\GitLocalRepositories\K197Display/K197PushButtons.cpp:369
  pinConfigure(UI_REL, (PIN_DIR_INPUT | PIN_PULLUP_ON | PIN_INVERT_OFF |
                        PIN_INLVL_SCHMITT | PIN_ISC_ENABLE));
  pinConfigure(UI_DB, (PIN_DIR_INPUT | PIN_PULLUP_ON | PIN_INVERT_OFF |
                       PIN_INLVL_SCHMITT | PIN_ISC_ENABLE));

  fifo_rear = (uint8_t)-1; // Initialize register
    a074:	8f ef       	ldi	r24, 0xFF	; 255
    a076:	8f bb       	out	0x1f, r24	; 31
C:\Users\dax\Google Drive\GitLocalRepositories\K197Display/K197PushButtons.cpp:372

  // Route pins for pushbuttons to Logic blocks 0-3
  UI_STO_Event.set_generator(UI_STO);
    a078:	61 e1       	ldi	r22, 0x11	; 17
    a07a:	81 e4       	ldi	r24, 0x41	; 65
    a07c:	96 e6       	ldi	r25, 0x66	; 102
    a07e:	0e 94 a1 31 	call	0x6342	; 0x6342 <Event::set_generator(unsigned char)>
set_user():
C:\Users\dax\AppData\Local\Arduino15\packages\DxCore\hardware\megaavr\1.4.10\libraries\Event\src/Event.cpp:621
    volatile uint8_t *user_register = &EVSYS_ASYNCUSER0 + (volatile uint8_t &)event_user_mask;
  #else
    volatile uint8_t *user_register = &EVSYS_USERCCLLUT0A + (volatile uint8_t &)event_user_mask;
  #endif
    // Connect user to the channel we're working with
    *user_register = channel_number + 1;
    a082:	80 91 41 66 	lds	r24, 0x6641	; 0x806641 <Event2>
    a086:	8f 5f       	subi	r24, 0xFF	; 255
    a088:	80 93 20 02 	sts	0x0220, r24	; 0x800220 <__TEXT_REGION_LENGTH__+0x7f0220>
setup():
C:\Users\dax\Google Drive\GitLocalRepositories\K197Display/K197PushButtons.cpp:374
  UI_STO_Event.set_user(user::ccl0_event_a);
  UI_RCL_Event.set_generator(UI_RCL);
    a08c:	63 e1       	ldi	r22, 0x13	; 19
    a08e:	8d e3       	ldi	r24, 0x3D	; 61
    a090:	96 e6       	ldi	r25, 0x66	; 102
    a092:	0e 94 a1 31 	call	0x6342	; 0x6342 <Event::set_generator(unsigned char)>
set_user():
C:\Users\dax\AppData\Local\Arduino15\packages\DxCore\hardware\megaavr\1.4.10\libraries\Event\src/Event.cpp:621
    a096:	80 91 3d 66 	lds	r24, 0x663D	; 0x80663d <Event3>
    a09a:	8f 5f       	subi	r24, 0xFF	; 255
    a09c:	80 93 22 02 	sts	0x0222, r24	; 0x800222 <__TEXT_REGION_LENGTH__+0x7f0222>
setup():
C:\Users\dax\Google Drive\GitLocalRepositories\K197Display/K197PushButtons.cpp:376
  UI_RCL_Event.set_user(user::ccl1_event_a);
  UI_REL_Event.set_generator(UI_REL);
    a0a0:	64 e1       	ldi	r22, 0x14	; 20
    a0a2:	89 e3       	ldi	r24, 0x39	; 57
    a0a4:	96 e6       	ldi	r25, 0x66	; 102
    a0a6:	0e 94 a1 31 	call	0x6342	; 0x6342 <Event::set_generator(unsigned char)>
set_user():
C:\Users\dax\AppData\Local\Arduino15\packages\DxCore\hardware\megaavr\1.4.10\libraries\Event\src/Event.cpp:621
    a0aa:	80 91 39 66 	lds	r24, 0x6639	; 0x806639 <Event4>
    a0ae:	8f 5f       	subi	r24, 0xFF	; 255
    a0b0:	80 93 24 02 	sts	0x0224, r24	; 0x800224 <__TEXT_REGION_LENGTH__+0x7f0224>
setup():
C:\Users\dax\Google Drive\GitLocalRepositories\K197Display/K197PushButtons.cpp:378
  UI_REL_Event.set_user(user::ccl2_event_a);
  UI_DB_Event.set_generator(UI_DB);
    a0b4:	65 e1       	ldi	r22, 0x15	; 21
    a0b6:	85 e3       	ldi	r24, 0x35	; 53
    a0b8:	96 e6       	ldi	r25, 0x66	; 102
    a0ba:	0e 94 a1 31 	call	0x6342	; 0x6342 <Event::set_generator(unsigned char)>
set_user():
C:\Users\dax\AppData\Local\Arduino15\packages\DxCore\hardware\megaavr\1.4.10\libraries\Event\src/Event.cpp:621
    a0be:	80 91 35 66 	lds	r24, 0x6635	; 0x806635 <Event5>
    a0c2:	8f 5f       	subi	r24, 0xFF	; 255
    a0c4:	80 93 26 02 	sts	0x0226, r24	; 0x800226 <__TEXT_REGION_LENGTH__+0x7f0226>
setup():
C:\Users\dax\Google Drive\GitLocalRepositories\K197Display/K197PushButtons.cpp:382
  UI_DB_Event.set_user(user::ccl3_event_a);

  // Initialize logic block 0
  Logic0.enable = true; // Enable logic block 0
    a0c8:	10 93 28 66 	sts	0x6628, r17	; 0x806628 <Logic0>
C:\Users\dax\Google Drive\GitLocalRepositories\K197Display/K197PushButtons.cpp:383
  Logic0.input0 =
    a0cc:	00 93 29 66 	sts	0x6629, r16	; 0x806629 <Logic0+0x1>
C:\Users\dax\Google Drive\GitLocalRepositories\K197Display/K197PushButtons.cpp:387
      in::event_a; // Connect input 0 to ccl0_event_a (STO pin via UI_STO_Event)
  // Logic0.input1 = in::event_b;  // Connect input 0 to ccl0_event_a (STO pin
  // via UI_STO_Event)
  Logic0.clocksource = clocksource::osc1k; // 1024Hz clock
    a0d0:	e6 e0       	ldi	r30, 0x06	; 6
    a0d2:	de 2e       	mov	r13, r30
    a0d4:	d0 92 32 66 	sts	0x6632, r13	; 0x806632 <Logic0+0xa>
C:\Users\dax\Google Drive\GitLocalRepositories\K197Display/K197PushButtons.cpp:388
  Logic0.filter =
    a0d8:	f0 92 2e 66 	sts	0x662E, r15	; 0x80662e <Logic0+0x6>
C:\Users\dax\Google Drive\GitLocalRepositories\K197Display/K197PushButtons.cpp:390
      filter::filter;  // Debounce (must be stable for 4 clock cycles)
  Logic0.truth = 0x55; // 0x55;
    a0dc:	f5 e5       	ldi	r31, 0x55	; 85
    a0de:	ef 2e       	mov	r14, r31
    a0e0:	e0 92 30 66 	sts	0x6630, r14	; 0x806630 <Logic0+0x8>
C:\Users\dax\Google Drive\GitLocalRepositories\K197Display/K197PushButtons.cpp:391
  Logic0.init();
    a0e4:	88 e2       	ldi	r24, 0x28	; 40
    a0e6:	96 e6       	ldi	r25, 0x66	; 102
    a0e8:	0e 94 ff 2c 	call	0x59fe	; 0x59fe <Logic::init() [clone .constprop.96]>
C:\Users\dax\Google Drive\GitLocalRepositories\K197Display/K197PushButtons.cpp:394

  // Initialize logic block 1
  Logic1.enable = true; // Enable logic block 0
    a0ec:	10 93 1b 66 	sts	0x661B, r17	; 0x80661b <Logic1>
C:\Users\dax\Google Drive\GitLocalRepositories\K197Display/K197PushButtons.cpp:395
  Logic1.input0 =
    a0f0:	00 93 1c 66 	sts	0x661C, r16	; 0x80661c <Logic1+0x1>
C:\Users\dax\Google Drive\GitLocalRepositories\K197Display/K197PushButtons.cpp:397
      in::event_a; // Connect input 0 to ccl1_event_a (RCL pin via UI_RCL_Event)
  Logic1.clocksource = clocksource::osc1k; // 1024Hz clock
    a0f4:	d0 92 25 66 	sts	0x6625, r13	; 0x806625 <Logic1+0xa>
C:\Users\dax\Google Drive\GitLocalRepositories\K197Display/K197PushButtons.cpp:398
  Logic1.filter =
    a0f8:	f0 92 21 66 	sts	0x6621, r15	; 0x806621 <Logic1+0x6>
C:\Users\dax\Google Drive\GitLocalRepositories\K197Display/K197PushButtons.cpp:400
      filter::filter; // Debounce (must be stable for 4 clock cycles)
  Logic1.truth = 0x55;
    a0fc:	e0 92 23 66 	sts	0x6623, r14	; 0x806623 <Logic1+0x8>
C:\Users\dax\Google Drive\GitLocalRepositories\K197Display/K197PushButtons.cpp:401
  Logic1.init();
    a100:	8b e1       	ldi	r24, 0x1B	; 27
    a102:	96 e6       	ldi	r25, 0x66	; 102
    a104:	0e 94 ff 2c 	call	0x59fe	; 0x59fe <Logic::init() [clone .constprop.96]>
C:\Users\dax\Google Drive\GitLocalRepositories\K197Display/K197PushButtons.cpp:404

  // Initialize logic block 2
  Logic2.enable = true; // Enable logic block 0
    a108:	10 93 0e 66 	sts	0x660E, r17	; 0x80660e <Logic2>
C:\Users\dax\Google Drive\GitLocalRepositories\K197Display/K197PushButtons.cpp:405
  Logic2.input0 =
    a10c:	00 93 0f 66 	sts	0x660F, r16	; 0x80660f <Logic2+0x1>
C:\Users\dax\Google Drive\GitLocalRepositories\K197Display/K197PushButtons.cpp:407
      in::event_a; // Connect input 0 to ccl2_event_a (REL pin via UI_REL_Event)
  Logic2.clocksource = clocksource::osc1k; // 1024Hz clock
    a110:	d0 92 18 66 	sts	0x6618, r13	; 0x806618 <Logic2+0xa>
C:\Users\dax\Google Drive\GitLocalRepositories\K197Display/K197PushButtons.cpp:408
  Logic2.filter =
    a114:	f0 92 14 66 	sts	0x6614, r15	; 0x806614 <Logic2+0x6>
C:\Users\dax\Google Drive\GitLocalRepositories\K197Display/K197PushButtons.cpp:410
      filter::filter; // Debounce (must be stable for 4 clock cycles)
  Logic2.truth = 0x55;
    a118:	e0 92 16 66 	sts	0x6616, r14	; 0x806616 <Logic2+0x8>
C:\Users\dax\Google Drive\GitLocalRepositories\K197Display/K197PushButtons.cpp:411
  Logic2.init();
    a11c:	8e e0       	ldi	r24, 0x0E	; 14
    a11e:	96 e6       	ldi	r25, 0x66	; 102
    a120:	0e 94 ff 2c 	call	0x59fe	; 0x59fe <Logic::init() [clone .constprop.96]>
C:\Users\dax\Google Drive\GitLocalRepositories\K197Display/K197PushButtons.cpp:414

  // Initialize logic block 3
  Logic3.enable = true; // Enable logic block 0
    a124:	10 93 01 66 	sts	0x6601, r17	; 0x806601 <Logic3>
C:\Users\dax\Google Drive\GitLocalRepositories\K197Display/K197PushButtons.cpp:415
  Logic3.input0 =
    a128:	00 93 02 66 	sts	0x6602, r16	; 0x806602 <Logic3+0x1>
C:\Users\dax\Google Drive\GitLocalRepositories\K197Display/K197PushButtons.cpp:417
      in::event_a; // Connect input 0 to ccl3_event_a (DB pin via UI_DB_Event)
  Logic3.clocksource = clocksource::osc1k; // 1024Hz clock
    a12c:	d0 92 0b 66 	sts	0x660B, r13	; 0x80660b <Logic3+0xa>
C:\Users\dax\Google Drive\GitLocalRepositories\K197Display/K197PushButtons.cpp:418
  Logic3.filter =
    a130:	f0 92 07 66 	sts	0x6607, r15	; 0x806607 <Logic3+0x6>
C:\Users\dax\Google Drive\GitLocalRepositories\K197Display/K197PushButtons.cpp:420
      filter::filter; // Debounce (must be stable for 4 clock cycles)
  Logic3.truth = 0x55;
    a134:	e0 92 09 66 	sts	0x6609, r14	; 0x806609 <Logic3+0x8>
C:\Users\dax\Google Drive\GitLocalRepositories\K197Display/K197PushButtons.cpp:421
  Logic3.init();
    a138:	81 e0       	ldi	r24, 0x01	; 1
    a13a:	96 e6       	ldi	r25, 0x66	; 102
    a13c:	0e 94 ff 2c 	call	0x59fe	; 0x59fe <Logic::init() [clone .constprop.96]>
start():
C:\Users\dax\AppData\Local\Arduino15\packages\DxCore\hardware\megaavr\1.4.10\libraries\Event\src/Event.cpp:1148


void Event::start(bool state) {
  if (state) {
    // Write event generator setting to EVSYS_CHANNELn register
    channel_address = generator_type;
    a140:	e0 91 42 66 	lds	r30, 0x6642	; 0x806642 <Event2+0x1>
    a144:	f0 91 43 66 	lds	r31, 0x6643	; 0x806643 <Event2+0x2>
    a148:	80 91 44 66 	lds	r24, 0x6644	; 0x806644 <Event2+0x3>
    a14c:	80 83       	st	Z, r24
    a14e:	e0 91 3e 66 	lds	r30, 0x663E	; 0x80663e <Event3+0x1>
    a152:	f0 91 3f 66 	lds	r31, 0x663F	; 0x80663f <Event3+0x2>
    a156:	80 91 40 66 	lds	r24, 0x6640	; 0x806640 <Event3+0x3>
    a15a:	80 83       	st	Z, r24
    a15c:	e0 91 3a 66 	lds	r30, 0x663A	; 0x80663a <Event4+0x1>
    a160:	f0 91 3b 66 	lds	r31, 0x663B	; 0x80663b <Event4+0x2>
    a164:	80 91 3c 66 	lds	r24, 0x663C	; 0x80663c <Event4+0x3>
    a168:	80 83       	st	Z, r24
    a16a:	e0 91 36 66 	lds	r30, 0x6636	; 0x806636 <Event5+0x1>
    a16e:	f0 91 37 66 	lds	r31, 0x6637	; 0x806637 <Event5+0x2>
    a172:	80 91 38 66 	lds	r24, 0x6638	; 0x806638 <Event5+0x3>
    a176:	80 83       	st	Z, r24
C:\Users\dax\AppData\Local\Arduino15\packages\DxCore\hardware\megaavr\1.4.10\libraries\Logic\src/Logic.cpp:391
    block(blocks[block_number]) {
}

// static
void Logic::start(bool state) {
  CCL.CTRLA = (state ? CCL_ENABLE_bm : 0);
    a178:	10 93 c0 01 	sts	0x01C0, r17	; 0x8001c0 <__TEXT_REGION_LENGTH__+0x7f01c0>
setup():
C:\Users\dax\Google Drive\GitLocalRepositories\K197Display/K197PushButtons.cpp:437
  UI_DB_Event.start();
  Logic::start();

  // attach the CCL interrupts (note: this should be replaced with direct access
  // to CCL.INTCTRL0 when dxCore Logic library supports this method
  Logic0.attachInterrupt(CCL_interrupt_handler, CHANGE);
    a17c:	88 e2       	ldi	r24, 0x28	; 40
    a17e:	96 e6       	ldi	r25, 0x66	; 102
    a180:	0e 94 8d 2c 	call	0x591a	; 0x591a <Logic::attachInterrupt(void (*)(), unsigned char) [clone .constprop.100]>
C:\Users\dax\Google Drive\GitLocalRepositories\K197Display/K197PushButtons.cpp:438
  Logic1.attachInterrupt(CCL_interrupt_handler, CHANGE);
    a184:	8b e1       	ldi	r24, 0x1B	; 27
    a186:	96 e6       	ldi	r25, 0x66	; 102
    a188:	0e 94 8d 2c 	call	0x591a	; 0x591a <Logic::attachInterrupt(void (*)(), unsigned char) [clone .constprop.100]>
C:\Users\dax\Google Drive\GitLocalRepositories\K197Display/K197PushButtons.cpp:439
  Logic2.attachInterrupt(CCL_interrupt_handler, CHANGE);
    a18c:	8e e0       	ldi	r24, 0x0E	; 14
    a18e:	96 e6       	ldi	r25, 0x66	; 102
    a190:	0e 94 8d 2c 	call	0x591a	; 0x591a <Logic::attachInterrupt(void (*)(), unsigned char) [clone .constprop.100]>
C:\Users\dax\Google Drive\GitLocalRepositories\K197Display/K197PushButtons.cpp:440
  Logic3.attachInterrupt(CCL_interrupt_handler, CHANGE);
    a194:	81 e0       	ldi	r24, 0x01	; 1
    a196:	96 e6       	ldi	r25, 0x66	; 102
    a198:	0e 94 8d 2c 	call	0x591a	; 0x591a <Logic::attachInterrupt(void (*)(), unsigned char) [clone .constprop.100]>
C:\Users\dax\Google Drive\GitLocalRepositories\K197Display/K197PushButtons.cpp:448
  // will be released... DebugOut.print(F("CCL.LUT0CTRLA="));
  //DebugOut.println(CCL.LUT0CTRLA, HEX);

  // Initialize buttons initial state. Needed to handle buttons already pressed
  // at startup or reset (e.g. watchdog reset).
  unsigned long now = micros();
    a19c:	0e 94 b1 30 	call	0x6162	; 0x6162 <micros>
    a1a0:	6b 01       	movw	r12, r22
    a1a2:	7c 01       	movw	r14, r24
C:\Users\dax\Google Drive\GitLocalRepositories\K197Display/K197PushButtons.cpp:449
  cli();
    a1a4:	f8 94       	cli
C:\Users\dax\Google Drive\GitLocalRepositories\K197Display/K197PushButtons.cpp:450
  fifo_push((UI_STO_VPORT.IN & (UI_STO_bm | UI_RCL_bm)) |
    a1a6:	9e b1       	in	r25, 0x0e	; 14
C:\Users\dax\Google Drive\GitLocalRepositories\K197Display/K197PushButtons.cpp:451
            (UI_REL_VPORT.IN & (UI_REL_bm | UI_DB_bm)));
    a1a8:	86 b3       	in	r24, 0x16	; 22
C:\Users\dax\Google Drive\GitLocalRepositories\K197Display/K197PushButtons.cpp:450

  // Initialize buttons initial state. Needed to handle buttons already pressed
  // at startup or reset (e.g. watchdog reset).
  unsigned long now = micros();
  cli();
  fifo_push((UI_STO_VPORT.IN & (UI_STO_bm | UI_RCL_bm)) |
    a1aa:	90 7a       	andi	r25, 0xA0	; 160
C:\Users\dax\Google Drive\GitLocalRepositories\K197Display/K197PushButtons.cpp:451
            (UI_REL_VPORT.IN & (UI_REL_bm | UI_DB_bm)));
    a1ac:	83 70       	andi	r24, 0x03	; 3
C:\Users\dax\Google Drive\GitLocalRepositories\K197Display/K197PushButtons.cpp:450

  // Initialize buttons initial state. Needed to handle buttons already pressed
  // at startup or reset (e.g. watchdog reset).
  unsigned long now = micros();
  cli();
  fifo_push((UI_STO_VPORT.IN & (UI_STO_bm | UI_RCL_bm)) |
    a1ae:	89 2b       	or	r24, r25
    a1b0:	0e 94 52 3f 	call	0x7ea4	; 0x7ea4 <fifo_push(unsigned char)>
C:\Users\dax\Google Drive\GitLocalRepositories\K197Display/K197PushButtons.cpp:452
            (UI_REL_VPORT.IN & (UI_REL_bm | UI_DB_bm)));
  byte x = fifo_pull();
    a1b4:	0e 94 2e 3f 	call	0x7e5c	; 0x7e5c <fifo_pull()>
C:\Users\dax\Google Drive\GitLocalRepositories\K197Display/K197PushButtons.cpp:453
  sei();
    a1b8:	78 94       	sei
getButtonState():
C:\Users\dax\Google Drive\GitLocalRepositories\K197Display/K197PushButtons.cpp:310
    @details the current implemntation assumes 0 means pressed and !=0 means not
   pressed
    @return BUTTON_PRESSED_STATE or BUTTON_IDLE_STATE
*/
static inline uint8_t getButtonState(byte b) {
  return b == 0 ? BUTTON_PRESSED_STATE : BUTTON_IDLE_STATE;
    a1ba:	85 fb       	bst	r24, 5
    a1bc:	99 27       	eor	r25, r25
    a1be:	90 f9       	bld	r25, 0
initButton():
C:\Users\dax\Google Drive\GitLocalRepositories\K197Display/K197PushButtons.cpp:321
    @param btnow current state of the button (BUTTON_PRESSED_STATE or
   BUTTON_IDLE_STATE)
    @param now current value of micros()
*/
static void initButton(uint8_t i, uint8_t btnow, unsigned long now) {
  buttonState[i] = btnow;
    a1c0:	90 93 33 60 	sts	0x6033, r25	; 0x806033 <buttonState>
C:\Users\dax\Google Drive\GitLocalRepositories\K197Display/K197PushButtons.cpp:322
  startPressed[i] = now;
    a1c4:	c0 92 25 64 	sts	0x6425, r12	; 0x806425 <startPressed>
    a1c8:	d0 92 26 64 	sts	0x6426, r13	; 0x806426 <startPressed+0x1>
    a1cc:	e0 92 27 64 	sts	0x6427, r14	; 0x806427 <startPressed+0x2>
    a1d0:	f0 92 28 64 	sts	0x6428, r15	; 0x806428 <startPressed+0x3>
C:\Users\dax\Google Drive\GitLocalRepositories\K197Display/K197PushButtons.cpp:323
  lastHold[i] = now;
    a1d4:	c0 92 05 64 	sts	0x6405, r12	; 0x806405 <lastHold>
    a1d8:	d0 92 06 64 	sts	0x6406, r13	; 0x806406 <lastHold+0x1>
    a1dc:	e0 92 07 64 	sts	0x6407, r14	; 0x806407 <lastHold+0x2>
    a1e0:	f0 92 08 64 	sts	0x6408, r15	; 0x806408 <lastHold+0x3>
C:\Users\dax\Google Drive\GitLocalRepositories\K197Display/K197PushButtons.cpp:324
  lastReleased[i] = now;
    a1e4:	c0 92 15 64 	sts	0x6415, r12	; 0x806415 <lastReleased>
    a1e8:	d0 92 16 64 	sts	0x6416, r13	; 0x806416 <lastReleased+0x1>
    a1ec:	e0 92 17 64 	sts	0x6417, r14	; 0x806417 <lastReleased+0x2>
    a1f0:	f0 92 18 64 	sts	0x6418, r15	; 0x806418 <lastReleased+0x3>
getButtonState():
C:\Users\dax\Google Drive\GitLocalRepositories\K197Display/K197PushButtons.cpp:310
    @details the current implemntation assumes 0 means pressed and !=0 means not
   pressed
    @return BUTTON_PRESSED_STATE or BUTTON_IDLE_STATE
*/
static inline uint8_t getButtonState(byte b) {
  return b == 0 ? BUTTON_PRESSED_STATE : BUTTON_IDLE_STATE;
    a1f4:	98 2f       	mov	r25, r24
    a1f6:	99 1f       	adc	r25, r25
    a1f8:	99 27       	eor	r25, r25
    a1fa:	99 1f       	adc	r25, r25
initButton():
C:\Users\dax\Google Drive\GitLocalRepositories\K197Display/K197PushButtons.cpp:321
    @param btnow current state of the button (BUTTON_PRESSED_STATE or
   BUTTON_IDLE_STATE)
    @param now current value of micros()
*/
static void initButton(uint8_t i, uint8_t btnow, unsigned long now) {
  buttonState[i] = btnow;
    a1fc:	90 93 34 60 	sts	0x6034, r25	; 0x806034 <buttonState+0x1>
C:\Users\dax\Google Drive\GitLocalRepositories\K197Display/K197PushButtons.cpp:322
  startPressed[i] = now;
    a200:	c0 92 29 64 	sts	0x6429, r12	; 0x806429 <startPressed+0x4>
    a204:	d0 92 2a 64 	sts	0x642A, r13	; 0x80642a <startPressed+0x5>
    a208:	e0 92 2b 64 	sts	0x642B, r14	; 0x80642b <startPressed+0x6>
    a20c:	f0 92 2c 64 	sts	0x642C, r15	; 0x80642c <startPressed+0x7>
C:\Users\dax\Google Drive\GitLocalRepositories\K197Display/K197PushButtons.cpp:323
  lastHold[i] = now;
    a210:	c0 92 09 64 	sts	0x6409, r12	; 0x806409 <lastHold+0x4>
    a214:	d0 92 0a 64 	sts	0x640A, r13	; 0x80640a <lastHold+0x5>
    a218:	e0 92 0b 64 	sts	0x640B, r14	; 0x80640b <lastHold+0x6>
    a21c:	f0 92 0c 64 	sts	0x640C, r15	; 0x80640c <lastHold+0x7>
C:\Users\dax\Google Drive\GitLocalRepositories\K197Display/K197PushButtons.cpp:324
  lastReleased[i] = now;
    a220:	c0 92 19 64 	sts	0x6419, r12	; 0x806419 <lastReleased+0x4>
    a224:	d0 92 1a 64 	sts	0x641A, r13	; 0x80641a <lastReleased+0x5>
    a228:	e0 92 1b 64 	sts	0x641B, r14	; 0x80641b <lastReleased+0x6>
    a22c:	f0 92 1c 64 	sts	0x641C, r15	; 0x80641c <lastReleased+0x7>
setup():
C:\Users\dax\Google Drive\GitLocalRepositories\K197Display/K197PushButtons.cpp:456
            (UI_REL_VPORT.IN & (UI_REL_bm | UI_DB_bm)));
  byte x = fifo_pull();
  sei();
  initButton(0, getButtonState(x & UI_STO_bm), now);
  initButton(1, getButtonState(x & UI_RCL_bm), now);
  initButton(2, getButtonState(x & UI_REL_bm), now);
    a230:	98 2f       	mov	r25, r24
    a232:	91 70       	andi	r25, 0x01	; 1
initButton():
C:\Users\dax\Google Drive\GitLocalRepositories\K197Display/K197PushButtons.cpp:321
    @param btnow current state of the button (BUTTON_PRESSED_STATE or
   BUTTON_IDLE_STATE)
    @param now current value of micros()
*/
static void initButton(uint8_t i, uint8_t btnow, unsigned long now) {
  buttonState[i] = btnow;
    a234:	90 93 35 60 	sts	0x6035, r25	; 0x806035 <buttonState+0x2>
C:\Users\dax\Google Drive\GitLocalRepositories\K197Display/K197PushButtons.cpp:322
  startPressed[i] = now;
    a238:	c0 92 2d 64 	sts	0x642D, r12	; 0x80642d <startPressed+0x8>
    a23c:	d0 92 2e 64 	sts	0x642E, r13	; 0x80642e <startPressed+0x9>
    a240:	e0 92 2f 64 	sts	0x642F, r14	; 0x80642f <startPressed+0xa>
    a244:	f0 92 30 64 	sts	0x6430, r15	; 0x806430 <startPressed+0xb>
C:\Users\dax\Google Drive\GitLocalRepositories\K197Display/K197PushButtons.cpp:323
  lastHold[i] = now;
    a248:	c0 92 0d 64 	sts	0x640D, r12	; 0x80640d <lastHold+0x8>
    a24c:	d0 92 0e 64 	sts	0x640E, r13	; 0x80640e <lastHold+0x9>
    a250:	e0 92 0f 64 	sts	0x640F, r14	; 0x80640f <lastHold+0xa>
    a254:	f0 92 10 64 	sts	0x6410, r15	; 0x806410 <lastHold+0xb>
C:\Users\dax\Google Drive\GitLocalRepositories\K197Display/K197PushButtons.cpp:324
  lastReleased[i] = now;
    a258:	c0 92 1d 64 	sts	0x641D, r12	; 0x80641d <lastReleased+0x8>
    a25c:	d0 92 1e 64 	sts	0x641E, r13	; 0x80641e <lastReleased+0x9>
    a260:	e0 92 1f 64 	sts	0x641F, r14	; 0x80641f <lastReleased+0xa>
    a264:	f0 92 20 64 	sts	0x6420, r15	; 0x806420 <lastReleased+0xb>
getButtonState():
C:\Users\dax\Google Drive\GitLocalRepositories\K197Display/K197PushButtons.cpp:310
    @details the current implemntation assumes 0 means pressed and !=0 means not
   pressed
    @return BUTTON_PRESSED_STATE or BUTTON_IDLE_STATE
*/
static inline uint8_t getButtonState(byte b) {
  return b == 0 ? BUTTON_PRESSED_STATE : BUTTON_IDLE_STATE;
    a268:	86 95       	lsr	r24
    a26a:	81 70       	andi	r24, 0x01	; 1
initButton():
C:\Users\dax\Google Drive\GitLocalRepositories\K197Display/K197PushButtons.cpp:321
    @param btnow current state of the button (BUTTON_PRESSED_STATE or
   BUTTON_IDLE_STATE)
    @param now current value of micros()
*/
static void initButton(uint8_t i, uint8_t btnow, unsigned long now) {
  buttonState[i] = btnow;
    a26c:	80 93 36 60 	sts	0x6036, r24	; 0x806036 <buttonState+0x3>
C:\Users\dax\Google Drive\GitLocalRepositories\K197Display/K197PushButtons.cpp:322
  startPressed[i] = now;
    a270:	c0 92 31 64 	sts	0x6431, r12	; 0x806431 <startPressed+0xc>
    a274:	d0 92 32 64 	sts	0x6432, r13	; 0x806432 <startPressed+0xd>
    a278:	e0 92 33 64 	sts	0x6433, r14	; 0x806433 <startPressed+0xe>
    a27c:	f0 92 34 64 	sts	0x6434, r15	; 0x806434 <startPressed+0xf>
C:\Users\dax\Google Drive\GitLocalRepositories\K197Display/K197PushButtons.cpp:323
  lastHold[i] = now;
    a280:	c0 92 11 64 	sts	0x6411, r12	; 0x806411 <lastHold+0xc>
    a284:	d0 92 12 64 	sts	0x6412, r13	; 0x806412 <lastHold+0xd>
    a288:	e0 92 13 64 	sts	0x6413, r14	; 0x806413 <lastHold+0xe>
    a28c:	f0 92 14 64 	sts	0x6414, r15	; 0x806414 <lastHold+0xf>
C:\Users\dax\Google Drive\GitLocalRepositories\K197Display/K197PushButtons.cpp:324
  lastReleased[i] = now;
    a290:	c0 92 21 64 	sts	0x6421, r12	; 0x806421 <lastReleased+0xc>
    a294:	d0 92 22 64 	sts	0x6422, r13	; 0x806422 <lastReleased+0xd>
    a298:	e0 92 23 64 	sts	0x6423, r14	; 0x806423 <lastReleased+0xe>
    a29c:	f0 92 24 64 	sts	0x6424, r15	; 0x806424 <lastReleased+0xf>
setup():
C:\Users\dax\Google Drive\GitLocalRepositories\K197Display/K197PushButtons.cpp:458
  sei();
  initButton(0, getButtonState(x & UI_STO_bm), now);
  initButton(1, getButtonState(x & UI_RCL_bm), now);
  initButton(2, getButtonState(x & UI_REL_bm), now);
  initButton(3, getButtonState(x & UI_DB_bm), now);
  cli();
    a2a0:	f8 94       	cli
C:\Users\dax\Google Drive\GitLocalRepositories\K197Display/K197PushButtons.cpp:460
  fifo_push(
      (UI_STO_VPORT.IN & (UI_STO_bm | UI_RCL_bm)) |
    a2a2:	9e b1       	in	r25, 0x0e	; 14
C:\Users\dax\Google Drive\GitLocalRepositories\K197Display/K197PushButtons.cpp:461
      (UI_REL_VPORT.IN &
    a2a4:	86 b3       	in	r24, 0x16	; 22
C:\Users\dax\Google Drive\GitLocalRepositories\K197Display/K197PushButtons.cpp:460
  initButton(1, getButtonState(x & UI_RCL_bm), now);
  initButton(2, getButtonState(x & UI_REL_bm), now);
  initButton(3, getButtonState(x & UI_DB_bm), now);
  cli();
  fifo_push(
      (UI_STO_VPORT.IN & (UI_STO_bm | UI_RCL_bm)) |
    a2a6:	90 7a       	andi	r25, 0xA0	; 160
C:\Users\dax\Google Drive\GitLocalRepositories\K197Display/K197PushButtons.cpp:461
      (UI_REL_VPORT.IN &
    a2a8:	83 70       	andi	r24, 0x03	; 3
C:\Users\dax\Google Drive\GitLocalRepositories\K197Display/K197PushButtons.cpp:459
  initButton(0, getButtonState(x & UI_STO_bm), now);
  initButton(1, getButtonState(x & UI_RCL_bm), now);
  initButton(2, getButtonState(x & UI_REL_bm), now);
  initButton(3, getButtonState(x & UI_DB_bm), now);
  cli();
  fifo_push(
    a2aa:	89 2b       	or	r24, r25
    a2ac:	0e 94 52 3f 	call	0x7ea4	; 0x7ea4 <fifo_push(unsigned char)>
C:\Users\dax\Google Drive\GitLocalRepositories\K197Display/K197PushButtons.cpp:463
      (UI_STO_VPORT.IN & (UI_STO_bm | UI_RCL_bm)) |
      (UI_REL_VPORT.IN &
       (UI_REL_bm | UI_DB_bm))); // Make sure we do not lose any state change
  sei();
    a2b0:	78 94       	sei
takeOverTCA0():
C:\Users\dax\AppData\Local\Arduino15\packages\DxCore\hardware\megaavr\1.4.10\cores\dxcore/wiring_analog.c:681

void takeOverTCA0() {
  #if defined(MILLIS_USE_TIMERA0)
    stop_millis();
  #endif
  TCA0.SPLIT.CTRLA = 0;          // Stop TCA0
    a2b2:	10 92 00 0a 	sts	0x0A00, r1	; 0x800a00 <__TEXT_REGION_LENGTH__+0x7f0a00>
C:\Users\dax\AppData\Local\Arduino15\packages\DxCore\hardware\megaavr\1.4.10\cores\dxcore/wiring_analog.c:682
  PeripheralControl &= ~TIMERA0; // Mark timer as user controlled
    a2b6:	80 91 00 60 	lds	r24, 0x6000	; 0x806000 <__DATA_REGION_ORIGIN__>
    a2ba:	8f 7e       	andi	r24, 0xEF	; 239
    a2bc:	80 93 00 60 	sts	0x6000, r24	; 0x806000 <__DATA_REGION_ORIGIN__>
C:\Users\dax\AppData\Local\Arduino15\packages\DxCore\hardware\megaavr\1.4.10\cores\dxcore/wiring_analog.c:683
  TCA0.SPLIT.CTRLESET = TCA_SPLIT_CMD_RESET_gc | 0x03; // Reset TCA0
    a2c0:	8f e0       	ldi	r24, 0x0F	; 15
    a2c2:	80 93 05 0a 	sts	0x0A05, r24	; 0x800a05 <__TEXT_REGION_LENGTH__+0x7f0a05>
setupClicktimer():
C:\Users\dax\Google Drive\GitLocalRepositories\K197Display/K197PushButtons.cpp:596
*/
void k197ButtonCluster::setupClicktimer() {
  // Tave over and reset TCAx
  takeOverTCA(); // calls the appropriate dxCore function - force the core to
                 // stop using the timer and reset to the startup configuration
  AVR_TCA_PORT.SINGLE.CTRLA = 0x00; // Make sure the timer is disabled
    a2c6:	10 92 00 0a 	sts	0x0A00, r1	; 0x800a00 <__TEXT_REGION_LENGTH__+0x7f0a00>
C:\Users\dax\Google Drive\GitLocalRepositories\K197Display/K197PushButtons.cpp:597
  AVR_TCA_PORT.SINGLE.CTRLESET =
    a2ca:	80 93 05 0a 	sts	0x0A05, r24	; 0x800a05 <__TEXT_REGION_LENGTH__+0x7f0a05>
C:\Users\dax\Google Drive\GitLocalRepositories\K197Display/K197PushButtons.cpp:600
      TCA_SINGLE_CMD_RESET_gc |
      0x03; // Set CMD to RESET to do a hard reset of the timer
  AVR_TCA_PORT.SINGLE.CTRLD = 0x00;   // Make sure we are in single mode
    a2ce:	10 92 03 0a 	sts	0x0A03, r1	; 0x800a03 <__TEXT_REGION_LENGTH__+0x7f0a03>
C:\Users\dax\Google Drive\GitLocalRepositories\K197Display/K197PushButtons.cpp:601
  AVR_TCA_PORT.SINGLE.INTCTRL = 0x00; // Disable all interrupts
    a2d2:	10 92 0a 0a 	sts	0x0A0A, r1	; 0x800a0a <__TEXT_REGION_LENGTH__+0x7f0a0a>
C:\Users\dax\Google Drive\GitLocalRepositories\K197Display/K197PushButtons.cpp:602
  AVR_TCA_PORT.SINGLE.INTFLAGS =
    a2d6:	81 e1       	ldi	r24, 0x11	; 17
    a2d8:	80 93 0b 0a 	sts	0x0A0B, r24	; 0x800a0b <__TEXT_REGION_LENGTH__+0x7f0a0b>
setCallback():
C:\Users\dax\Google Drive\GitLocalRepositories\K197Display/K197PushButtons.cpp:63

    @param clusterCallBack the function (of type
   k197ButtonCluster:buttonCallBack) that will be called to handle button events
*/
void k197ButtonCluster::setCallback(buttonCallBack clusterCallBack) {
  callBack = clusterCallBack;
    a2dc:	83 e6       	ldi	r24, 0x63	; 99
    a2de:	96 e4       	ldi	r25, 0x46	; 70
    a2e0:	80 93 a1 62 	sts	0x62A1, r24	; 0x8062a1 <callBack>
    a2e4:	90 93 a2 62 	sts	0x62A2, r25	; 0x8062a2 <callBack+0x1>
setup():
C:\Users\dax\Google Drive\GitLocalRepositories\K197Display/K197Display.ino:317
  pushbuttons.setup();
  pushbuttons.setCallback(myButtonCallback);

  // Handle REL and DB if they were already pushed at startup
  if (pushbuttons.isPressed(K197key_DB))
    a2e8:	85 e1       	ldi	r24, 0x15	; 21
    a2ea:	90 e0       	ldi	r25, 0x00	; 0
    a2ec:	0e 94 3f 2c 	call	0x587e	; 0x587e <k197ButtonCluster::isPressed(K197UIeventsource) [clone .constprop.152]>
    a2f0:	88 23       	and	r24, r24
    a2f2:	29 f0       	breq	.+10     	; 0xa2fe <main+0x3c8>
_pinConfigure():
C:\Users\dax\AppData\Local\Arduino15\packages\DxCore\hardware\megaavr\1.4.10\cores\dxcore/wiring_digital.c:120
  }
  volatile uint8_t *portbase = (volatile uint8_t*) digitalPinToPortStruct(pin);
  uint8_t bit_pos = digitalPinToBitPosition(pin);
  uint8_t setting = pinconfig & 0x03; // grab direction bits
  if (setting) {
    *(portbase + setting) = bit_mask; // DIR
    a2f4:	80 e1       	ldi	r24, 0x10	; 16
    a2f6:	80 93 61 04 	sts	0x0461, r24	; 0x800461 <__TEXT_REGION_LENGTH__+0x7f0461>
C:\Users\dax\AppData\Local\Arduino15\packages\DxCore\hardware\megaavr\1.4.10\cores\dxcore/wiring_digital.c:125
  }
  pinconfig >>= 2;
  setting = pinconfig & 0x03; // as above, only for output
  if (setting) {
    *(portbase + 4 + setting) = bit_mask;  // OUT
    a2fa:	80 93 65 04 	sts	0x0465, r24	; 0x800465 <__TEXT_REGION_LENGTH__+0x7f0465>
setup():
C:\Users\dax\Google Drive\GitLocalRepositories\K197Display/K197Display.ino:319
    pinConfigure(MB_DB, PIN_DIR_OUTPUT | PIN_OUT_HIGH);
  if (pushbuttons.isPressed(K197key_REL))
    a2fe:	84 e1       	ldi	r24, 0x14	; 20
    a300:	90 e0       	ldi	r25, 0x00	; 0
    a302:	0e 94 3f 2c 	call	0x587e	; 0x587e <k197ButtonCluster::isPressed(K197UIeventsource) [clone .constprop.152]>
    a306:	88 23       	and	r24, r24
    a308:	29 f0       	breq	.+10     	; 0xa314 <main+0x3de>
_pinConfigure():
C:\Users\dax\AppData\Local\Arduino15\packages\DxCore\hardware\megaavr\1.4.10\cores\dxcore/wiring_digital.c:120
  }
  volatile uint8_t *portbase = (volatile uint8_t*) digitalPinToPortStruct(pin);
  uint8_t bit_pos = digitalPinToBitPosition(pin);
  uint8_t setting = pinconfig & 0x03; // grab direction bits
  if (setting) {
    *(portbase + setting) = bit_mask; // DIR
    a30a:	88 e0       	ldi	r24, 0x08	; 8
    a30c:	80 93 61 04 	sts	0x0461, r24	; 0x800461 <__TEXT_REGION_LENGTH__+0x7f0461>
C:\Users\dax\AppData\Local\Arduino15\packages\DxCore\hardware\megaavr\1.4.10\cores\dxcore/wiring_digital.c:125
  }
  pinconfig >>= 2;
  setting = pinconfig & 0x03; // as above, only for output
  if (setting) {
    *(portbase + 4 + setting) = bit_mask;  // OUT
    a310:	80 93 65 04 	sts	0x0465, r24	; 0x800465 <__TEXT_REGION_LENGTH__+0x7f0465>
_ZN9debugUtil5beginEbb():
C:\Users\dax\Google Drive\GitLocalRepositories\K197Display/debugUtil.h:81

     @param serial enable Serial output if true, disable if false
     @param oled enable oled output (via u8g2log) if true, disable if false
  */
  void begin(bool serial = false, bool oled = false) {
    use_serial = serial;
    a314:	10 92 49 66 	sts	0x6649, r1	; 0x806649 <DebugOut+0x4>
C:\Users\dax\Google Drive\GitLocalRepositories\K197Display/debugUtil.h:82
    use_oled = oled;
    a318:	10 92 4a 66 	sts	0x664A, r1	; 0x80664a <DebugOut+0x5>
begin():
C:\Users\dax\Google Drive\GitLocalRepositories\K197Display/dxUtil.cpp:39
   called again if the analog reference is set elsewhere After calling this
   function, some time is needed for the reference to stabilize before any ADC
   reading is reliable See the microcontroller data sheet for details
*/
void dxUtilClass::begin() {
  if (firstBegin) {
    a31c:	80 91 3a 60 	lds	r24, 0x603A	; 0x80603a <dxUtil+0x3>
    a320:	88 23       	and	r24, r24
    a322:	29 f0       	breq	.+10     	; 0xa32e <main+0x3f8>
C:\Users\dax\Google Drive\GitLocalRepositories\K197Display/dxUtil.cpp:40
    reset_flags = GPR.GPR0; // Optiboot stashes the reset flags here before
    a324:	8c b3       	in	r24, 0x1c	; 28
    a326:	80 93 39 60 	sts	0x6039, r24	; 0x806039 <dxUtil+0x2>
C:\Users\dax\Google Drive\GitLocalRepositories\K197Display/dxUtil.cpp:42
                            // clearing them to honor entry conditions
    firstBegin = false;
    a32a:	10 92 3a 60 	sts	0x603A, r1	; 0x80603a <dxUtil+0x3>
analogReference():
C:\Users\dax\AppData\Local\Arduino15\packages\DxCore\hardware\megaavr\1.4.10\cores\dxcore/wiring_analog.c:124


void analogReference(uint8_t mode) {
  check_valid_analog_ref(mode);
  if (mode < 7 && mode !=4) {
    VREF.ADC0REF = (VREF.ADC0REF & ~(VREF_REFSEL_gm))|(mode);
    a32e:	80 91 b0 00 	lds	r24, 0x00B0	; 0x8000b0 <__TEXT_REGION_LENGTH__+0x7f00b0>
    a332:	88 7f       	andi	r24, 0xF8	; 248
    a334:	81 60       	ori	r24, 0x01	; 1
    a336:	80 93 b0 00 	sts	0x00B0, r24	; 0x8000b0 <__TEXT_REGION_LENGTH__+0x7f00b0>
analogReadResolution():
C:\Users\dax\AppData\Local\Arduino15\packages\DxCore\hardware\megaavr\1.4.10\cores\dxcore/wiring_analog.c:336
    if (res !=10 && res != 12) {
      badArg("analogReadResolution called with invalid argument - valid options are 10 or 12.");
    }
  }
  if (res == 12) {
    ADC0.CTRLA = (ADC0.CTRLA & (~ADC_RESSEL_gm)) | ADC_RESSEL_12BIT_gc;
    a33a:	80 91 00 06 	lds	r24, 0x0600	; 0x800600 <__TEXT_REGION_LENGTH__+0x7f0600>
    a33e:	83 7f       	andi	r24, 0xF3	; 243
    a340:	80 93 00 06 	sts	0x0600, r24	; 0x800600 <__TEXT_REGION_LENGTH__+0x7f0600>
_pinConfigure():
C:\Users\dax\AppData\Local\Arduino15\packages\DxCore\hardware\megaavr\1.4.10\cores\dxcore/wiring_digital.c:120
  }
  volatile uint8_t *portbase = (volatile uint8_t*) digitalPinToPortStruct(pin);
  uint8_t bit_pos = digitalPinToBitPosition(pin);
  uint8_t setting = pinconfig & 0x03; // grab direction bits
  if (setting) {
    *(portbase + setting) = bit_mask; // DIR
    a344:	82 e0       	ldi	r24, 0x02	; 2
    a346:	80 93 02 04 	sts	0x0402, r24	; 0x800402 <__TEXT_REGION_LENGTH__+0x7f0402>
C:\Users\dax\AppData\Local\Arduino15\packages\DxCore\hardware\megaavr\1.4.10\cores\dxcore/wiring_digital.c:129
  if (setting) {
    *(portbase + 4 + setting) = bit_mask;  // OUT
  }
  if (!(pinconfig & 0x3FFC)) return; // RETURN if we're done before we start this mess.
  pinconfig >>= 2;
  uint8_t oldSREG = SREG;
    a34a:	9f b7       	in	r25, 0x3f	; 63
C:\Users\dax\AppData\Local\Arduino15\packages\DxCore\hardware\megaavr\1.4.10\cores\dxcore/wiring_digital.c:130
  cli();
    a34c:	f8 94       	cli
C:\Users\dax\AppData\Local\Arduino15\packages\DxCore\hardware\megaavr\1.4.10\cores\dxcore/wiring_digital.c:131
  uint8_t pinncfg = *(portbase + 0x10 + bit_pos);
    a34e:	80 91 11 04 	lds	r24, 0x0411	; 0x800411 <__TEXT_REGION_LENGTH__+0x7f0411>
C:\Users\dax\AppData\Local\Arduino15\packages\DxCore\hardware\megaavr\1.4.10\cores\dxcore/wiring_digital.c:140
  uint8_t temp = pinconfig & 0x30; // PULLUP
  if (temp) {
    if (temp == 0x30) {
      pinncfg ^= 0x08;    // toggle pullup - of dubious utility
    } else if (temp == 0x20) {
      pinncfg &= ~(0x08); // clear
    a352:	80 7f       	andi	r24, 0xF0	; 240
C:\Users\dax\AppData\Local\Arduino15\packages\DxCore\hardware\megaavr\1.4.10\cores\dxcore/wiring_digital.c:183
      pinncfg &= ~(0x80); // clear
    } else {
      pinncfg |= 0x80;    // set
    }
  }
  *(portbase + 0x10 + bit_pos) = pinncfg;
    a354:	80 93 11 04 	sts	0x0411, r24	; 0x800411 <__TEXT_REGION_LENGTH__+0x7f0411>
C:\Users\dax\AppData\Local\Arduino15\packages\DxCore\hardware\megaavr\1.4.10\cores\dxcore/wiring_digital.c:184
  SREG=oldSREG; // re-enable interrupts
    a358:	9f bf       	out	0x3f, r25	; 63
setup():
C:\Users\dax\Google Drive\GitLocalRepositories\K197Display/BTmanager.cpp:45
*/
void BTmanager::setup() {
#ifdef BT_POWER
  // Check BT_POWER pin to understand if BT Power is on
  pinConfigure(SERIAL_RX, PIN_DIR_INPUT | PIN_PULLUP_OFF | PIN_INPUT_ENABLE);
  if (digitalReadFast(BT_POWER)) {
    a35a:	12 9b       	sbis	0x02, 2	; 2
    a35c:	03 c0       	rjmp	.+6      	; 0xa364 <main+0x42e>
C:\Users\dax\Google Drive\GitLocalRepositories\K197Display/BTmanager.cpp:46
    bt_module_present = true;
    a35e:	81 e0       	ldi	r24, 0x01	; 1
    a360:	80 93 c0 6f 	sts	0x6FC0, r24	; 0x806fc0 <BTman>
C:\Users\dax\Google Drive\GitLocalRepositories\K197Display/BTmanager.cpp:58
       SERIAL_RX_bm)) { // Serial autoreset ==> Serial is in use
    bt_module_present = true;
  }
#endif // BT_POWER

  if (bt_module_present) {
    a364:	80 91 c0 6f 	lds	r24, 0x6FC0	; 0x806fc0 <BTman>
    a368:	88 23       	and	r24, r24
    a36a:	09 f4       	brne	.+2      	; 0xa36e <main+0x438>
    a36c:	85 c0       	rjmp	.+266    	; 0xa478 <main+0x542>
C:\Users\dax\Google Drive\GitLocalRepositories\K197Display/BTmanager.cpp:59
    Serial.begin(115200);
    a36e:	40 e0       	ldi	r20, 0x00	; 0
    a370:	52 ec       	ldi	r21, 0xC2	; 194
    a372:	61 e0       	ldi	r22, 0x01	; 1
    a374:	70 e0       	ldi	r23, 0x00	; 0
    a376:	81 e4       	ldi	r24, 0x41	; 65
    a378:	94 e6       	ldi	r25, 0x64	; 100
    a37a:	0e 94 dc 3f 	call	0x7fb8	; 0x7fb8 <UartClass::begin(unsigned long)>
_ZN9debugUtil9useSerialEb():
C:\Users\dax\Google Drive\GitLocalRepositories\K197Display/debugUtil.h:96

     PREREQUISITES: Serial.begin() must be called if Serial output is enabled

     @param serial enable Serial output if true, disable if false
  */
  void useSerial(bool serial) { use_serial = serial; };
    a37e:	81 e0       	ldi	r24, 0x01	; 1
    a380:	80 93 49 66 	sts	0x6649, r24	; 0x806649 <DebugOut+0x4>
_pinConfigure():
C:\Users\dax\AppData\Local\Arduino15\packages\DxCore\hardware\megaavr\1.4.10\cores\dxcore/wiring_digital.c:120
  }
  volatile uint8_t *portbase = (volatile uint8_t*) digitalPinToPortStruct(pin);
  uint8_t bit_pos = digitalPinToBitPosition(pin);
  uint8_t setting = pinconfig & 0x03; // grab direction bits
  if (setting) {
    *(portbase + setting) = bit_mask; // DIR
    a384:	80 e4       	ldi	r24, 0x40	; 64
    a386:	80 93 61 04 	sts	0x0461, r24	; 0x800461 <__TEXT_REGION_LENGTH__+0x7f0461>
C:\Users\dax\AppData\Local\Arduino15\packages\DxCore\hardware\megaavr\1.4.10\cores\dxcore/wiring_digital.c:125
  }
  pinconfig >>= 2;
  setting = pinconfig & 0x03; // as above, only for output
  if (setting) {
    *(portbase + 4 + setting) = bit_mask;  // OUT
    a38a:	80 93 66 04 	sts	0x0466, r24	; 0x800466 <__TEXT_REGION_LENGTH__+0x7f0466>
analogRead():
C:\Users\dax\AppData\Local\Arduino15\packages\DxCore\hardware\megaavr\1.4.10\cores\dxcore/wiring_analog.c:143
    pin = digitalPinToAnalogInput(pin);
    if(pin == NOT_A_PIN) return -1;

  }
  /* Select channel */
  ADC0.MUXPOS = ((pin & 0x7F) << ADC_MUXPOS_gp);
    a38e:	84 e4       	ldi	r24, 0x44	; 68
    a390:	80 93 08 06 	sts	0x0608, r24	; 0x800608 <__TEXT_REGION_LENGTH__+0x7f0608>
C:\Users\dax\AppData\Local\Arduino15\packages\DxCore\hardware\megaavr\1.4.10\cores\dxcore/wiring_analog.c:147
  /* Reference should be already set up */

  /* Start conversion */
  ADC0.COMMAND = ADC_STCONV_bm;
    a394:	81 e0       	ldi	r24, 0x01	; 1
    a396:	80 93 0a 06 	sts	0x060A, r24	; 0x80060a <__TEXT_REGION_LENGTH__+0x7f060a>
C:\Users\dax\AppData\Local\Arduino15\packages\DxCore\hardware\megaavr\1.4.10\cores\dxcore/wiring_analog.c:150

  /* Wait for result ready */
  while(!(ADC0.INTFLAGS & ADC_RESRDY_bm));
    a39a:	80 91 0d 06 	lds	r24, 0x060D	; 0x80060d <__TEXT_REGION_LENGTH__+0x7f060d>
    a39e:	80 ff       	sbrs	r24, 0
    a3a0:	fc cf       	rjmp	.-8      	; 0xa39a <main+0x464>
C:\Users\dax\AppData\Local\Arduino15\packages\DxCore\hardware\megaavr\1.4.10\cores\dxcore/wiring_analog.c:156

  #if (defined(__AVR_DA__) && (!defined(NO_ADC_WORKAROUND)))
    // That may become defined when DA-series silicon is available with the fix
    ADC0.MUXPOS = 0x40;
  #endif
  return ADC0.RES;
    a3a2:	80 91 10 06 	lds	r24, 0x0610	; 0x800610 <__TEXT_REGION_LENGTH__+0x7f0610>
    a3a6:	90 91 11 06 	lds	r25, 0x0611	; 0x800611 <__TEXT_REGION_LENGTH__+0x7f0611>
C:\Users\dax\AppData\Local\Arduino15\packages\DxCore\hardware\megaavr\1.4.10\cores\dxcore/wiring_analog.c:143
    pin = digitalPinToAnalogInput(pin);
    if(pin == NOT_A_PIN) return -1;

  }
  /* Select channel */
  ADC0.MUXPOS = ((pin & 0x7F) << ADC_MUXPOS_gp);
    a3aa:	85 e4       	ldi	r24, 0x45	; 69
    a3ac:	80 93 08 06 	sts	0x0608, r24	; 0x800608 <__TEXT_REGION_LENGTH__+0x7f0608>
C:\Users\dax\AppData\Local\Arduino15\packages\DxCore\hardware\megaavr\1.4.10\cores\dxcore/wiring_analog.c:147
  /* Reference should be already set up */

  /* Start conversion */
  ADC0.COMMAND = ADC_STCONV_bm;
    a3b0:	81 e0       	ldi	r24, 0x01	; 1
    a3b2:	80 93 0a 06 	sts	0x060A, r24	; 0x80060a <__TEXT_REGION_LENGTH__+0x7f060a>
C:\Users\dax\AppData\Local\Arduino15\packages\DxCore\hardware\megaavr\1.4.10\cores\dxcore/wiring_analog.c:150

  /* Wait for result ready */
  while(!(ADC0.INTFLAGS & ADC_RESRDY_bm));
    a3b6:	80 91 0d 06 	lds	r24, 0x060D	; 0x80060d <__TEXT_REGION_LENGTH__+0x7f060d>
    a3ba:	80 ff       	sbrs	r24, 0
    a3bc:	fc cf       	rjmp	.-8      	; 0xa3b6 <main+0x480>
C:\Users\dax\AppData\Local\Arduino15\packages\DxCore\hardware\megaavr\1.4.10\cores\dxcore/wiring_analog.c:156

  #if (defined(__AVR_DA__) && (!defined(NO_ADC_WORKAROUND)))
    // That may become defined when DA-series silicon is available with the fix
    ADC0.MUXPOS = 0x40;
  #endif
  return ADC0.RES;
    a3be:	80 91 10 06 	lds	r24, 0x0610	; 0x800610 <__TEXT_REGION_LENGTH__+0x7f0610>
    a3c2:	90 91 11 06 	lds	r25, 0x0611	; 0x800611 <__TEXT_REGION_LENGTH__+0x7f0611>
setup():
C:\Users\dax\Google Drive\GitLocalRepositories\K197Display/K197Display.ino:331

  // We acquire one value and discard it, this may be needed before we can have
  // a stable value
  dxUtil.getVdd();
  dxUtil.getVddio2();
  dxUtil.getTKelvin();
    a3c6:	0e 94 e5 3f 	call	0x7fca	; 0x7fca <dxUtilClass::getTKelvin() [clone .constprop.131]>
_pinMode():
C:\Users\dax\AppData\Local\Arduino15\packages\DxCore\hardware\megaavr\1.4.10\cores\dxcore/wiring_digital.c:229
    return;                             /* ignore invalid pins passed at runtime */
  }
  PORT_t *port = digitalPinToPortStruct(pin);
  // if (port == NULL) return;           /* skip this test; if bit_mask isn't NOT_A_PIN, port won't be null - if it is, pins_arduino.h contains errors and we can't expect any digital I/O to work correctly.
  if (mode == OUTPUT) {
    port->DIRSET = bit_mask;            /* Configure direction as output and done*/
    a3ca:	10 e8       	ldi	r17, 0x80	; 128
    a3cc:	10 93 01 04 	sts	0x0401, r17	; 0x800401 <__TEXT_REGION_LENGTH__+0x7f0401>
setup():
C:\Users\dax\Google Drive\GitLocalRepositories\K197Display/K197Display.ino:335

  pinMode(LED_BUILTIN, OUTPUT);

  DebugOut.println(F("K197Display running on dxCore"));
    a3d0:	6f ed       	ldi	r22, 0xDF	; 223
    a3d2:	75 e0       	ldi	r23, 0x05	; 5
    a3d4:	85 e4       	ldi	r24, 0x45	; 69
    a3d6:	96 e6       	ldi	r25, 0x66	; 102
    a3d8:	0e 94 f8 43 	call	0x87f0	; 0x87f0 <Print::println(__FlashStringHelper const*)>
C:\Users\dax\Google Drive\GitLocalRepositories\K197Display/SPIdevice.cpp:82
/*!
    @brief  setup the SPI peripheral. Must be called first, before any other
   member function
*/
void SPIdevice::setup() {
  nbyte=0x00;
    a3dc:	1d ba       	out	0x1d, r1	; 29
C:\Users\dax\Google Drive\GitLocalRepositories\K197Display/SPIdevice.cpp:83
  SPIflags=0x00;
    a3de:	1c ba       	out	0x1c, r1	; 28
_pinMode():
C:\Users\dax\AppData\Local\Arduino15\packages\DxCore\hardware\megaavr\1.4.10\cores\dxcore/wiring_digital.c:234
  } else {                              /* mode == INPUT or INPUT_PULLUP - more complicated */
                                        /* Calculate where pin control register is */
    uint8_t bit_pos = digitalPinToBitPosition(pin);
    volatile uint8_t *pin_ctrl = getPINnCTRLregister(port, bit_pos);
    uint8_t status = SREG;              /* Save state */
    a3e0:	9f b7       	in	r25, 0x3f	; 63
C:\Users\dax\AppData\Local\Arduino15\packages\DxCore\hardware\megaavr\1.4.10\cores\dxcore/wiring_digital.c:235
    cli();                              /* Interrupts off for PINnCTRL stuff */
    a3e2:	f8 94       	cli
C:\Users\dax\AppData\Local\Arduino15\packages\DxCore\hardware\megaavr\1.4.10\cores\dxcore/wiring_digital.c:236
    port->DIRCLR = bit_mask;            /* Configure direction as input */
    a3e4:	21 e0       	ldi	r18, 0x01	; 1
    a3e6:	20 93 42 04 	sts	0x0442, r18	; 0x800442 <__TEXT_REGION_LENGTH__+0x7f0442>
C:\Users\dax\AppData\Local\Arduino15\packages\DxCore\hardware\megaavr\1.4.10\cores\dxcore/wiring_digital.c:240
    if (mode == INPUT_PULLUP) {         /* Configure pull-up resistor */
      *pin_ctrl |= PORT_PULLUPEN_bm;    /* Enable pull-up */
    } else {                            /* mode == INPUT (no pullup) */
      *pin_ctrl &= ~(PORT_PULLUPEN_bm); /* Disable pull-up */
    a3ea:	80 91 50 04 	lds	r24, 0x0450	; 0x800450 <__TEXT_REGION_LENGTH__+0x7f0450>
    a3ee:	87 7f       	andi	r24, 0xF7	; 247
    a3f0:	80 93 50 04 	sts	0x0450, r24	; 0x800450 <__TEXT_REGION_LENGTH__+0x7f0450>
C:\Users\dax\AppData\Local\Arduino15\packages\DxCore\hardware\megaavr\1.4.10\cores\dxcore/wiring_digital.c:242
    }
    SREG = status;                      /* Restore state */
    a3f4:	9f bf       	out	0x3f, r25	; 63
C:\Users\dax\AppData\Local\Arduino15\packages\DxCore\hardware\megaavr\1.4.10\cores\dxcore/wiring_digital.c:234
    port->DIRSET = bit_mask;            /* Configure direction as output and done*/
  } else {                              /* mode == INPUT or INPUT_PULLUP - more complicated */
                                        /* Calculate where pin control register is */
    uint8_t bit_pos = digitalPinToBitPosition(pin);
    volatile uint8_t *pin_ctrl = getPINnCTRLregister(port, bit_pos);
    uint8_t status = SREG;              /* Save state */
    a3f6:	9f b7       	in	r25, 0x3f	; 63
C:\Users\dax\AppData\Local\Arduino15\packages\DxCore\hardware\megaavr\1.4.10\cores\dxcore/wiring_digital.c:235
    cli();                              /* Interrupts off for PINnCTRL stuff */
    a3f8:	f8 94       	cli
C:\Users\dax\AppData\Local\Arduino15\packages\DxCore\hardware\megaavr\1.4.10\cores\dxcore/wiring_digital.c:236
    port->DIRCLR = bit_mask;            /* Configure direction as input */
    a3fa:	82 e0       	ldi	r24, 0x02	; 2
    a3fc:	80 93 42 04 	sts	0x0442, r24	; 0x800442 <__TEXT_REGION_LENGTH__+0x7f0442>
C:\Users\dax\AppData\Local\Arduino15\packages\DxCore\hardware\megaavr\1.4.10\cores\dxcore/wiring_digital.c:240
    if (mode == INPUT_PULLUP) {         /* Configure pull-up resistor */
      *pin_ctrl |= PORT_PULLUPEN_bm;    /* Enable pull-up */
    } else {                            /* mode == INPUT (no pullup) */
      *pin_ctrl &= ~(PORT_PULLUPEN_bm); /* Disable pull-up */
    a400:	80 91 51 04 	lds	r24, 0x0451	; 0x800451 <__TEXT_REGION_LENGTH__+0x7f0451>
    a404:	87 7f       	andi	r24, 0xF7	; 247
    a406:	80 93 51 04 	sts	0x0451, r24	; 0x800451 <__TEXT_REGION_LENGTH__+0x7f0451>
C:\Users\dax\AppData\Local\Arduino15\packages\DxCore\hardware\megaavr\1.4.10\cores\dxcore/wiring_digital.c:242
    }
    SREG = status;                      /* Restore state */
    a40a:	9f bf       	out	0x3f, r25	; 63
C:\Users\dax\AppData\Local\Arduino15\packages\DxCore\hardware\megaavr\1.4.10\cores\dxcore/wiring_digital.c:234
    port->DIRSET = bit_mask;            /* Configure direction as output and done*/
  } else {                              /* mode == INPUT or INPUT_PULLUP - more complicated */
                                        /* Calculate where pin control register is */
    uint8_t bit_pos = digitalPinToBitPosition(pin);
    volatile uint8_t *pin_ctrl = getPINnCTRLregister(port, bit_pos);
    uint8_t status = SREG;              /* Save state */
    a40c:	3f b7       	in	r19, 0x3f	; 63
C:\Users\dax\AppData\Local\Arduino15\packages\DxCore\hardware\megaavr\1.4.10\cores\dxcore/wiring_digital.c:235
    cli();                              /* Interrupts off for PINnCTRL stuff */
    a40e:	f8 94       	cli
C:\Users\dax\AppData\Local\Arduino15\packages\DxCore\hardware\megaavr\1.4.10\cores\dxcore/wiring_digital.c:236
    port->DIRCLR = bit_mask;            /* Configure direction as input */
    a410:	94 e0       	ldi	r25, 0x04	; 4
    a412:	90 93 42 04 	sts	0x0442, r25	; 0x800442 <__TEXT_REGION_LENGTH__+0x7f0442>
C:\Users\dax\AppData\Local\Arduino15\packages\DxCore\hardware\megaavr\1.4.10\cores\dxcore/wiring_digital.c:240
    if (mode == INPUT_PULLUP) {         /* Configure pull-up resistor */
      *pin_ctrl |= PORT_PULLUPEN_bm;    /* Enable pull-up */
    } else {                            /* mode == INPUT (no pullup) */
      *pin_ctrl &= ~(PORT_PULLUPEN_bm); /* Disable pull-up */
    a416:	80 91 52 04 	lds	r24, 0x0452	; 0x800452 <__TEXT_REGION_LENGTH__+0x7f0452>
    a41a:	87 7f       	andi	r24, 0xF7	; 247
    a41c:	80 93 52 04 	sts	0x0452, r24	; 0x800452 <__TEXT_REGION_LENGTH__+0x7f0452>
C:\Users\dax\AppData\Local\Arduino15\packages\DxCore\hardware\megaavr\1.4.10\cores\dxcore/wiring_digital.c:242
    }
    SREG = status;                      /* Restore state */
    a420:	3f bf       	out	0x3f, r19	; 63
C:\Users\dax\AppData\Local\Arduino15\packages\DxCore\hardware\megaavr\1.4.10\cores\dxcore/wiring_digital.c:234
    port->DIRSET = bit_mask;            /* Configure direction as output and done*/
  } else {                              /* mode == INPUT or INPUT_PULLUP - more complicated */
                                        /* Calculate where pin control register is */
    uint8_t bit_pos = digitalPinToBitPosition(pin);
    volatile uint8_t *pin_ctrl = getPINnCTRLregister(port, bit_pos);
    uint8_t status = SREG;              /* Save state */
    a422:	3f b7       	in	r19, 0x3f	; 63
C:\Users\dax\AppData\Local\Arduino15\packages\DxCore\hardware\megaavr\1.4.10\cores\dxcore/wiring_digital.c:235
    cli();                              /* Interrupts off for PINnCTRL stuff */
    a424:	f8 94       	cli
C:\Users\dax\AppData\Local\Arduino15\packages\DxCore\hardware\megaavr\1.4.10\cores\dxcore/wiring_digital.c:236
    port->DIRCLR = bit_mask;            /* Configure direction as input */
    a426:	88 e0       	ldi	r24, 0x08	; 8
    a428:	80 93 42 04 	sts	0x0442, r24	; 0x800442 <__TEXT_REGION_LENGTH__+0x7f0442>
C:\Users\dax\AppData\Local\Arduino15\packages\DxCore\hardware\megaavr\1.4.10\cores\dxcore/wiring_digital.c:240
    if (mode == INPUT_PULLUP) {         /* Configure pull-up resistor */
      *pin_ctrl |= PORT_PULLUPEN_bm;    /* Enable pull-up */
    } else {                            /* mode == INPUT (no pullup) */
      *pin_ctrl &= ~(PORT_PULLUPEN_bm); /* Disable pull-up */
    a42c:	80 91 53 04 	lds	r24, 0x0453	; 0x800453 <__TEXT_REGION_LENGTH__+0x7f0453>
    a430:	87 7f       	andi	r24, 0xF7	; 247
    a432:	80 93 53 04 	sts	0x0453, r24	; 0x800453 <__TEXT_REGION_LENGTH__+0x7f0453>
C:\Users\dax\AppData\Local\Arduino15\packages\DxCore\hardware\megaavr\1.4.10\cores\dxcore/wiring_digital.c:242
    }
    SREG = status;                      /* Restore state */
    a436:	3f bf       	out	0x3f, r19	; 63
setup():
C:\Users\dax\Google Drive\GitLocalRepositories\K197Display/SPIdevice.cpp:92
  pinMode(SPI1_SCK, INPUT);
  pinMode(SPI1_SS, INPUT);

  // turn on SPI in client mode (peripheral is client, Keithley motherboard is
  // the host controlling the client)
  SPI1.CTRLA =
    a438:	20 93 60 09 	sts	0x0960, r18	; 0x800960 <__TEXT_REGION_LENGTH__+0x7f0960>
C:\Users\dax\Google Drive\GitLocalRepositories\K197Display/SPIdevice.cpp:97
      SPI_ENABLE_bm; // Other flags: SPI_DORD=0 (MSb first), SPI_MASTER=0.
                     // SPI_CLK2X, SPI_PRESC: not used when SPI_MASTER=0

  // Set SPI Mode
  SPI1.CTRLB =
    a43c:	10 93 61 09 	sts	0x0961, r17	; 0x800961 <__TEXT_REGION_LENGTH__+0x7f0961>
C:\Users\dax\Google Drive\GitLocalRepositories\K197Display/SPIdevice.cpp:103
      SPI_BUFEN_bm |
      SPI_MODE_0_gc; // Other flags: SPI_BUFEN=1 (normal mode). SPI_BUFWR=0 (not
                     // need to transmit); SPI_SSD not used when SPI_MASTER=0

#ifdef DEVICE_USE_INTERRUPT
  cli(); // we want interrupts to fire after they are properly configured
    a440:	f8 94       	cli
C:\Users\dax\Google Drive\GitLocalRepositories\K197Display/SPIdevice.cpp:106

  // enable interrupts
  SPI1.INTCTRL = SPI_RXCIE_bm; // Other flags not used when SPI_BUFEN=0
    a442:	10 93 62 09 	sts	0x0962, r17	; 0x800962 <__TEXT_REGION_LENGTH__+0x7f0962>
C:\Users\dax\Google Drive\GitLocalRepositories\K197Display/SPIdevice.cpp:111

# ifndef CORE_ATTACH_NONE // Manual handling of pin interrupts possible
      #error "attachInterrupt must be set to \"only enabled ports\" in the Tools menu" 
#  endif
    SPI1_PORT.SPI1_PIN_SS_CTRL = (SPI1_PORT.SPI1_PIN_SS_CTRL & 0xF8) | PORT_ISC_BOTHEDGES_gc;
    a446:	80 91 53 04 	lds	r24, 0x0453	; 0x800453 <__TEXT_REGION_LENGTH__+0x7f0453>
    a44a:	88 7f       	andi	r24, 0xF8	; 248
    a44c:	81 60       	ori	r24, 0x01	; 1
    a44e:	80 93 53 04 	sts	0x0453, r24	; 0x800453 <__TEXT_REGION_LENGTH__+0x7f0453>
C:\Users\dax\Google Drive\GitLocalRepositories\K197Display/SPIdevice.cpp:113

  sei(); // now we re-enable interrupts
    a452:	78 94       	sei
_pinMode():
C:\Users\dax\AppData\Local\Arduino15\packages\DxCore\hardware\megaavr\1.4.10\cores\dxcore/wiring_digital.c:229
    return;                             /* ignore invalid pins passed at runtime */
  }
  PORT_t *port = digitalPinToPortStruct(pin);
  // if (port == NULL) return;           /* skip this test; if bit_mask isn't NOT_A_PIN, port won't be null - if it is, pins_arduino.h contains errors and we can't expect any digital I/O to work correctly.
  if (mode == OUTPUT) {
    port->DIRSET = bit_mask;            /* Configure direction as output and done*/
    a454:	80 e1       	ldi	r24, 0x10	; 16
    a456:	80 93 01 04 	sts	0x0401, r24	; 0x800401 <__TEXT_REGION_LENGTH__+0x7f0401>
swap():
C:\Users\dax\AppData\Local\Arduino15\packages\DxCore\hardware\megaavr\1.4.10\libraries\SPI\src/SPI.cpp:195
    }
  #endif
}

bool SPIClass::swap(uint8_t state) {
  if (initialized) return false;
    a45a:	80 91 fb 65 	lds	r24, 0x65FB	; 0x8065fb <SPI+0x7>
    a45e:	88 23       	and	r24, r24
    a460:	21 f1       	breq	.+72     	; 0xa4aa <main+0x574>
setup():
C:\Users\dax\Google Drive\GitLocalRepositories\K197Display/UImanager.cpp:138
  bool pmap = SPI.swap(OLED_SPI_SWAP_OPTION); // See pinout.h for pin definition
  if (pmap) {
    // DebugOut.println(F("SPI pin mapping OK!"));
    // DebugOut.flush();
  } else {
    DebugOut.println(F("SPI pin mapping failed!"));
    a462:	62 e4       	ldi	r22, 0x42	; 66
    a464:	75 e0       	ldi	r23, 0x05	; 5
    a466:	85 e4       	ldi	r24, 0x45	; 69
    a468:	96 e6       	ldi	r25, 0x66	; 102
    a46a:	0e 94 f8 43 	call	0x87f0	; 0x87f0 <Print::println(__FlashStringHelper const*)>
C:\Users\dax\Google Drive\GitLocalRepositories\K197Display/UImanager.cpp:139
    DebugOut.flush();
    a46e:	85 e4       	ldi	r24, 0x45	; 69
    a470:	96 e6       	ldi	r25, 0x66	; 102
    a472:	0e 94 1e 3c 	call	0x783c	; 0x783c <debugUtil::flush()>
    a476:	ff cf       	rjmp	.-2      	; 0xa476 <main+0x540>
_pinConfigure():
C:\Users\dax\AppData\Local\Arduino15\packages\DxCore\hardware\megaavr\1.4.10\cores\dxcore/wiring_digital.c:120
  }
  volatile uint8_t *portbase = (volatile uint8_t*) digitalPinToPortStruct(pin);
  uint8_t bit_pos = digitalPinToBitPosition(pin);
  uint8_t setting = pinconfig & 0x03; // grab direction bits
  if (setting) {
    *(portbase + setting) = bit_mask; // DIR
    a478:	81 e0       	ldi	r24, 0x01	; 1
    a47a:	80 93 01 04 	sts	0x0401, r24	; 0x800401 <__TEXT_REGION_LENGTH__+0x7f0401>
C:\Users\dax\AppData\Local\Arduino15\packages\DxCore\hardware\megaavr\1.4.10\cores\dxcore/wiring_digital.c:125
  }
  pinconfig >>= 2;
  setting = pinconfig & 0x03; // as above, only for output
  if (setting) {
    *(portbase + 4 + setting) = bit_mask;  // OUT
    a47e:	80 93 06 04 	sts	0x0406, r24	; 0x800406 <__TEXT_REGION_LENGTH__+0x7f0406>
C:\Users\dax\AppData\Local\Arduino15\packages\DxCore\hardware\megaavr\1.4.10\cores\dxcore/wiring_digital.c:129
  }
  if (!(pinconfig & 0x3FFC)) return; // RETURN if we're done before we start this mess.
  pinconfig >>= 2;
  uint8_t oldSREG = SREG;
    a482:	9f b7       	in	r25, 0x3f	; 63
C:\Users\dax\AppData\Local\Arduino15\packages\DxCore\hardware\megaavr\1.4.10\cores\dxcore/wiring_digital.c:130
  cli();
    a484:	f8 94       	cli
C:\Users\dax\AppData\Local\Arduino15\packages\DxCore\hardware\megaavr\1.4.10\cores\dxcore/wiring_digital.c:131
  uint8_t pinncfg = *(portbase + 0x10 + bit_pos);
    a486:	80 91 10 04 	lds	r24, 0x0410	; 0x800410 <__TEXT_REGION_LENGTH__+0x7f0410>
C:\Users\dax\AppData\Local\Arduino15\packages\DxCore\hardware\megaavr\1.4.10\cores\dxcore/wiring_digital.c:133
  if (pinconfig & 0x08 ) {
    pinncfg = (pinncfg & 0xF8 ) | (pinconfig & 0x07); // INPUT SENSE CONFIG
    a48a:	88 7f       	andi	r24, 0xF8	; 248
C:\Users\dax\AppData\Local\Arduino15\packages\DxCore\hardware\megaavr\1.4.10\cores\dxcore/wiring_digital.c:183
      pinncfg &= ~(0x80); // clear
    } else {
      pinncfg |= 0x80;    // set
    }
  }
  *(portbase + 0x10 + bit_pos) = pinncfg;
    a48c:	80 93 10 04 	sts	0x0410, r24	; 0x800410 <__TEXT_REGION_LENGTH__+0x7f0410>
C:\Users\dax\AppData\Local\Arduino15\packages\DxCore\hardware\megaavr\1.4.10\cores\dxcore/wiring_digital.c:184
  SREG=oldSREG; // re-enable interrupts
    a490:	9f bf       	out	0x3f, r25	; 63
C:\Users\dax\AppData\Local\Arduino15\packages\DxCore\hardware\megaavr\1.4.10\cores\dxcore/wiring_digital.c:120
  }
  volatile uint8_t *portbase = (volatile uint8_t*) digitalPinToPortStruct(pin);
  uint8_t bit_pos = digitalPinToBitPosition(pin);
  uint8_t setting = pinconfig & 0x03; // grab direction bits
  if (setting) {
    *(portbase + setting) = bit_mask; // DIR
    a492:	82 e0       	ldi	r24, 0x02	; 2
    a494:	80 93 02 04 	sts	0x0402, r24	; 0x800402 <__TEXT_REGION_LENGTH__+0x7f0402>
C:\Users\dax\AppData\Local\Arduino15\packages\DxCore\hardware\megaavr\1.4.10\cores\dxcore/wiring_digital.c:129
  if (setting) {
    *(portbase + 4 + setting) = bit_mask;  // OUT
  }
  if (!(pinconfig & 0x3FFC)) return; // RETURN if we're done before we start this mess.
  pinconfig >>= 2;
  uint8_t oldSREG = SREG;
    a498:	9f b7       	in	r25, 0x3f	; 63
C:\Users\dax\AppData\Local\Arduino15\packages\DxCore\hardware\megaavr\1.4.10\cores\dxcore/wiring_digital.c:130
  cli();
    a49a:	f8 94       	cli
C:\Users\dax\AppData\Local\Arduino15\packages\DxCore\hardware\megaavr\1.4.10\cores\dxcore/wiring_digital.c:131
  uint8_t pinncfg = *(portbase + 0x10 + bit_pos);
    a49c:	80 91 11 04 	lds	r24, 0x0411	; 0x800411 <__TEXT_REGION_LENGTH__+0x7f0411>
C:\Users\dax\AppData\Local\Arduino15\packages\DxCore\hardware\megaavr\1.4.10\cores\dxcore/wiring_digital.c:140
  uint8_t temp = pinconfig & 0x30; // PULLUP
  if (temp) {
    if (temp == 0x30) {
      pinncfg ^= 0x08;    // toggle pullup - of dubious utility
    } else if (temp == 0x20) {
      pinncfg &= ~(0x08); // clear
    a4a0:	80 7f       	andi	r24, 0xF0	; 240
C:\Users\dax\AppData\Local\Arduino15\packages\DxCore\hardware\megaavr\1.4.10\cores\dxcore/wiring_digital.c:183
      pinncfg &= ~(0x80); // clear
    } else {
      pinncfg |= 0x80;    // set
    }
  }
  *(portbase + 0x10 + bit_pos) = pinncfg;
    a4a2:	80 93 11 04 	sts	0x0411, r24	; 0x800411 <__TEXT_REGION_LENGTH__+0x7f0411>
C:\Users\dax\AppData\Local\Arduino15\packages\DxCore\hardware\megaavr\1.4.10\cores\dxcore/wiring_digital.c:184
  SREG=oldSREG; // re-enable interrupts
    a4a6:	9f bf       	out	0x3f, r25	; 63
    a4a8:	6d cf       	rjmp	.-294    	; 0xa384 <main+0x44e>
swap():
C:\Users\dax\AppData\Local\Arduino15\packages\DxCore\hardware\megaavr\1.4.10\libraries\SPI\src/SPI.cpp:321
        return true;
      } else
    #endif

    if(state == SPI0_SWAP_DEFAULT) {
      _uc_mux        = SPI_MUX;
    a4aa:	10 92 fa 65 	sts	0x65FA, r1	; 0x8065fa <SPI+0x6>
C:\Users\dax\AppData\Local\Arduino15\packages\DxCore\hardware\megaavr\1.4.10\libraries\SPI\src/SPI.cpp:322
      _uc_pinMOSI    = PIN_SPI_MOSI;
    a4ae:	90 93 f7 65 	sts	0x65F7, r25	; 0x8065f7 <SPI+0x3>
C:\Users\dax\AppData\Local\Arduino15\packages\DxCore\hardware\megaavr\1.4.10\libraries\SPI\src/SPI.cpp:323
      _uc_pinSCK     = PIN_SPI_SCK;
    a4b2:	86 e0       	ldi	r24, 0x06	; 6
    a4b4:	80 93 f8 65 	sts	0x65F8, r24	; 0x8065f8 <SPI+0x4>
C:\Users\dax\AppData\Local\Arduino15\packages\DxCore\hardware\megaavr\1.4.10\libraries\SPI\src/SPI.cpp:324
      _hwspi_module  = &SPI0;
    a4b8:	80 e4       	ldi	r24, 0x40	; 64
    a4ba:	99 e0       	ldi	r25, 0x09	; 9
    a4bc:	80 93 f4 65 	sts	0x65F4, r24	; 0x8065f4 <SPI>
    a4c0:	90 93 f5 65 	sts	0x65F5, r25	; 0x8065f5 <SPI+0x1>
_ZN4U8G211setBusClockEm():
E:\Users\puzzole\Documents\Arduino\libraries\U8g2\src/U8g2lib.h:77
    void sendF(const char *fmt, ...) 
      { va_list va; va_start(va, fmt); u8x8_cad_vsendf(u8g2_GetU8x8(&u8g2), fmt, va); va_end(va); }


    uint32_t getBusClock(void) { return u8g2_GetU8x8(&u8g2)->bus_clock; }
    void setBusClock(uint32_t clock_speed) { u8g2_GetU8x8(&u8g2)->bus_clock = clock_speed; }
    a4c4:	80 e0       	ldi	r24, 0x00	; 0
    a4c6:	9b e1       	ldi	r25, 0x1B	; 27
    a4c8:	a7 eb       	ldi	r26, 0xB7	; 183
    a4ca:	b0 e0       	ldi	r27, 0x00	; 0
    a4cc:	80 93 f3 6e 	sts	0x6EF3, r24	; 0x806ef3 <u8g2+0x10>
    a4d0:	90 93 f4 6e 	sts	0x6EF4, r25	; 0x806ef4 <u8g2+0x11>
    a4d4:	a0 93 f5 6e 	sts	0x6EF5, r26	; 0x806ef5 <u8g2+0x12>
    a4d8:	b0 93 f6 6e 	sts	0x6EF6, r27	; 0x806ef6 <u8g2+0x13>
u8x8_InitDisplay():
E:\Users\puzzole\Documents\Arduino\libraries\U8g2\src\clib/u8x8_display.c:137
  Then InitDisplay can be skipped, but u8x8_InitInterface()  (== u8x8_gpio_Init() and u8x8_cad_Init()) need to be executed.

*/
void u8x8_InitDisplay(u8x8_t *u8x8)
{
  u8x8->display_cb(u8x8, U8X8_MSG_DISPLAY_INIT, 0, NULL);       /* this will call u8x8_d_helper_display_init() and send the init seqence to the display */
    a4dc:	e0 91 eb 6e 	lds	r30, 0x6EEB	; 0x806eeb <u8g2+0x8>
    a4e0:	f0 91 ec 6e 	lds	r31, 0x6EEC	; 0x806eec <u8g2+0x9>
    a4e4:	30 e0       	ldi	r19, 0x00	; 0
    a4e6:	20 e0       	ldi	r18, 0x00	; 0
    a4e8:	40 e0       	ldi	r20, 0x00	; 0
    a4ea:	6a e0       	ldi	r22, 0x0A	; 10
    a4ec:	87 ee       	ldi	r24, 0xE7	; 231
    a4ee:	9e e6       	ldi	r25, 0x6E	; 110
    a4f0:	09 95       	icall
u8g2_FirstPage():
E:\Users\puzzole\Documents\Arduino\libraries\U8g2\src\clib/u8g2_buffer.c:109
  u8g2->cb->update_page_win(u8g2);
}

void u8g2_FirstPage(u8g2_t *u8g2)
{
  if ( u8g2->is_auto_page_clear )
    a4f2:	80 91 72 6f 	lds	r24, 0x6F72	; 0x806f72 <u8g2+0x8f>
    a4f6:	88 23       	and	r24, r24
    a4f8:	21 f0       	breq	.+8      	; 0xa502 <main+0x5cc>
E:\Users\puzzole\Documents\Arduino\libraries\U8g2\src\clib/u8g2_buffer.c:111
  {
    u8g2_ClearBuffer(u8g2);
    a4fa:	87 ee       	ldi	r24, 0xE7	; 231
    a4fc:	9e e6       	ldi	r25, 0x6E	; 110
    a4fe:	0e 94 51 42 	call	0x84a2	; 0x84a2 <u8g2_ClearBuffer>
E:\Users\puzzole\Documents\Arduino\libraries\U8g2\src\clib/u8g2_buffer.c:113
  }
  u8g2_SetBufferCurrTileRow(u8g2, 0);
    a502:	80 e0       	ldi	r24, 0x00	; 0
    a504:	0e 94 76 2c 	call	0x58ec	; 0x58ec <u8g2_SetBufferCurrTileRow.constprop.114>
u8g2_NextPage():
E:\Users\puzzole\Documents\Arduino\libraries\U8g2\src\clib/u8g2_buffer.c:119
}

uint8_t u8g2_NextPage(u8g2_t *u8g2)
{
  uint8_t row;
  u8g2_send_buffer(u8g2);
    a508:	87 ee       	ldi	r24, 0xE7	; 231
    a50a:	9e e6       	ldi	r25, 0x6E	; 110
    a50c:	0e 94 22 3b 	call	0x7644	; 0x7644 <u8g2_send_buffer>
E:\Users\puzzole\Documents\Arduino\libraries\U8g2\src\clib/u8g2_buffer.c:120
  row = u8g2->tile_curr_row;
    a510:	10 91 22 6f 	lds	r17, 0x6F22	; 0x806f22 <u8g2+0x3f>
E:\Users\puzzole\Documents\Arduino\libraries\U8g2\src\clib/u8g2_buffer.c:121
  row += u8g2->tile_buf_height;
    a514:	80 91 21 6f 	lds	r24, 0x6F21	; 0x806f21 <u8g2+0x3e>
    a518:	18 0f       	add	r17, r24
E:\Users\puzzole\Documents\Arduino\libraries\U8g2\src\clib/u8g2_buffer.c:122
  if ( row >= u8g2_GetU8x8(u8g2)->display_info->tile_height )
    a51a:	e0 91 e7 6e 	lds	r30, 0x6EE7	; 0x806ee7 <u8g2+0x4>
    a51e:	f0 91 e8 6e 	lds	r31, 0x6EE8	; 0x806ee8 <u8g2+0x5>
    a522:	81 89       	ldd	r24, Z+17	; 0x11
    a524:	18 17       	cp	r17, r24
    a526:	08 f4       	brcc	.+2      	; 0xa52a <main+0x5f4>
    a528:	32 c1       	rjmp	.+612    	; 0xa78e <main+0x858>
E:\Users\puzzole\Documents\Arduino\libraries\U8g2\src\clib/u8g2_buffer.c:124
  {
    u8x8_RefreshDisplay( u8g2_GetU8x8(u8g2) );
    a52a:	87 ee       	ldi	r24, 0xE7	; 231
    a52c:	9e e6       	ldi	r25, 0x6E	; 110
    a52e:	0e 94 c1 31 	call	0x6382	; 0x6382 <u8x8_RefreshDisplay>
u8g2_ClearDisplay():
E:\Users\puzzole\Documents\Arduino\libraries\U8g2\src\clib/u8g2_cleardisplay.c:52
    send commands.
    This will not work because the current tile row is modified by the picture 
    loop above. To fix this, reset the tile row to 0, issue #370
    A workaround would be, that the user sets the current tile row to 0 manually.
  */
  u8g2_SetBufferCurrTileRow(u8g2, 0);  
    a532:	80 e0       	ldi	r24, 0x00	; 0
    a534:	0e 94 76 2c 	call	0x58ec	; 0x58ec <u8g2_SetBufferCurrTileRow.constprop.114>
u8x8_SetPowerSave():
E:\Users\puzzole\Documents\Arduino\libraries\U8g2\src\clib/u8x8_display.c:143
  /* u8x8->display_cb(u8x8, U8X8_MSG_DISPLAY_SET_FLIP_MODE, 0, NULL);  */ /* It would make sense to call flip mode 0 here after U8X8_MSG_DISPLAY_INIT */
}

void u8x8_SetPowerSave(u8x8_t *u8x8, uint8_t is_enable)
{
  u8x8->display_cb(u8x8, U8X8_MSG_DISPLAY_SET_POWER_SAVE, is_enable, NULL);  
    a538:	e0 91 eb 6e 	lds	r30, 0x6EEB	; 0x806eeb <u8g2+0x8>
    a53c:	f0 91 ec 6e 	lds	r31, 0x6EEC	; 0x806eec <u8g2+0x9>
    a540:	30 e0       	ldi	r19, 0x00	; 0
    a542:	20 e0       	ldi	r18, 0x00	; 0
    a544:	40 e0       	ldi	r20, 0x00	; 0
    a546:	6b e0       	ldi	r22, 0x0B	; 11
    a548:	87 ee       	ldi	r24, 0xE7	; 231
    a54a:	9e e6       	ldi	r25, 0x6E	; 110
    a54c:	09 95       	icall
setup():
C:\Users\dax\Google Drive\GitLocalRepositories\K197Display/UImanager.cpp:146
      ;
  }
  u8g2.setBusClock(12000000); // without this call the default clock is about
                              // 5 MHz, which is more than good enough.
  u8g2.begin();
  setContrast(DEFAULT_CONTRAST);
    a54e:	80 e0       	ldi	r24, 0x00	; 0
    a550:	0e 94 65 2c 	call	0x58ca	; 0x58ca <UImanager::setContrast(unsigned char) [clone .constprop.116]>
_ZN4U8G215enableUTF8PrintEv():
E:\Users\puzzole\Documents\Arduino\libraries\U8g2\src/U8g2lib.h:82

    void setI2CAddress(uint8_t adr) { u8g2_SetI2CAddress(&u8g2, adr); }
    
    
    void enableUTF8Print(void) { cpp_next_cb = u8x8_utf8_next; }
    a554:	8a e6       	ldi	r24, 0x6A	; 106
    a556:	93 e3       	ldi	r25, 0x33	; 51
    a558:	80 93 73 6f 	sts	0x6F73, r24	; 0x806f73 <u8g2+0x90>
    a55c:	90 93 74 6f 	sts	0x6F74, r25	; 0x806f74 <u8g2+0x91>
u8log_Init():
E:\Users\puzzole\Documents\Arduino\libraries\U8g2\src\clib/u8log.c:173
  }
}

void u8log_Init(u8log_t *u8log, uint8_t width, uint8_t height, uint8_t *buf)
{
  memset(u8log, 0, sizeof(u8log_t));
    a560:	e3 ed       	ldi	r30, 0xD3	; 211
    a562:	fe e6       	ldi	r31, 0x6E	; 110
    a564:	80 e1       	ldi	r24, 0x10	; 16
    a566:	df 01       	movw	r26, r30
    a568:	1d 92       	st	X+, r1
    a56a:	8a 95       	dec	r24
    a56c:	e9 f7       	brne	.-6      	; 0xa568 <main+0x632>
E:\Users\puzzole\Documents\Arduino\libraries\U8g2\src\clib/u8log.c:174
  u8log->width = width;
    a56e:	8c e1       	ldi	r24, 0x1C	; 28
    a570:	80 93 d5 6e 	sts	0x6ED5, r24	; 0x806ed5 <u8g2log+0x6>
E:\Users\puzzole\Documents\Arduino\libraries\U8g2\src\clib/u8log.c:175
  u8log->height = height;
    a574:	89 e0       	ldi	r24, 0x09	; 9
    a576:	80 93 d6 6e 	sts	0x6ED6, r24	; 0x806ed6 <u8g2log+0x7>
E:\Users\puzzole\Documents\Arduino\libraries\U8g2\src\clib/u8log.c:176
  u8log->screen_buffer = buf;
    a57a:	83 ea       	ldi	r24, 0xA3	; 163
    a57c:	92 e6       	ldi	r25, 0x62	; 98
    a57e:	80 93 d9 6e 	sts	0x6ED9, r24	; 0x806ed9 <u8g2log+0xa>
    a582:	90 93 da 6e 	sts	0x6EDA, r25	; 0x806eda <u8g2log+0xb>
    a586:	fc 01       	movw	r30, r24
    a588:	8f e9       	ldi	r24, 0x9F	; 159
    a58a:	93 e6       	ldi	r25, 0x63	; 99
u8log_clear_screen():
E:\Users\puzzole\Documents\Arduino\libraries\U8g2\src\clib/u8log.c:60
  uint8_t *dest = u8log->screen_buffer;
  uint16_t cnt = u8log->height;
  cnt *= u8log->width;
  do
  {
    *dest++ = ' ';
    a58c:	20 e2       	ldi	r18, 0x20	; 32
    a58e:	21 93       	st	Z+, r18
E:\Users\puzzole\Documents\Arduino\libraries\U8g2\src\clib/u8log.c:62
    cnt--;
  } while( cnt > 0 );
    a590:	8e 17       	cp	r24, r30
    a592:	9f 07       	cpc	r25, r31
    a594:	e1 f7       	brne	.-8      	; 0xa58e <main+0x658>
_ZN4U8G211clearBufferEv():
E:\Users\puzzole\Documents\Arduino\libraries\U8g2\src/U8g2lib.h:188
    u8g2_uint_t getDisplayWidth(void) { return u8g2_GetDisplayWidth(&u8g2); }

    
    /* u8g2_buffer.c */
    void sendBuffer(void) { u8g2_SendBuffer(&u8g2); }
    void clearBuffer(void) { u8g2_ClearBuffer(&u8g2); }    
    a596:	87 ee       	ldi	r24, 0xE7	; 231
    a598:	9e e6       	ldi	r25, 0x6E	; 110
    a59a:	0e 94 51 42 	call	0x84a2	; 0x84a2 <u8g2_ClearBuffer>
_ZN4U8G27setFontEPKh():
E:\Users\puzzole\Documents\Arduino\libraries\U8g2\src/U8g2lib.h:266
    /* u8log_u8g2.c */
    void drawLog(u8g2_uint_t x, u8g2_uint_t y, class U8G2LOG &u8g2log);
    
    /* u8g2_font.c */

    void setFont(const uint8_t  *font) {u8g2_SetFont(&u8g2, font); }
    a59e:	6f e1       	ldi	r22, 0x1F	; 31
    a5a0:	7a e0       	ldi	r23, 0x0A	; 10
    a5a2:	87 ee       	ldi	r24, 0xE7	; 231
    a5a4:	9e e6       	ldi	r25, 0x6E	; 110
    a5a6:	0e 94 57 38 	call	0x70ae	; 0x70ae <u8g2_SetFont>
u8g2_SetFontMode():
E:\Users\puzzole\Documents\Arduino\libraries\U8g2\src\clib/u8g2_font.c:933
    U8G2_FONT_MODE_NONE
  This has been changed for the new font procedures  
*/
void u8g2_SetFontMode(u8g2_t *u8g2, uint8_t is_transparent)
{
  u8g2->font_decode.is_transparent = is_transparent;		// new font procedures
    a5aa:	10 92 50 6f 	sts	0x6F50, r1	; 0x806f50 <u8g2+0x6d>
_ZN4U8G212setDrawColorEh():
E:\Users\puzzole\Documents\Arduino\libraries\U8g2\src/U8g2lib.h:218
      { u8x8_RefreshDisplay(u8g2_GetU8x8(&u8g2)); }
    


    /* clib/u8g2.hvline.c */
    void setDrawColor(uint8_t color_index) { u8g2_SetDrawColor(&u8g2, color_index); }
    a5ae:	61 e0       	ldi	r22, 0x01	; 1
    a5b0:	87 ee       	ldi	r24, 0xE7	; 231
    a5b2:	9e e6       	ldi	r25, 0x6E	; 110
    a5b4:	0e 94 9b 35 	call	0x6b36	; 0x6b36 <u8g2_SetDrawColor>
u8g2_SetFontPosTop():
E:\Users\puzzole\Documents\Arduino\libraries\U8g2\src\clib/u8g2_font.c:1259
  return tmp;
}

void u8g2_SetFontPosTop(u8g2_t *u8g2)
{
  u8g2->font_calc_vref = u8g2_font_calc_vref_top;
    a5b8:	8a e0       	ldi	r24, 0x0A	; 10
    a5ba:	9e e2       	ldi	r25, 0x2E	; 46
    a5bc:	80 93 43 6f 	sts	0x6F43, r24	; 0x806f43 <u8g2+0x60>
    a5c0:	90 93 44 6f 	sts	0x6F44, r25	; 0x806f44 <u8g2+0x61>
u8g2_SetFontRefHeightExtendedText():
E:\Users\puzzole\Documents\Arduino\libraries\U8g2\src\clib/u8g2_font.c:1214
  u8g2_UpdateRefHeight(u8g2);
}

void u8g2_SetFontRefHeightExtendedText(u8g2_t *u8g2)
{
  u8g2->font_height_mode = U8G2_FONT_HEIGHT_MODE_XTEXT;
    a5c4:	11 e0       	ldi	r17, 0x01	; 1
    a5c6:	10 93 6c 6f 	sts	0x6F6C, r17	; 0x806f6c <u8g2+0x89>
E:\Users\puzzole\Documents\Arduino\libraries\U8g2\src\clib/u8g2_font.c:1215
  u8g2_UpdateRefHeight(u8g2);
    a5ca:	87 ee       	ldi	r24, 0xE7	; 231
    a5cc:	9e e6       	ldi	r25, 0x6E	; 110
    a5ce:	0e 94 17 37 	call	0x6e2e	; 0x6e2e <u8g2_UpdateRefHeight>
u8g2_SetFontDirection():
E:\Users\puzzole\Documents\Arduino\libraries\U8g2\src\clib/u8g2_font.c:1537


void u8g2_SetFontDirection(u8g2_t *u8g2, uint8_t dir)
{
#ifdef U8G2_WITH_FONT_ROTATION  
  u8g2->font_decode.dir = dir;
    a5d2:	10 92 53 6f 	sts	0x6F53, r1	; 0x806f53 <u8g2+0x70>
setup_draw():
C:\Users\dax\Google Drive\GitLocalRepositories\K197Display/UImanager.cpp:123
    DebugOut.print(F("/"));
    DebugOut.print(u8g2.getDescent());
    DebugOut.print(F("/"));
    DebugOut.println(u8g2.getMaxCharHeight());
  */
  dxUtil.checkFreeStack();
    a5d6:	0e 94 12 2c 	call	0x5824	; 0x5824 <dxUtilClass::checkFreeStack() [clone .constprop.157]>
_ZN4U8G210sendBufferEv():
E:\Users\puzzole\Documents\Arduino\libraries\U8g2\src/U8g2lib.h:187
    u8g2_uint_t getDisplayHeight(void) { return u8g2_GetDisplayHeight(&u8g2); }
    u8g2_uint_t getDisplayWidth(void) { return u8g2_GetDisplayWidth(&u8g2); }

    
    /* u8g2_buffer.c */
    void sendBuffer(void) { u8g2_SendBuffer(&u8g2); }
    a5da:	0e 94 7c 3b 	call	0x76f8	; 0x76f8 <u8g2_SendBuffer.constprop.149>
_ZN13MenuInputBool8setValueEb():
C:\Users\dax\Google Drive\GitLocalRepositories\K197Display/UImenu.h:285
      : UIMenuButtonItem(height, text){};
  /*!
     @brief  set the value for this item
     @param newValue the new value that will be assigned to the item
  */
  void setValue(bool newValue) { value = newValue; };
    a5de:	10 93 bc 6e 	sts	0x6EBC, r17	; 0x806ebc <additionalModes+0x6>
    a5e2:	10 93 b5 6e 	sts	0x6EB5, r17	; 0x806eb5 <reassignStoRcl+0x6>
setupMenus():
C:\Users\dax\Google Drive\GitLocalRepositories\K197Display/UImanager.cpp:720
   menu can be displayed.
*/
void UImanager::setupMenus() {
  additionalModes.setValue(true);
  reassignStoRcl.setValue(true);
  UImainMenu.items = mainMenuItems;
    a5e6:	87 e1       	ldi	r24, 0x17	; 23
    a5e8:	90 e6       	ldi	r25, 0x60	; 96
    a5ea:	80 93 8d 6f 	sts	0x6F8D, r24	; 0x806f8d <UImainMenu>
    a5ee:	90 93 8e 6f 	sts	0x6F8E, r25	; 0x806f8e <UImainMenu+0x1>
C:\Users\dax\Google Drive\GitLocalRepositories\K197Display/UImanager.cpp:721
  UImainMenu.num_items = sizeof(mainMenuItems) / sizeof(UImenuItem *);
    a5f2:	8a e0       	ldi	r24, 0x0A	; 10
    a5f4:	80 93 8f 6f 	sts	0x6F8F, r24	; 0x806f8f <UImainMenu+0x2>
C:\Users\dax\Google Drive\GitLocalRepositories\K197Display/UImanager.cpp:722
  UImainMenu.selectFirstItem();
    a5f8:	8d e8       	ldi	r24, 0x8D	; 141
    a5fa:	9f e6       	ldi	r25, 0x6F	; 111
    a5fc:	0e 94 5e 3c 	call	0x78bc	; 0x78bc <UImenu::selectFirstItem()>
_ZN13MenuInputByte8setValueEh():
C:\Users\dax\Google Drive\GitLocalRepositories\K197Display/UImenu.h:348
  };
  /*!
     @brief  set the value for this item
     @param newValue the new value that will be assigned to the item
  */
  void setValue(byte newValue) { value = newValue; };
    a600:	10 92 7a 6e 	sts	0x6E7A, r1	; 0x806e7a <logSkip+0x6>
_ZN13MenuInputBool8setValueEb():
C:\Users\dax\Google Drive\GitLocalRepositories\K197Display/UImenu.h:285
      : UIMenuButtonItem(height, text){};
  /*!
     @brief  set the value for this item
     @param newValue the new value that will be assigned to the item
  */
  void setValue(bool newValue) { value = newValue; };
    a604:	10 92 73 6e 	sts	0x6E73, r1	; 0x806e73 <logSplitUnit+0x6>
    a608:	10 93 6c 6e 	sts	0x6E6C, r17	; 0x806e6c <logTimestamp+0x6>
    a60c:	10 93 65 6e 	sts	0x6E65, r17	; 0x806e65 <logTamb+0x6>
_ZN13MenuInputByte8setValueEh():
C:\Users\dax\Google Drive\GitLocalRepositories\K197Display/UImenu.h:348
  };
  /*!
     @brief  set the value for this item
     @param newValue the new value that will be assigned to the item
  */
  void setValue(byte newValue) { value = newValue; };
    a610:	80 91 ab 6f 	lds	r24, 0x6FAB	; 0x806fab <k197dev+0x15>
    a614:	80 93 51 6e 	sts	0x6E51, r24	; 0x806e51 <logStatSamples+0x6>
setupMenus():
C:\Users\dax\Google Drive\GitLocalRepositories\K197Display/UImanager.cpp:729
  logSkip.setValue(0);
  logSplitUnit.setValue(false);
  logTimestamp.setValue(true);
  logTamb.setValue(true);
  logStatSamples.setValue(k197dev.getNsamples());
  UIlogMenu.items = logMenuItems;
    a618:	81 e0       	ldi	r24, 0x01	; 1
    a61a:	90 e6       	ldi	r25, 0x60	; 96
    a61c:	80 93 82 6f 	sts	0x6F82, r24	; 0x806f82 <UIlogMenu>
    a620:	90 93 83 6f 	sts	0x6F83, r25	; 0x806f83 <UIlogMenu+0x1>
C:\Users\dax\Google Drive\GitLocalRepositories\K197Display/UImanager.cpp:730
  UIlogMenu.num_items = sizeof(logMenuItems) / sizeof(UImenuItem *);
    a624:	8b e0       	ldi	r24, 0x0B	; 11
    a626:	80 93 84 6f 	sts	0x6F84, r24	; 0x806f84 <UIlogMenu+0x2>
C:\Users\dax\Google Drive\GitLocalRepositories\K197Display/UImanager.cpp:731
  UIlogMenu.selectFirstItem();
    a62a:	82 e8       	ldi	r24, 0x82	; 130
    a62c:	9f e6       	ldi	r25, 0x6F	; 111
    a62e:	0e 94 5e 3c 	call	0x78bc	; 0x78bc <UImenu::selectFirstItem()>
setup():
C:\Users\dax\Google Drive\GitLocalRepositories\K197Display/K197Display.ino:340

  k197dev.setup();

  uiman.setup();
  u8g2log.println(F("K197Display"));
    a632:	63 ed       	ldi	r22, 0xD3	; 211
    a634:	75 e0       	ldi	r23, 0x05	; 5
    a636:	8f ec       	ldi	r24, 0xCF	; 207
    a638:	9e e6       	ldi	r25, 0x6E	; 110
    a63a:	0e 94 f8 43 	call	0x87f0	; 0x87f0 <Print::println(__FlashStringHelper const*)>
_ZN9debugUtil7useOledEb():
C:\Users\dax\Google Drive\GitLocalRepositories\K197Display/debugUtil.h:111
     Note that this is automatically done when any object of class UImanager is
     initialized with UImanager::begin()

     @param oled enable oled output if true, disable if false
  */
  void useOled(bool oled) { use_oled = oled; };
    a63e:	10 93 4a 66 	sts	0x664A, r17	; 0x80664a <DebugOut+0x5>
printResetFlags():
C:\Users\dax\Google Drive\GitLocalRepositories\K197Display/dxUtil.cpp:64

    Very useful during test/verification/troubleshooting to know what caused a
   restart of the micro...
*/
void dxUtilClass::printResetFlags() {
  if (reset_flags & RSTCTRL_UPDIRF_bm) {
    a642:	80 91 39 60 	lds	r24, 0x6039	; 0x806039 <dxUtil+0x2>
    a646:	85 ff       	sbrs	r24, 5
    a648:	06 c0       	rjmp	.+12     	; 0xa656 <main+0x720>
C:\Users\dax\Google Drive\GitLocalRepositories\K197Display/dxUtil.cpp:65
    DebugOut.println(F("UPDI reset (upload)"));
    a64a:	64 e9       	ldi	r22, 0x94	; 148
    a64c:	75 e0       	ldi	r23, 0x05	; 5
    a64e:	85 e4       	ldi	r24, 0x45	; 69
    a650:	96 e6       	ldi	r25, 0x66	; 102
    a652:	0e 94 f8 43 	call	0x87f0	; 0x87f0 <Print::println(__FlashStringHelper const*)>
C:\Users\dax\Google Drive\GitLocalRepositories\K197Display/dxUtil.cpp:67
  }
  if (reset_flags & RSTCTRL_WDRF_bm) {
    a656:	80 91 39 60 	lds	r24, 0x6039	; 0x806039 <dxUtil+0x2>
    a65a:	83 ff       	sbrs	r24, 3
    a65c:	06 c0       	rjmp	.+12     	; 0xa66a <main+0x734>
C:\Users\dax\Google Drive\GitLocalRepositories\K197Display/dxUtil.cpp:68
    DebugOut.println(F("WDT reset"));
    a65e:	6a e8       	ldi	r22, 0x8A	; 138
    a660:	75 e0       	ldi	r23, 0x05	; 5
    a662:	85 e4       	ldi	r24, 0x45	; 69
    a664:	96 e6       	ldi	r25, 0x66	; 102
    a666:	0e 94 f8 43 	call	0x87f0	; 0x87f0 <Print::println(__FlashStringHelper const*)>
C:\Users\dax\Google Drive\GitLocalRepositories\K197Display/dxUtil.cpp:70
  }
  if (reset_flags & RSTCTRL_SWRF_bm) {
    a66a:	80 91 39 60 	lds	r24, 0x6039	; 0x806039 <dxUtil+0x2>
    a66e:	84 ff       	sbrs	r24, 4
    a670:	06 c0       	rjmp	.+12     	; 0xa67e <main+0x748>
C:\Users\dax\Google Drive\GitLocalRepositories\K197Display/dxUtil.cpp:71
    DebugOut.println(F("SW reset"));
    a672:	61 e8       	ldi	r22, 0x81	; 129
    a674:	75 e0       	ldi	r23, 0x05	; 5
    a676:	85 e4       	ldi	r24, 0x45	; 69
    a678:	96 e6       	ldi	r25, 0x66	; 102
    a67a:	0e 94 f8 43 	call	0x87f0	; 0x87f0 <Print::println(__FlashStringHelper const*)>
C:\Users\dax\Google Drive\GitLocalRepositories\K197Display/dxUtil.cpp:73
  }
  if (reset_flags & RSTCTRL_EXTRF_bm) {
    a67e:	80 91 39 60 	lds	r24, 0x6039	; 0x806039 <dxUtil+0x2>
    a682:	82 ff       	sbrs	r24, 2
    a684:	06 c0       	rjmp	.+12     	; 0xa692 <main+0x75c>
C:\Users\dax\Google Drive\GitLocalRepositories\K197Display/dxUtil.cpp:74
    DebugOut.println(F("HW Reset"));
    a686:	68 e7       	ldi	r22, 0x78	; 120
    a688:	75 e0       	ldi	r23, 0x05	; 5
    a68a:	85 e4       	ldi	r24, 0x45	; 69
    a68c:	96 e6       	ldi	r25, 0x66	; 102
    a68e:	0e 94 f8 43 	call	0x87f0	; 0x87f0 <Print::println(__FlashStringHelper const*)>
C:\Users\dax\Google Drive\GitLocalRepositories\K197Display/dxUtil.cpp:76
  }
  if (reset_flags & RSTCTRL_BORF_bm) {
    a692:	80 91 39 60 	lds	r24, 0x6039	; 0x806039 <dxUtil+0x2>
    a696:	81 ff       	sbrs	r24, 1
    a698:	06 c0       	rjmp	.+12     	; 0xa6a6 <main+0x770>
C:\Users\dax\Google Drive\GitLocalRepositories\K197Display/dxUtil.cpp:77
    DebugOut.println(F("Brownout Reset"));
    a69a:	69 e6       	ldi	r22, 0x69	; 105
    a69c:	75 e0       	ldi	r23, 0x05	; 5
    a69e:	85 e4       	ldi	r24, 0x45	; 69
    a6a0:	96 e6       	ldi	r25, 0x66	; 102
    a6a2:	0e 94 f8 43 	call	0x87f0	; 0x87f0 <Print::println(__FlashStringHelper const*)>
C:\Users\dax\Google Drive\GitLocalRepositories\K197Display/dxUtil.cpp:79
  }
  if (reset_flags & RSTCTRL_PORF_bm) {
    a6a6:	80 91 39 60 	lds	r24, 0x6039	; 0x806039 <dxUtil+0x2>
    a6aa:	80 ff       	sbrs	r24, 0
    a6ac:	06 c0       	rjmp	.+12     	; 0xa6ba <main+0x784>
C:\Users\dax\Google Drive\GitLocalRepositories\K197Display/dxUtil.cpp:80
    DebugOut.println(F("Power on reset"));
    a6ae:	6a e5       	ldi	r22, 0x5A	; 90
    a6b0:	75 e0       	ldi	r23, 0x05	; 5
    a6b2:	85 e4       	ldi	r24, 0x45	; 69
    a6b4:	96 e6       	ldi	r25, 0x66	; 102
    a6b6:	0e 94 f8 43 	call	0x87f0	; 0x87f0 <Print::println(__FlashStringHelper const*)>
setup():
C:\Users\dax\Google Drive\GitLocalRepositories\K197Display/K197Display.ino:344
  DebugOut.useOled(true);

  dxUtil.printResetFlags();
  dxUtil.checkVoltages(false);
    a6ba:	0e 94 a5 45 	call	0x8b4a	; 0x8b4a <dxUtilClass::checkVoltages(bool) [clone .constprop.124]>
C:\Users\dax\Google Drive\GitLocalRepositories\K197Display/K197Display.ino:345
  DebugOut.print(F(", "));
    a6be:	60 ed       	ldi	r22, 0xD0	; 208
    a6c0:	75 e0       	ldi	r23, 0x05	; 5
    a6c2:	85 e4       	ldi	r24, 0x45	; 69
    a6c4:	96 e6       	ldi	r25, 0x66	; 102
    a6c6:	0e 94 1a 2e 	call	0x5c34	; 0x5c34 <Print::print(__FlashStringHelper const*)>
pollMVIOstatus():
C:\Users\dax\Google Drive\GitLocalRepositories\K197Display/dxUtil.cpp:92

   @return true if  MVIO within usable range, false otherwise
*/
bool dxUtilClass::pollMVIOstatus() {
  // Polling the VDDIO2S bit
  if (MVIO.STATUS & MVIO_VDDIO2S_bm) { // MVIO within usable range
    a6ca:	20 91 c2 00 	lds	r18, 0x00C2	; 0x8000c2 <__TEXT_REGION_LENGTH__+0x7f00c2>
    a6ce:	80 91 37 60 	lds	r24, 0x6037	; 0x806037 <dxUtil>
    a6d2:	90 91 38 60 	lds	r25, 0x6038	; 0x806038 <dxUtil+0x1>
    a6d6:	20 ff       	sbrs	r18, 0
    a6d8:	64 c0       	rjmp	.+200    	; 0xa7a2 <main+0x86c>
C:\Users\dax\Google Drive\GitLocalRepositories\K197Display/dxUtil.cpp:93
    if (MVIO_status != MVIO_ok) {
    a6da:	01 97       	sbiw	r24, 0x01	; 1
    a6dc:	61 f0       	breq	.+24     	; 0xa6f6 <main+0x7c0>
C:\Users\dax\Google Drive\GitLocalRepositories\K197Display/dxUtil.cpp:94
      DebugOut.println(F("MVIO ok"));
    a6de:	65 eb       	ldi	r22, 0xB5	; 181
    a6e0:	75 e0       	ldi	r23, 0x05	; 5
    a6e2:	85 e4       	ldi	r24, 0x45	; 69
    a6e4:	96 e6       	ldi	r25, 0x66	; 102
    a6e6:	0e 94 f8 43 	call	0x87f0	; 0x87f0 <Print::println(__FlashStringHelper const*)>
C:\Users\dax\Google Drive\GitLocalRepositories\K197Display/dxUtil.cpp:95
      MVIO_status = MVIO_ok;
    a6ea:	81 e0       	ldi	r24, 0x01	; 1
    a6ec:	90 e0       	ldi	r25, 0x00	; 0
    a6ee:	80 93 37 60 	sts	0x6037, r24	; 0x806037 <dxUtil>
    a6f2:	90 93 38 60 	sts	0x6038, r25	; 0x806038 <dxUtil+0x1>
setup():
C:\Users\dax\Google Drive\GitLocalRepositories\K197Display/K197Display.ino:347
  dxUtil.pollMVIOstatus();
  dxUtil.checkTemperature();
    a6f6:	0e 94 89 45 	call	0x8b12	; 0x8b12 <dxUtilClass::checkTemperature(bool) [clone .constprop.129]>
C:\Users\dax\Google Drive\GitLocalRepositories\K197Display/K197Display.ino:349

  if (BTman.isPresent()) {
    a6fa:	80 91 c0 6f 	lds	r24, 0x6FC0	; 0x806fc0 <BTman>
C:\Users\dax\Google Drive\GitLocalRepositories\K197Display/K197Display.ino:350
    DebugOut.println(F("BT is on"));
    a6fe:	67 ec       	ldi	r22, 0xC7	; 199
    a700:	75 e0       	ldi	r23, 0x05	; 5
C:\Users\dax\Google Drive\GitLocalRepositories\K197Display/K197Display.ino:349
  dxUtil.checkVoltages(false);
  DebugOut.print(F(", "));
  dxUtil.pollMVIOstatus();
  dxUtil.checkTemperature();

  if (BTman.isPresent()) {
    a702:	81 11       	cpse	r24, r1
    a704:	02 c0       	rjmp	.+4      	; 0xa70a <main+0x7d4>
C:\Users\dax\Google Drive\GitLocalRepositories\K197Display/K197Display.ino:352
    DebugOut.println(F("BT is on"));
  } else {
    DebugOut.println(F("BT is off"));
    a706:	6d eb       	ldi	r22, 0xBD	; 189
    a708:	75 e0       	ldi	r23, 0x05	; 5
    a70a:	85 e4       	ldi	r24, 0x45	; 69
    a70c:	96 e6       	ldi	r25, 0x66	; 102
    a70e:	0e 94 f8 43 	call	0x87f0	; 0x87f0 <Print::println(__FlashStringHelper const*)>
C:\Users\dax\Google Drive\GitLocalRepositories\K197Display/K197Display.ino:355
  }

  delay(100);
    a712:	64 e6       	ldi	r22, 0x64	; 100
    a714:	70 e0       	ldi	r23, 0x00	; 0
    a716:	80 e0       	ldi	r24, 0x00	; 0
    a718:	90 e0       	ldi	r25, 0x00	; 0
    a71a:	0e 94 f6 30 	call	0x61ec	; 0x61ec <delay>
C:\Users\dax\Google Drive\GitLocalRepositories\K197Display/K197Display.ino:357

  dxUtil.checkFreeStack();
    a71e:	0e 94 12 2c 	call	0x5824	; 0x5824 <dxUtilClass::checkFreeStack() [clone .constprop.157]>
C:\Users\dax\Google Drive\GitLocalRepositories\K197Display/K197Display.ino:363

  // Setup watchdog
  _PROTECTED_WRITE(
      WDT.CTRLA,
      WDT_WINDOW_8CLK_gc |
          WDT_PERIOD_8KCLK_gc); // enable the WDT, 8s timeout, minimum window.
    a722:	88 ed       	ldi	r24, 0xD8	; 216
    a724:	2b e1       	ldi	r18, 0x1B	; 27
    a726:	30 e0       	ldi	r19, 0x00	; 0
    a728:	84 bf       	out	0x34, r24	; 52
    a72a:	20 93 00 01 	sts	0x0100, r18	; 0x800100 <__TEXT_REGION_LENGTH__+0x7f0100>
    a72e:	fe 01       	movw	r30, r28
    a730:	73 96       	adiw	r30, 0x13	; 19
    a732:	ed 8b       	std	Y+21, r30	; 0x15
    a734:	fe 8b       	std	Y+22, r31	; 0x16
_ZN4U8G29setCursorEjj():
E:\Users\puzzole\Documents\Arduino\libraries\U8g2\src/U8g2lib.h:386
     /* LiquidCrystal compatible functions */
    void home(void) { tx = 0; ty = 0;  u8x8_utf8_init(u8g2_GetU8x8(&u8g2)); }
    void clear(void) { home(); clearDisplay(); clearBuffer();  }
    void noDisplay(void) { u8g2_SetPowerSave(&u8g2, 1); }
    void display(void) { u8g2_SetPowerSave(&u8g2, 0); }
    void setCursor(u8g2_uint_t x, u8g2_uint_t y) { tx = x; ty = y; }
    a736:	65 e0       	ldi	r22, 0x05	; 5
    a738:	26 2e       	mov	r2, r22
    a73a:	31 2c       	mov	r3, r1
loop():
C:\Users\dax\Google Drive\GitLocalRepositories\K197Display/K197Display.ino:377

/*!
      @brief Arduino loop function
*/
void loop() {
  looptimer=micros();
    a73c:	0e 94 b1 30 	call	0x6162	; 0x6162 <micros>
    a740:	60 93 01 64 	sts	0x6401, r22	; 0x806401 <looptimer>
    a744:	70 93 02 64 	sts	0x6402, r23	; 0x806402 <looptimer+0x1>
    a748:	80 93 03 64 	sts	0x6403, r24	; 0x806403 <looptimer+0x2>
    a74c:	90 93 04 64 	sts	0x6404, r25	; 0x806404 <looptimer+0x3>
C:\Users\dax\Google Drive\GitLocalRepositories\K197Display/K197Display.ino:379
  PROFILE_start(DebugOut.PROFILE_LOOP);
  if (Serial.available()) {
    a750:	81 e4       	ldi	r24, 0x41	; 65
    a752:	94 e6       	ldi	r25, 0x64	; 100
    a754:	0e 94 f1 2e 	call	0x5de2	; 0x5de2 <UartClass::available()>
    a758:	89 2b       	or	r24, r25
    a75a:	09 f4       	brne	.+2      	; 0xa75e <main+0x828>
    a75c:	61 c0       	rjmp	.+194    	; 0xa820 <main+0x8ea>
handleSerial():
C:\Users\dax\Google Drive\GitLocalRepositories\K197Display/K197Display.ino:160
   Serial timeout if a command is not complete, affecting the display. Terminals
   sending complete lines are therefore preferred (e.g. the Serial Monitor in
   the Arduibno GUI)
*/
void handleSerial() { // Here we want to use Serial, rather than DebugOut
  dxUtil.checkFreeStack();
    a75e:	0e 94 12 2c 	call	0x5824	; 0x5824 <dxUtilClass::checkFreeStack() [clone .constprop.157]>
readBytesUntil():
    a762:	8d eb       	ldi	r24, 0xBD	; 189
    a764:	93 e6       	ldi	r25, 0x63	; 99
    a766:	0e 94 8e 2e 	call	0x5d1c	; 0x5d1c <Stream::readBytesUntil(char, char*, unsigned int) [clone .part.0] [clone .constprop.92]>
handleSerial():
C:\Users\dax\Google Drive\GitLocalRepositories\K197Display/K197Display.ino:163
  static char buf[INPUT_BUFFER_SIZE];
  size_t i = Serial.readBytesUntil(CH_SPACE, buf, INPUT_BUFFER_SIZE);
  buf[i] = 0;
    a76a:	fc 01       	movw	r30, r24
    a76c:	e3 54       	subi	r30, 0x43	; 67
    a76e:	fc 49       	sbci	r31, 0x9C	; 156
    a770:	10 82       	st	Z, r1
C:\Users\dax\Google Drive\GitLocalRepositories\K197Display/K197Display.ino:164
  if (i == 0) { // no characters read
    a772:	89 2b       	or	r24, r25
    a774:	09 f4       	brne	.+2      	; 0xa778 <main+0x842>
    a776:	54 c0       	rjmp	.+168    	; 0xa820 <main+0x8ea>
C:\Users\dax\Google Drive\GitLocalRepositories\K197Display/K197Display.ino:168
    return;
  }
  // Check help
  if (strcasecmp_P(buf, PSTR("?")) == 0) {
    a778:	63 e9       	ldi	r22, 0x93	; 147
    a77a:	76 e0       	ldi	r23, 0x06	; 6
    a77c:	8d eb       	ldi	r24, 0xBD	; 189
    a77e:	93 e6       	ldi	r25, 0x63	; 99
    a780:	0e 94 80 60 	call	0xc100	; 0xc100 <strcasecmp_P>
    a784:	89 2b       	or	r24, r25
    a786:	d9 f4       	brne	.+54     	; 0xa7be <main+0x888>
printError():
C:\Users\dax\Google Drive\GitLocalRepositories\K197Display/K197Display.ino:121
*/
void printError(
    const char *buf) { // Here we want to use Serial, rather than DebugOut
  Serial.print(F("Invalid command: "));
  Serial.println(buf);
  printHelp();
    a788:	0e 94 69 48 	call	0x90d2	; 0x90d2 <printHelp()>
    a78c:	49 c0       	rjmp	.+146    	; 0xa820 <main+0x8ea>
u8g2_NextPage():
E:\Users\puzzole\Documents\Arduino\libraries\U8g2\src\clib/u8g2_buffer.c:127
    return 0;
  }
  if ( u8g2->is_auto_page_clear )
    a78e:	80 91 72 6f 	lds	r24, 0x6F72	; 0x806f72 <u8g2+0x8f>
    a792:	88 23       	and	r24, r24
    a794:	21 f0       	breq	.+8      	; 0xa79e <main+0x868>
E:\Users\puzzole\Documents\Arduino\libraries\U8g2\src\clib/u8g2_buffer.c:129
  {
    u8g2_ClearBuffer(u8g2);
    a796:	87 ee       	ldi	r24, 0xE7	; 231
    a798:	9e e6       	ldi	r25, 0x6E	; 110
    a79a:	0e 94 51 42 	call	0x84a2	; 0x84a2 <u8g2_ClearBuffer>
E:\Users\puzzole\Documents\Arduino\libraries\U8g2\src\clib/u8g2_buffer.c:131
  }
  u8g2_SetBufferCurrTileRow(u8g2, row);
    a79e:	81 2f       	mov	r24, r17
    a7a0:	b1 ce       	rjmp	.-670    	; 0xa504 <main+0x5ce>
pollMVIOstatus():
C:\Users\dax\Google Drive\GitLocalRepositories\K197Display/dxUtil.cpp:99
      return true;
    }
  } else { // MVIO outside usable range
    if (MVIO_status != MVIO_belowRange) {
    a7a2:	89 2b       	or	r24, r25
    a7a4:	09 f4       	brne	.+2      	; 0xa7a8 <main+0x872>
    a7a6:	a7 cf       	rjmp	.-178    	; 0xa6f6 <main+0x7c0>
C:\Users\dax\Google Drive\GitLocalRepositories\K197Display/dxUtil.cpp:100
      DebugOut.println(F("MVIO not ok!"));
    a7a8:	68 ea       	ldi	r22, 0xA8	; 168
    a7aa:	75 e0       	ldi	r23, 0x05	; 5
    a7ac:	85 e4       	ldi	r24, 0x45	; 69
    a7ae:	96 e6       	ldi	r25, 0x66	; 102
    a7b0:	0e 94 f8 43 	call	0x87f0	; 0x87f0 <Print::println(__FlashStringHelper const*)>
C:\Users\dax\Google Drive\GitLocalRepositories\K197Display/dxUtil.cpp:101
      MVIO_status = MVIO_belowRange;
    a7b4:	10 92 37 60 	sts	0x6037, r1	; 0x806037 <dxUtil>
    a7b8:	10 92 38 60 	sts	0x6038, r1	; 0x806038 <dxUtil+0x1>
    a7bc:	9c cf       	rjmp	.-200    	; 0xa6f6 <main+0x7c0>
handleSerial():
C:\Users\dax\Google Drive\GitLocalRepositories\K197Display/K197Display.ino:172
  // Check help
  if (strcasecmp_P(buf, PSTR("?")) == 0) {
    printHelp();
    return;
  }
  if (strcasecmp_P(buf, PSTR("wdt")) == 0) {
    a7be:	6f e8       	ldi	r22, 0x8F	; 143
    a7c0:	76 e0       	ldi	r23, 0x06	; 6
    a7c2:	8d eb       	ldi	r24, 0xBD	; 189
    a7c4:	93 e6       	ldi	r25, 0x63	; 99
    a7c6:	0e 94 80 60 	call	0xc100	; 0xc100 <strcasecmp_P>
    a7ca:	89 2b       	or	r24, r25
    a7cc:	91 f4       	brne	.+36     	; 0xa7f2 <main+0x8bc>
C:\Users\dax\Google Drive\GitLocalRepositories\K197Display/K197Display.ino:173
    Serial.println(F("Testing watchdog reset"));
    a7ce:	68 e7       	ldi	r22, 0x78	; 120
    a7d0:	76 e0       	ldi	r23, 0x06	; 6
    a7d2:	81 e4       	ldi	r24, 0x41	; 65
    a7d4:	94 e6       	ldi	r25, 0x64	; 100
    a7d6:	0e 94 f8 43 	call	0x87f0	; 0x87f0 <Print::println(__FlashStringHelper const*)>
C:\Users\dax\Google Drive\GitLocalRepositories\K197Display/K197Display.ino:174
    Serial.flush();
    a7da:	81 e4       	ldi	r24, 0x41	; 65
    a7dc:	94 e6       	ldi	r25, 0x64	; 100
    a7de:	0e 94 8d 30 	call	0x611a	; 0x611a <UartClass::flush()>
C:\Users\dax\Google Drive\GitLocalRepositories\K197Display/K197Display.ino:177
    _PROTECTED_WRITE(WDT.CTRLA,
                     WDT_WINDOW_8CLK_gc |
                         WDT_PERIOD_8CLK_gc); // enable the WDT, minimum
    a7e2:	88 ed       	ldi	r24, 0xD8	; 216
    a7e4:	21 e1       	ldi	r18, 0x11	; 17
    a7e6:	30 e0       	ldi	r19, 0x00	; 0
    a7e8:	84 bf       	out	0x34, r24	; 52
    a7ea:	20 93 00 01 	sts	0x0100, r18	; 0x800100 <__TEXT_REGION_LENGTH__+0x7f0100>
C:\Users\dax\Google Drive\GitLocalRepositories\K197Display/K197Display.ino:180
                                              // timeout, minimum window.
    while (1)
      __asm__ __volatile__("wdr" ::);
    a7ee:	a8 95       	wdr
    a7f0:	fe cf       	rjmp	.-4      	; 0xa7ee <main+0x8b8>
C:\Users\dax\Google Drive\GitLocalRepositories\K197Display/K197Display.ino:181
  } else if ((strcasecmp_P(buf, PSTR("swr")) == 0)) {
    a7f2:	64 e7       	ldi	r22, 0x74	; 116
    a7f4:	76 e0       	ldi	r23, 0x06	; 6
    a7f6:	8d eb       	ldi	r24, 0xBD	; 189
    a7f8:	93 e6       	ldi	r25, 0x63	; 99
    a7fa:	0e 94 80 60 	call	0xc100	; 0xc100 <strcasecmp_P>
    a7fe:	89 2b       	or	r24, r25
    a800:	69 f5       	brne	.+90     	; 0xa85c <main+0x926>
C:\Users\dax\Google Drive\GitLocalRepositories\K197Display/K197Display.ino:182
    Serial.println(F("Testing SW reset"));
    a802:	63 e6       	ldi	r22, 0x63	; 99
    a804:	76 e0       	ldi	r23, 0x06	; 6
    a806:	81 e4       	ldi	r24, 0x41	; 65
    a808:	94 e6       	ldi	r25, 0x64	; 100
    a80a:	0e 94 f8 43 	call	0x87f0	; 0x87f0 <Print::println(__FlashStringHelper const*)>
C:\Users\dax\Google Drive\GitLocalRepositories\K197Display/K197Display.ino:183
    Serial.flush();
    a80e:	81 e4       	ldi	r24, 0x41	; 65
    a810:	94 e6       	ldi	r25, 0x64	; 100
    a812:	0e 94 8d 30 	call	0x611a	; 0x611a <UartClass::flush()>
C:\Users\dax\Google Drive\GitLocalRepositories\K197Display/K197Display.ino:184
    _PROTECTED_WRITE(RSTCTRL.SWRR, 1);
    a816:	88 ed       	ldi	r24, 0xD8	; 216
    a818:	91 e0       	ldi	r25, 0x01	; 1
    a81a:	84 bf       	out	0x34, r24	; 52
    a81c:	90 93 41 00 	sts	0x0041, r25	; 0x800041 <__TEXT_REGION_LENGTH__+0x7f0041>
loop():
C:\Users\dax\Google Drive\GitLocalRepositories\K197Display/K197Display.ino:383
  PROFILE_start(DebugOut.PROFILE_LOOP);
  if (Serial.available()) {
    handleSerial();
  }

  if (k197dev.hasNewData()) {
    a820:	e0 9b       	sbis	0x1c, 0	; 28
    a822:	21 c6       	rjmp	.+3138   	; 0xb466 <main+0x1530>
getNewData():
C:\Users\dax\Google Drive\GitLocalRepositories\K197Display/SPIdevice.cpp:171
   room for at least 9 elements!
      @return the number of bytes copied into data.
*/
byte SPIdevice::getNewData(byte *data) {
  byte returnvalue;
  while (!hasNewData()) {
    a824:	e0 9b       	sbis	0x1c, 0	; 28
    a826:	fe cf       	rjmp	.-4      	; 0xa824 <main+0x8ee>
C:\Users\dax\Google Drive\GitLocalRepositories\K197Display/SPIdevice.cpp:174
    ;
  }
  memcpy(data, (void *)spiBuffer, PACKET);
    a828:	82 e1       	ldi	r24, 0x12	; 18
    a82a:	eb ed       	ldi	r30, 0xDB	; 219
    a82c:	f3 e6       	ldi	r31, 0x63	; 99
    a82e:	af ee       	ldi	r26, 0xEF	; 239
    a830:	b3 e6       	ldi	r27, 0x63	; 99
    a832:	01 90       	ld	r0, Z+
    a834:	0d 92       	st	X+, r0
    a836:	8a 95       	dec	r24
    a838:	e1 f7       	brne	.-8      	; 0xa832 <main+0x8fc>
C:\Users\dax\Google Drive\GitLocalRepositories\K197Display/SPIdevice.cpp:175
  SPIflags &= (~SPIdone);
    a83a:	e0 98       	cbi	0x1c, 0	; 28
C:\Users\dax\Google Drive\GitLocalRepositories\K197Display/SPIdevice.cpp:176
  returnvalue = nbyte;
    a83c:	9d b2       	in	r9, 0x1d	; 29
C:\Users\dax\Google Drive\GitLocalRepositories\K197Display/SPIdevice.cpp:177
  nbyte = 0;
    a83e:	1d ba       	out	0x1d, r1	; 29
getNewReading():
C:\Users\dax\Google Drive\GitLocalRepositories\K197Display/K197device.cpp:130
   room for at least 9 elements!
      @return the number of bytes copied into data.
*/
byte K197device::getNewReading(byte *data) {
  byte n = getNewData(data);
  if (n != 9) {
    a840:	f9 e0       	ldi	r31, 0x09	; 9
    a842:	9f 12       	cpse	r9, r31
    a844:	b3 c0       	rjmp	.+358    	; 0xa9ac <main+0xa76>
C:\Users\dax\Google Drive\GitLocalRepositories\K197Display/K197device.cpp:135
    DebugOut.print(F("Warning, K197 n="));
    DebugOut.println(n);
  }
  if (n > 0)
    annunciators0 = data[0];
    a846:	80 91 ef 63 	lds	r24, 0x63EF	; 0x8063ef <DMMReading>
    a84a:	80 93 a4 6f 	sts	0x6FA4, r24	; 0x806fa4 <k197dev+0xe>
C:\Users\dax\Google Drive\GitLocalRepositories\K197Display/K197device.cpp:138
  else
    annunciators0 = 0x00;
  if (n > 7)
    a84e:	07 e0       	ldi	r16, 0x07	; 7
    a850:	09 15       	cp	r16, r9
    a852:	08 f4       	brcc	.+2      	; 0xa856 <main+0x920>
    a854:	c3 c0       	rjmp	.+390    	; 0xa9dc <main+0xaa6>
C:\Users\dax\Google Drive\GitLocalRepositories\K197Display/K197device.cpp:141
    annunciators7 = data[7];
  else
    annunciators7 = 0x00;
    a856:	10 92 a5 6f 	sts	0x6FA5, r1	; 0x806fa5 <k197dev+0xf>
    a85a:	c7 c0       	rjmp	.+398    	; 0xa9ea <main+0xab4>
handleSerial():
C:\Users\dax\Google Drive\GitLocalRepositories\K197Display/K197Display.ino:185
      __asm__ __volatile__("wdr" ::);
  } else if ((strcasecmp_P(buf, PSTR("swr")) == 0)) {
    Serial.println(F("Testing SW reset"));
    Serial.flush();
    _PROTECTED_WRITE(RSTCTRL.SWRR, 1);
  } else if ((strcasecmp_P(buf, PSTR("jmp0")) == 0)) {
    a85c:	6e e5       	ldi	r22, 0x5E	; 94
    a85e:	76 e0       	ldi	r23, 0x06	; 6
    a860:	8d eb       	ldi	r24, 0xBD	; 189
    a862:	93 e6       	ldi	r25, 0x63	; 99
    a864:	0e 94 80 60 	call	0xc100	; 0xc100 <strcasecmp_P>
    a868:	89 2b       	or	r24, r25
    a86a:	69 f4       	brne	.+26     	; 0xa886 <main+0x950>
C:\Users\dax\Google Drive\GitLocalRepositories\K197Display/K197Display.ino:186
    Serial.println(F("Testing dirty reset"));
    a86c:	6a e4       	ldi	r22, 0x4A	; 74
    a86e:	76 e0       	ldi	r23, 0x06	; 6
    a870:	81 e4       	ldi	r24, 0x41	; 65
    a872:	94 e6       	ldi	r25, 0x64	; 100
    a874:	0e 94 f8 43 	call	0x87f0	; 0x87f0 <Print::println(__FlashStringHelper const*)>
C:\Users\dax\Google Drive\GitLocalRepositories\K197Display/K197Display.ino:187
    Serial.flush();
    a878:	81 e4       	ldi	r24, 0x41	; 65
    a87a:	94 e6       	ldi	r25, 0x64	; 100
    a87c:	0e 94 8d 30 	call	0x611a	; 0x611a <UartClass::flush()>
C:\Users\dax\Google Drive\GitLocalRepositories\K197Display/K197Display.ino:188
    asm volatile("jmp 0");
    a880:	0c 94 00 00 	jmp	0	; 0x0 <__TEXT_REGION_ORIGIN__>
    a884:	cd cf       	rjmp	.-102    	; 0xa820 <main+0x8ea>
C:\Users\dax\Google Drive\GitLocalRepositories\K197Display/K197Display.ino:189
  } else if ((strcasecmp_P(buf, PSTR("volt")) == 0)) {
    a886:	65 e4       	ldi	r22, 0x45	; 69
    a888:	76 e0       	ldi	r23, 0x06	; 6
    a88a:	8d eb       	ldi	r24, 0xBD	; 189
    a88c:	93 e6       	ldi	r25, 0x63	; 99
    a88e:	0e 94 80 60 	call	0xc100	; 0xc100 <strcasecmp_P>
    a892:	89 2b       	or	r24, r25
    a894:	59 f4       	brne	.+22     	; 0xa8ac <main+0x976>
C:\Users\dax\Google Drive\GitLocalRepositories\K197Display/K197Display.ino:191
    // Serial.println(F("Check voltages")); Serial.flush();
    dxUtil.checkVoltages(false);
    a896:	0e 94 a5 45 	call	0x8b4a	; 0x8b4a <dxUtilClass::checkVoltages(bool) [clone .constprop.124]>
C:\Users\dax\Google Drive\GitLocalRepositories\K197Display/K197Display.ino:192
    DebugOut.print(F(", "));
    a89a:	62 e4       	ldi	r22, 0x42	; 66
    a89c:	76 e0       	ldi	r23, 0x06	; 6
    a89e:	85 e4       	ldi	r24, 0x45	; 69
    a8a0:	96 e6       	ldi	r25, 0x66	; 102
    a8a2:	0e 94 1a 2e 	call	0x5c34	; 0x5c34 <Print::print(__FlashStringHelper const*)>
C:\Users\dax\Google Drive\GitLocalRepositories\K197Display/K197Display.ino:193
    dxUtil.checkTemperature();
    a8a6:	0e 94 89 45 	call	0x8b12	; 0x8b12 <dxUtilClass::checkTemperature(bool) [clone .constprop.129]>
    a8aa:	ba cf       	rjmp	.-140    	; 0xa820 <main+0x8ea>
C:\Users\dax\Google Drive\GitLocalRepositories\K197Display/K197Display.ino:194
  } else if ((strcasecmp_P(buf, PSTR("msg")) == 0)) {
    a8ac:	6e e3       	ldi	r22, 0x3E	; 62
    a8ae:	76 e0       	ldi	r23, 0x06	; 6
    a8b0:	8d eb       	ldi	r24, 0xBD	; 189
    a8b2:	93 e6       	ldi	r25, 0x63	; 99
    a8b4:	0e 94 80 60 	call	0xc100	; 0xc100 <strcasecmp_P>
    a8b8:	89 2b       	or	r24, r25
    a8ba:	59 f4       	brne	.+22     	; 0xa8d2 <main+0x99c>
C:\Users\dax\Google Drive\GitLocalRepositories\K197Display/K197Display.ino:196
    // Serial.println(F("MSG printout toggle")); Serial.flush();
    if (msg_printout)
    a8bc:	80 91 ee 63 	lds	r24, 0x63EE	; 0x8063ee <msg_printout>
    a8c0:	88 23       	and	r24, r24
    a8c2:	19 f0       	breq	.+6      	; 0xa8ca <main+0x994>
C:\Users\dax\Google Drive\GitLocalRepositories\K197Display/K197Display.ino:197
      msg_printout = false;
    a8c4:	10 92 ee 63 	sts	0x63EE, r1	; 0x8063ee <msg_printout>
    a8c8:	ab cf       	rjmp	.-170    	; 0xa820 <main+0x8ea>
C:\Users\dax\Google Drive\GitLocalRepositories\K197Display/K197Display.ino:199
    else
      msg_printout = true;
    a8ca:	81 e0       	ldi	r24, 0x01	; 1
    a8cc:	80 93 ee 63 	sts	0x63EE, r24	; 0x8063ee <msg_printout>
    a8d0:	a7 cf       	rjmp	.-178    	; 0xa820 <main+0x8ea>
C:\Users\dax\Google Drive\GitLocalRepositories\K197Display/K197Display.ino:200
  } else if ((strcasecmp_P(buf, PSTR("log")) == 0)) {
    a8d2:	6a e3       	ldi	r22, 0x3A	; 58
    a8d4:	76 e0       	ldi	r23, 0x06	; 6
    a8d6:	8d eb       	ldi	r24, 0xBD	; 189
    a8d8:	93 e6       	ldi	r25, 0x63	; 99
    a8da:	0e 94 80 60 	call	0xc100	; 0xc100 <strcasecmp_P>
    a8de:	89 2b       	or	r24, r25
    a8e0:	61 f4       	brne	.+24     	; 0xa8fa <main+0x9c4>
cmdLog():
C:\Users\dax\Google Drive\GitLocalRepositories\K197Display/K197Display.ino:149
}

/*!
      @brief toggle data logging
*/
void cmdLog() { uiman.setLogging(!uiman.isLogging()); }
    a8e2:	80 91 81 6e 	lds	r24, 0x6E81	; 0x806e81 <logEnable+0x6>
    a8e6:	91 e0       	ldi	r25, 0x01	; 1
    a8e8:	89 27       	eor	r24, r25
setLogging():
C:\Users\dax\Google Drive\GitLocalRepositories\K197Display/UImanager.cpp:700
/*!
      @brief  set data logging to Serial
      @param yesno true to enabl, false to disable
*/
void UImanager::setLogging(bool yesno) {
  if (!yesno)
    a8ea:	11 f4       	brne	.+4      	; 0xa8f0 <main+0x9ba>
C:\Users\dax\Google Drive\GitLocalRepositories\K197Display/UImanager.cpp:701
    logskip_counter = 0;
    a8ec:	10 92 81 6f 	sts	0x6F81, r1	; 0x806f81 <uiman+0x8>
_ZN13MenuInputBool8setValueEb():
C:\Users\dax\Google Drive\GitLocalRepositories\K197Display/UImenu.h:285
      : UIMenuButtonItem(height, text){};
  /*!
     @brief  set the value for this item
     @param newValue the new value that will be assigned to the item
  */
  void setValue(bool newValue) { value = newValue; };
    a8f0:	80 93 81 6e 	sts	0x6E81, r24	; 0x806e81 <logEnable+0x6>
setLogging():
C:\Users\dax\Google Drive\GitLocalRepositories\K197Display/UImanager.cpp:703
  logEnable.setValue(yesno);
  dxUtil.checkFreeStack();
    a8f4:	0e 94 12 2c 	call	0x5824	; 0x5824 <dxUtilClass::checkFreeStack() [clone .constprop.157]>
    a8f8:	93 cf       	rjmp	.-218    	; 0xa820 <main+0x8ea>
handleSerial():
C:\Users\dax\Google Drive\GitLocalRepositories\K197Display/K197Display.ino:202
      msg_printout = false;
    else
      msg_printout = true;
  } else if ((strcasecmp_P(buf, PSTR("log")) == 0)) {
    cmdLog();
  } else if ((strcasecmp_P(buf, PSTR("contrast")) == 0)) {
    a8fa:	61 e3       	ldi	r22, 0x31	; 49
    a8fc:	76 e0       	ldi	r23, 0x06	; 6
    a8fe:	8d eb       	ldi	r24, 0xBD	; 189
    a900:	93 e6       	ldi	r25, 0x63	; 99
    a902:	0e 94 80 60 	call	0xc100	; 0xc100 <strcasecmp_P>
    a906:	89 2b       	or	r24, r25
    a908:	b9 f5       	brne	.+110    	; 0xa978 <main+0xa42>
cmdContrast():
C:\Users\dax\Google Drive\GitLocalRepositories\K197Display/K197Display.ino:130
      @brief handle the "contrast" command
      Reads the contrast value from serial and change contrast accordingly
*/
void cmdContrast() { // Here we want to use Serial, rather than DebugOut (which
                     // does not even support input)
  dxUtil.checkFreeStack();
    a90a:	0e 94 12 2c 	call	0x5824	; 0x5824 <dxUtilClass::checkFreeStack() [clone .constprop.157]>
readBytesUntil():
    a90e:	8f e9       	ldi	r24, 0x9F	; 159
    a910:	93 e6       	ldi	r25, 0x63	; 99
    a912:	0e 94 8e 2e 	call	0x5d1c	; 0x5d1c <Stream::readBytesUntil(char, char*, unsigned int) [clone .part.0] [clone .constprop.92]>
cmdContrast():
C:\Users\dax\Google Drive\GitLocalRepositories\K197Display/K197Display.ino:133
  static char buf[INPUT_BUFFER_SIZE];
  size_t i = Serial.readBytesUntil(CH_SPACE, buf, INPUT_BUFFER_SIZE);
  buf[i] = 0;
    a916:	fc 01       	movw	r30, r24
    a918:	e1 56       	subi	r30, 0x61	; 97
    a91a:	fc 49       	sbci	r31, 0x9C	; 156
    a91c:	10 82       	st	Z, r1
C:\Users\dax\Google Drive\GitLocalRepositories\K197Display/K197Display.ino:134
  if (i == 0) { // no characters read
    a91e:	89 2b       	or	r24, r25
    a920:	59 f4       	brne	.+22     	; 0xa938 <main+0xa02>
C:\Users\dax\Google Drive\GitLocalRepositories\K197Display/K197Display.ino:135
    Serial.println(F("Contrast: <no change>"));
    a922:	6f e0       	ldi	r22, 0x0F	; 15
    a924:	76 e0       	ldi	r23, 0x06	; 6
    a926:	81 e4       	ldi	r24, 0x41	; 65
    a928:	94 e6       	ldi	r25, 0x64	; 100
    a92a:	0e 94 f8 43 	call	0x87f0	; 0x87f0 <Print::println(__FlashStringHelper const*)>
C:\Users\dax\Google Drive\GitLocalRepositories\K197Display/K197Display.ino:136
    Serial.flush();
    a92e:	81 e4       	ldi	r24, 0x41	; 65
    a930:	94 e6       	ldi	r25, 0x64	; 100
    a932:	0e 94 8d 30 	call	0x611a	; 0x611a <UartClass::flush()>
    a936:	74 cf       	rjmp	.-280    	; 0xa820 <main+0x8ea>
C:\Users\dax\Google Drive\GitLocalRepositories\K197Display/K197Display.ino:139
    return;
  }
  uint8_t value = atoi(buf);
    a938:	8f e9       	ldi	r24, 0x9F	; 159
    a93a:	93 e6       	ldi	r25, 0x63	; 99
    a93c:	0e 94 63 60 	call	0xc0c6	; 0xc0c6 <atoi>
    a940:	18 2f       	mov	r17, r24
C:\Users\dax\Google Drive\GitLocalRepositories\K197Display/K197Display.ino:140
  Serial.print(F("Contrast="));
    a942:	65 e2       	ldi	r22, 0x25	; 37
    a944:	76 e0       	ldi	r23, 0x06	; 6
    a946:	81 e4       	ldi	r24, 0x41	; 65
    a948:	94 e6       	ldi	r25, 0x64	; 100
    a94a:	0e 94 1a 2e 	call	0x5c34	; 0x5c34 <Print::print(__FlashStringHelper const*)>
print():
C:\Users\dax\AppData\Local\Arduino15\packages\DxCore\hardware\megaavr\1.4.10\cores\dxcore\api/Print.cpp:73
  return write(c);
}

size_t Print::print(unsigned char b, int base)
{
  return print((unsigned long) b, base);
    a94e:	41 2f       	mov	r20, r17
    a950:	50 e0       	ldi	r21, 0x00	; 0
    a952:	70 e0       	ldi	r23, 0x00	; 0
    a954:	60 e0       	ldi	r22, 0x00	; 0
C:\Users\dax\AppData\Local\Arduino15\packages\DxCore\hardware\megaavr\1.4.10\cores\dxcore\api/Print.cpp:105
}

size_t Print::print(unsigned long n, int base)
{
  if (base == 0) return write(n);
  else return printNumber(n, base);
    a956:	2a e0       	ldi	r18, 0x0A	; 10
    a958:	81 e4       	ldi	r24, 0x41	; 65
    a95a:	94 e6       	ldi	r25, 0x64	; 100
    a95c:	0e 94 09 44 	call	0x8812	; 0x8812 <Print::printNumber(unsigned long, unsigned char)>
println():
C:\Users\dax\AppData\Local\Arduino15\packages\DxCore\hardware\megaavr\1.4.10\cores\dxcore\api/Print.cpp:154
}

size_t Print::println(unsigned char b, int base)
{
  size_t n = print(b, base);
  n += println();
    a960:	81 e4       	ldi	r24, 0x41	; 65
    a962:	94 e6       	ldi	r25, 0x64	; 100
    a964:	0e 94 f5 43 	call	0x87ea	; 0x87ea <Print::println()>
cmdContrast():
C:\Users\dax\Google Drive\GitLocalRepositories\K197Display/K197Display.ino:142
  Serial.println(value);
  Serial.flush();
    a968:	81 e4       	ldi	r24, 0x41	; 65
    a96a:	94 e6       	ldi	r25, 0x64	; 100
    a96c:	0e 94 8d 30 	call	0x611a	; 0x611a <UartClass::flush()>
C:\Users\dax\Google Drive\GitLocalRepositories\K197Display/K197Display.ino:143
  uiman.setContrast(value);
    a970:	81 2f       	mov	r24, r17
    a972:	0e 94 65 2c 	call	0x58ca	; 0x58ca <UImanager::setContrast(unsigned char) [clone .constprop.116]>
    a976:	54 cf       	rjmp	.-344    	; 0xa820 <main+0x8ea>
handleSerial():
C:\Users\dax\Google Drive\GitLocalRepositories\K197Display/K197Display.ino:204
      msg_printout = true;
  } else if ((strcasecmp_P(buf, PSTR("log")) == 0)) {
    cmdLog();
  } else if ((strcasecmp_P(buf, PSTR("contrast")) == 0)) {
    cmdContrast();
  } else if ((strcasecmp_P(buf, PSTR(" ")) == 0)) {
    a978:	6f e2       	ldi	r22, 0x2F	; 47
    a97a:	76 e0       	ldi	r23, 0x06	; 6
    a97c:	8d eb       	ldi	r24, 0xBD	; 189
    a97e:	93 e6       	ldi	r25, 0x63	; 99
    a980:	0e 94 80 60 	call	0xc100	; 0xc100 <strcasecmp_P>
    a984:	89 2b       	or	r24, r25
    a986:	09 f4       	brne	.+2      	; 0xa98a <main+0xa54>
    a988:	4b cf       	rjmp	.-362    	; 0xa820 <main+0x8ea>
printError():
C:\Users\dax\Google Drive\GitLocalRepositories\K197Display/K197Display.ino:119
      @brief error message for invalid command to Serial
      @param buf null terminated char array with the invalid command
*/
void printError(
    const char *buf) { // Here we want to use Serial, rather than DebugOut
  Serial.print(F("Invalid command: "));
    a98a:	6d ef       	ldi	r22, 0xFD	; 253
    a98c:	75 e0       	ldi	r23, 0x05	; 5
    a98e:	81 e4       	ldi	r24, 0x41	; 65
    a990:	94 e6       	ldi	r25, 0x64	; 100
    a992:	0e 94 1a 2e 	call	0x5c34	; 0x5c34 <Print::print(__FlashStringHelper const*)>
write():
    a996:	6d eb       	ldi	r22, 0xBD	; 189
    a998:	73 e6       	ldi	r23, 0x63	; 99
    a99a:	81 e4       	ldi	r24, 0x41	; 65
    a99c:	94 e6       	ldi	r25, 0x64	; 100
    a99e:	0e 94 e6 43 	call	0x87cc	; 0x87cc <Print::write(char const*) [clone .part.0]>
println():
C:\Users\dax\AppData\Local\Arduino15\packages\DxCore\hardware\megaavr\1.4.10\cores\dxcore\api/Print.cpp:140
}

size_t Print::println(const char c[])
{
  size_t n = print(c);
  n += println();
    a9a2:	81 e4       	ldi	r24, 0x41	; 65
    a9a4:	94 e6       	ldi	r25, 0x64	; 100
    a9a6:	0e 94 f5 43 	call	0x87ea	; 0x87ea <Print::println()>
    a9aa:	ee ce       	rjmp	.-548    	; 0xa788 <main+0x852>
getNewReading():
C:\Users\dax\Google Drive\GitLocalRepositories\K197Display/K197device.cpp:131
      @return the number of bytes copied into data.
*/
byte K197device::getNewReading(byte *data) {
  byte n = getNewData(data);
  if (n != 9) {
    DebugOut.print(F("Warning, K197 n="));
    a9ac:	60 e4       	ldi	r22, 0x40	; 64
    a9ae:	77 e0       	ldi	r23, 0x07	; 7
    a9b0:	85 e4       	ldi	r24, 0x45	; 69
    a9b2:	96 e6       	ldi	r25, 0x66	; 102
    a9b4:	0e 94 1a 2e 	call	0x5c34	; 0x5c34 <Print::print(__FlashStringHelper const*)>
print():
C:\Users\dax\AppData\Local\Arduino15\packages\DxCore\hardware\megaavr\1.4.10\cores\dxcore\api/Print.cpp:73
  return write(c);
}

size_t Print::print(unsigned char b, int base)
{
  return print((unsigned long) b, base);
    a9b8:	49 2d       	mov	r20, r9
    a9ba:	50 e0       	ldi	r21, 0x00	; 0
    a9bc:	70 e0       	ldi	r23, 0x00	; 0
    a9be:	60 e0       	ldi	r22, 0x00	; 0
C:\Users\dax\AppData\Local\Arduino15\packages\DxCore\hardware\megaavr\1.4.10\cores\dxcore\api/Print.cpp:105
}

size_t Print::print(unsigned long n, int base)
{
  if (base == 0) return write(n);
  else return printNumber(n, base);
    a9c0:	2a e0       	ldi	r18, 0x0A	; 10
    a9c2:	85 e4       	ldi	r24, 0x45	; 69
    a9c4:	96 e6       	ldi	r25, 0x66	; 102
    a9c6:	0e 94 09 44 	call	0x8812	; 0x8812 <Print::printNumber(unsigned long, unsigned char)>
println():
C:\Users\dax\AppData\Local\Arduino15\packages\DxCore\hardware\megaavr\1.4.10\cores\dxcore\api/Print.cpp:154
}

size_t Print::println(unsigned char b, int base)
{
  size_t n = print(b, base);
  n += println();
    a9ca:	85 e4       	ldi	r24, 0x45	; 69
    a9cc:	96 e6       	ldi	r25, 0x66	; 102
    a9ce:	0e 94 f5 43 	call	0x87ea	; 0x87ea <Print::println()>
getNewReading():
C:\Users\dax\Google Drive\GitLocalRepositories\K197Display/K197device.cpp:134
    DebugOut.println(n);
  }
  if (n > 0)
    a9d2:	91 10       	cpse	r9, r1
    a9d4:	38 cf       	rjmp	.-400    	; 0xa846 <main+0x910>
C:\Users\dax\Google Drive\GitLocalRepositories\K197Display/K197device.cpp:137
    annunciators0 = data[0];
  else
    annunciators0 = 0x00;
    a9d6:	10 92 a4 6f 	sts	0x6FA4, r1	; 0x806fa4 <k197dev+0xe>
    a9da:	3d cf       	rjmp	.-390    	; 0xa856 <main+0x920>
C:\Users\dax\Google Drive\GitLocalRepositories\K197Display/K197device.cpp:139
  if (n > 7)
    annunciators7 = data[7];
    a9dc:	80 91 f6 63 	lds	r24, 0x63F6	; 0x8063f6 <DMMReading+0x7>
    a9e0:	80 93 a5 6f 	sts	0x6FA5, r24	; 0x806fa5 <k197dev+0xf>
C:\Users\dax\Google Drive\GitLocalRepositories\K197Display/K197device.cpp:142
  else
    annunciators7 = 0x00;
  if (n > 8)
    a9e4:	18 e0       	ldi	r17, 0x08	; 8
    a9e6:	91 12       	cpse	r9, r17
    a9e8:	03 c0       	rjmp	.+6      	; 0xa9f0 <main+0xaba>
C:\Users\dax\Google Drive\GitLocalRepositories\K197Display/K197device.cpp:145
    annunciators8 = data[8];
  else
    annunciators8 = 0x00;
    a9ea:	10 92 a6 6f 	sts	0x6FA6, r1	; 0x806fa6 <k197dev+0x10>
    a9ee:	04 c0       	rjmp	.+8      	; 0xa9f8 <main+0xac2>
C:\Users\dax\Google Drive\GitLocalRepositories\K197Display/K197device.cpp:143
  if (n > 7)
    annunciators7 = data[7];
  else
    annunciators7 = 0x00;
  if (n > 8)
    annunciators8 = data[8];
    a9f0:	80 91 f7 63 	lds	r24, 0x63F7	; 0x8063f7 <DMMReading+0x8>
    a9f4:	80 93 a6 6f 	sts	0x6FA6, r24	; 0x806fa6 <k197dev+0x10>
    a9f8:	8e 01       	movw	r16, r28
    a9fa:	06 5f       	subi	r16, 0xF6	; 246
    a9fc:	1f 4f       	sbci	r17, 0xFF	; 255
main():
C:\Users\dax\AppData\Local\Arduino15\packages\DxCore\hardware\megaavr\1.4.10\cores\dxcore/main.cpp:49
 * called first in non-optiboot configurations (neither is needed on Optibooot configurations() *
 * an extra bit of initialization code in .init3 to fix the vectors and still happen if user    *
 * overrides main. In the past there was a USB-related function here, that is removed, as work  *
 * will be needed in any event at the core level if VUSB-based "stuff" arrives, but really I'm  *
 * just waiting for the DU-series now                                                           */
int main() {
    a9fe:	68 01       	movw	r12, r16
    aa00:	0b 8b       	std	Y+19, r16	; 0x13
    aa02:	1c 8b       	std	Y+20, r17	; 0x14
getNewReading():
C:\Users\dax\Google Drive\GitLocalRepositories\K197Display/K197device.cpp:149
  else
    annunciators8 = 0x00;

  char message[K197_MSG_SIZE];
  for (int i = 0; i < K197_MSG_SIZE; i++)
    message[i] = 0;
    aa04:	d6 01       	movw	r26, r12
    aa06:	1d 92       	st	X+, r1
    aa08:	6d 01       	movw	r12, r26
C:\Users\dax\Google Drive\GitLocalRepositories\K197Display/K197device.cpp:148
    annunciators8 = data[8];
  else
    annunciators8 = 0x00;

  char message[K197_MSG_SIZE];
  for (int i = 0; i < K197_MSG_SIZE; i++)
    aa0a:	ed 89       	ldd	r30, Y+21	; 0x15
    aa0c:	fe 89       	ldd	r31, Y+22	; 0x16
    aa0e:	ea 17       	cp	r30, r26
    aa10:	fb 07       	cpc	r31, r27
    aa12:	c1 f7       	brne	.-16     	; 0xaa04 <main+0xace>
C:\Users\dax\Google Drive\GitLocalRepositories\K197Display/K197device.cpp:151
    message[i] = 0;
  for (int i = 0; i < (K197_RAW_MSG_SIZE - 1); i++)
    raw_msg[0] = CH_SPACE;
    aa14:	80 e2       	ldi	r24, 0x20	; 32
    aa16:	80 93 97 6f 	sts	0x6F97, r24	; 0x806f97 <k197dev+0x1>
C:\Users\dax\Google Drive\GitLocalRepositories\K197Display/K197device.cpp:152
  raw_msg[K197_RAW_MSG_SIZE - 1] = 0;
    aa1a:	10 92 9e 6f 	sts	0x6F9E, r1	; 0x806f9e <k197dev+0x8>
C:\Users\dax\Google Drive\GitLocalRepositories\K197Display/K197device.cpp:154
  int nchar = 0;
  if (n > 0 && isMINUS()) {
    aa1e:	91 10       	cpse	r9, r1
    aa20:	03 c0       	rjmp	.+6      	; 0xaa28 <main+0xaf2>
main():
C:\Users\dax\Google Drive\GitLocalRepositories\K197Display/K197device.cpp:153
  for (int i = 0; i < K197_MSG_SIZE; i++)
    message[i] = 0;
  for (int i = 0; i < (K197_RAW_MSG_SIZE - 1); i++)
    raw_msg[0] = CH_SPACE;
  raw_msg[K197_RAW_MSG_SIZE - 1] = 0;
  int nchar = 0;
    aa22:	f1 2c       	mov	r15, r1
    aa24:	e1 2c       	mov	r14, r1
    aa26:	0b c0       	rjmp	.+22     	; 0xaa3e <main+0xb08>
getNewReading():
C:\Users\dax\Google Drive\GitLocalRepositories\K197Display/K197device.cpp:154
  if (n > 0 && isMINUS()) {
    aa28:	80 91 a4 6f 	lds	r24, 0x6FA4	; 0x806fa4 <k197dev+0xe>
    aa2c:	87 ff       	sbrs	r24, 7
    aa2e:	f9 cf       	rjmp	.-14     	; 0xaa22 <main+0xaec>
C:\Users\dax\Google Drive\GitLocalRepositories\K197Display/K197device.cpp:155
    raw_msg[0] = '-';
    aa30:	8d e2       	ldi	r24, 0x2D	; 45
    aa32:	80 93 97 6f 	sts	0x6F97, r24	; 0x806f97 <k197dev+0x1>
C:\Users\dax\Google Drive\GitLocalRepositories\K197Display/K197device.cpp:156
    message[nchar] = '-';
    aa36:	8a 87       	std	Y+10, r24	; 0x0a
main():
C:\Users\dax\Google Drive\GitLocalRepositories\K197Display/K197device.cpp:157
    nchar++;
    aa38:	ee 24       	eor	r14, r14
    aa3a:	e3 94       	inc	r14
    aa3c:	f1 2c       	mov	r15, r1
getNewReading():
C:\Users\dax\Google Drive\GitLocalRepositories\K197Display/K197device.cpp:159
  }
  int msg_n = n >= 7 ? 7 : n;
    aa3e:	89 2d       	mov	r24, r9
    aa40:	f7 e0       	ldi	r31, 0x07	; 7
    aa42:	f9 15       	cp	r31, r9
    aa44:	08 f4       	brcc	.+2      	; 0xaa48 <main+0xb12>
    aa46:	87 e0       	ldi	r24, 0x07	; 7
    aa48:	48 2e       	mov	r4, r24
    aa4a:	51 2c       	mov	r5, r1
C:\Users\dax\Google Drive\GitLocalRepositories\K197Display/K197device.cpp:161
  byte num_dp = 0;
  flags.msg_is_num = true; // assumed true until proven otherwise
    aa4c:	80 91 96 6f 	lds	r24, 0x6F96	; 0x806f96 <k197dev>
    aa50:	82 60       	ori	r24, 0x02	; 2
    aa52:	80 93 96 6f 	sts	0x6F96, r24	; 0x806f96 <k197dev>
C:\Users\dax\Google Drive\GitLocalRepositories\K197Display/K197device.cpp:162
  raw_dp = 0x00;
    aa56:	10 92 9f 6f 	sts	0x6F9F, r1	; 0x806f9f <k197dev+0x9>
    aa5a:	30 ef       	ldi	r19, 0xF0	; 240
    aa5c:	63 2e       	mov	r6, r19
    aa5e:	33 e6       	ldi	r19, 0x63	; 99
    aa60:	73 2e       	mov	r7, r19
    aa62:	28 e9       	ldi	r18, 0x98	; 152
    aa64:	3f e6       	ldi	r19, 0x6F	; 111
    aa66:	2f 8b       	std	Y+23, r18	; 0x17
    aa68:	38 8f       	std	Y+24, r19	; 0x18
main():
C:\Users\dax\Google Drive\GitLocalRepositories\K197Display/K197device.cpp:163
  for (int i = 1; i < msg_n; i++) { // skip i=0 is done on purpose
    aa6a:	aa 24       	eor	r10, r10
    aa6c:	a3 94       	inc	r10
    aa6e:	b1 2c       	mov	r11, r1
C:\Users\dax\Google Drive\GitLocalRepositories\K197Display/K197device.cpp:160
    raw_msg[0] = '-';
    message[nchar] = '-';
    nchar++;
  }
  int msg_n = n >= 7 ? 7 : n;
  byte num_dp = 0;
    aa70:	81 2c       	mov	r8, r1
getNewReading():
C:\Users\dax\Google Drive\GitLocalRepositories\K197Display/K197device.cpp:163
  flags.msg_is_num = true; // assumed true until proven otherwise
  raw_dp = 0x00;
  for (int i = 1; i < msg_n; i++) { // skip i=0 is done on purpose
    aa72:	a4 14       	cp	r10, r4
    aa74:	b5 04       	cpc	r11, r5
    aa76:	0c f0       	brlt	.+2      	; 0xaa7a <main+0xb44>
    aa78:	55 c0       	rjmp	.+170    	; 0xab24 <main+0xbee>
C:\Users\dax\Google Drive\GitLocalRepositories\K197Display/K197device.cpp:164
    if (hasDecimalPoint(data[i])) {
    aa7a:	d3 01       	movw	r26, r6
    aa7c:	8c 91       	ld	r24, X
    aa7e:	82 ff       	sbrs	r24, 2
    aa80:	1e c0       	rjmp	.+60     	; 0xaabe <main+0xb88>
C:\Users\dax\Google Drive\GitLocalRepositories\K197Display/K197device.cpp:165
      bitSet(raw_dp, i);
    aa82:	20 91 9f 6f 	lds	r18, 0x6F9F	; 0x806f9f <k197dev+0x9>
    aa86:	81 e0       	ldi	r24, 0x01	; 1
    aa88:	90 e0       	ldi	r25, 0x00	; 0
    aa8a:	a0 e0       	ldi	r26, 0x00	; 0
    aa8c:	b0 e0       	ldi	r27, 0x00	; 0
    aa8e:	0a 2c       	mov	r0, r10
    aa90:	04 c0       	rjmp	.+8      	; 0xaa9a <main+0xb64>
    aa92:	88 0f       	add	r24, r24
    aa94:	99 1f       	adc	r25, r25
    aa96:	aa 1f       	adc	r26, r26
    aa98:	bb 1f       	adc	r27, r27
    aa9a:	0a 94       	dec	r0
    aa9c:	d2 f7       	brpl	.-12     	; 0xaa92 <main+0xb5c>
    aa9e:	82 2b       	or	r24, r18
    aaa0:	80 93 9f 6f 	sts	0x6F9F, r24	; 0x806f9f <k197dev+0x9>
C:\Users\dax\Google Drive\GitLocalRepositories\K197Display/K197device.cpp:166
      num_dp++;
    aaa4:	83 94       	inc	r8
C:\Users\dax\Google Drive\GitLocalRepositories\K197Display/K197device.cpp:167
      if (num_dp == 1) { // We consider only a single decimal point
    aaa6:	b1 e0       	ldi	r27, 0x01	; 1
    aaa8:	8b 12       	cpse	r8, r27
    aaaa:	35 c0       	rjmp	.+106    	; 0xab16 <main+0xbe0>
C:\Users\dax\Google Drive\GitLocalRepositories\K197Display/K197device.cpp:168
        message[nchar] = '.';
    aaac:	f8 01       	movw	r30, r16
    aaae:	ee 0d       	add	r30, r14
    aab0:	ff 1d       	adc	r31, r15
    aab2:	2e e2       	ldi	r18, 0x2E	; 46
    aab4:	20 83       	st	Z, r18
main():
C:\Users\dax\Google Drive\GitLocalRepositories\K197Display/K197device.cpp:169
        nchar++;
    aab6:	a7 01       	movw	r20, r14
    aab8:	4f 5f       	subi	r20, 0xFF	; 255
    aaba:	5f 4f       	sbci	r21, 0xFF	; 255
    aabc:	7a 01       	movw	r14, r20
getNewReading():
C:\Users\dax\Google Drive\GitLocalRepositories\K197Display/K197device.cpp:174
      } else {
        DebugOut.println(F("Warning, K197 dupl. DP"));
      }
    }
    int seg128 = ((data[i] & 0b11111000) >> 1) |
    aabe:	d3 01       	movw	r26, r6
    aac0:	8d 91       	ld	r24, X+
    aac2:	3d 01       	movw	r6, r26
    aac4:	e8 2f       	mov	r30, r24
    aac6:	f0 e0       	ldi	r31, 0x00	; 0
    aac8:	f5 95       	asr	r31
    aaca:	e7 95       	ror	r30
    aacc:	ec 77       	andi	r30, 0x7C	; 124
    aace:	ff 27       	eor	r31, r31
C:\Users\dax\Google Drive\GitLocalRepositories\K197Display/K197device.cpp:175
                 (data[i] & 0b00000011); // remove the DP bit and shift right to
    aad0:	83 70       	andi	r24, 0x03	; 3
C:\Users\dax\Google Drive\GitLocalRepositories\K197Display/K197device.cpp:174
        nchar++;
      } else {
        DebugOut.println(F("Warning, K197 dupl. DP"));
      }
    }
    int seg128 = ((data[i] & 0b11111000) >> 1) |
    aad2:	e8 2b       	or	r30, r24
C:\Users\dax\Google Drive\GitLocalRepositories\K197Display/K197device.cpp:178
                 (data[i] & 0b00000011); // remove the DP bit and shift right to
                                         // convert to a 7 bits number
    char c =
        pgm_read_byte(&seg2char[seg128]); // lookup the character corresponding
    aad4:	e7 55       	subi	r30, 0x57	; 87
    aad6:	f9 4f       	sbci	r31, 0xF9	; 249
    aad8:	e4 91       	lpm	r30, Z
C:\Users\dax\Google Drive\GitLocalRepositories\K197Display/K197device.cpp:180
                                          // to the segment combination
    raw_msg[i] = c;
    aada:	af 89       	ldd	r26, Y+23	; 0x17
    aadc:	b8 8d       	ldd	r27, Y+24	; 0x18
    aade:	ed 93       	st	X+, r30
    aae0:	af 8b       	std	Y+23, r26	; 0x17
    aae2:	b8 8f       	std	Y+24, r27	; 0x18
C:\Users\dax\Google Drive\GitLocalRepositories\K197Display/K197device.cpp:181
    message[nchar] = c;
    aae4:	d8 01       	movw	r26, r16
    aae6:	ae 0d       	add	r26, r14
    aae8:	bf 1d       	adc	r27, r15
    aaea:	ec 93       	st	X, r30
_Z7isDigiti():
C:\Users\dax\AppData\Local\Arduino15\packages\DxCore\hardware\megaavr\1.4.10\cores\dxcore\api/WCharacter.h:85


// Checks for a digit (0 through 9).
inline bool isDigit(int c)
{
  return ( isdigit (c) == 0 ? false : true);
    aaec:	8e 2f       	mov	r24, r30
    aaee:	0e 2e       	mov	r0, r30
    aaf0:	00 0c       	add	r0, r0
    aaf2:	99 0b       	sbc	r25, r25
    aaf4:	c0 97       	sbiw	r24, 0x30	; 48
isDigitOrSpace():
C:\Users\dax\Google Drive\GitLocalRepositories\K197Display/K197device.h:118
      @brief  check if a char is a digit or a space
      @param c the char to check
      @return true if the char represents a digit or a space
  */
  inline static bool isDigitOrSpace(char c) {
    if (isDigit(c))
    aaf6:	0a 97       	sbiw	r24, 0x0a	; 10
    aaf8:	38 f0       	brcs	.+14     	; 0xab08 <main+0xbd2>
C:\Users\dax\Google Drive\GitLocalRepositories\K197Display/K197device.h:120
      return true;
    if (c == CH_SPACE)
    aafa:	e0 32       	cpi	r30, 0x20	; 32
    aafc:	29 f0       	breq	.+10     	; 0xab08 <main+0xbd2>
getNewReading():
C:\Users\dax\Google Drive\GitLocalRepositories\K197Display/K197device.cpp:183
    if (!isDigitOrSpace(raw_msg[i]))
      flags.msg_is_num = false;
    aafe:	80 91 96 6f 	lds	r24, 0x6F96	; 0x806f96 <k197dev>
    ab02:	8d 7f       	andi	r24, 0xFD	; 253
    ab04:	80 93 96 6f 	sts	0x6F96, r24	; 0x806f96 <k197dev>
C:\Users\dax\Google Drive\GitLocalRepositories\K197Display/K197device.cpp:184
    nchar++;
    ab08:	bf ef       	ldi	r27, 0xFF	; 255
    ab0a:	eb 1a       	sub	r14, r27
    ab0c:	fb 0a       	sbc	r15, r27
C:\Users\dax\Google Drive\GitLocalRepositories\K197Display/K197device.cpp:163
  }
  int msg_n = n >= 7 ? 7 : n;
  byte num_dp = 0;
  flags.msg_is_num = true; // assumed true until proven otherwise
  raw_dp = 0x00;
  for (int i = 1; i < msg_n; i++) { // skip i=0 is done on purpose
    ab0e:	ef ef       	ldi	r30, 0xFF	; 255
    ab10:	ae 1a       	sub	r10, r30
    ab12:	be 0a       	sbc	r11, r30
    ab14:	ae cf       	rjmp	.-164    	; 0xaa72 <main+0xb3c>
C:\Users\dax\Google Drive\GitLocalRepositories\K197Display/K197device.cpp:171
      num_dp++;
      if (num_dp == 1) { // We consider only a single decimal point
        message[nchar] = '.';
        nchar++;
      } else {
        DebugOut.println(F("Warning, K197 dupl. DP"));
    ab16:	69 e2       	ldi	r22, 0x29	; 41
    ab18:	77 e0       	ldi	r23, 0x07	; 7
    ab1a:	85 e4       	ldi	r24, 0x45	; 69
    ab1c:	96 e6       	ldi	r25, 0x66	; 102
    ab1e:	0e 94 f8 43 	call	0x87f0	; 0x87f0 <Print::println(__FlashStringHelper const*)>
    ab22:	cd cf       	rjmp	.-102    	; 0xaabe <main+0xb88>
C:\Users\dax\Google Drive\GitLocalRepositories\K197Display/K197device.cpp:186
    message[nchar] = c;
    if (!isDigitOrSpace(raw_msg[i]))
      flags.msg_is_num = false;
    nchar++;
  }
  if (flags.msg_is_num) {
    ab24:	f0 90 96 6f 	lds	r15, 0x6F96	; 0x806f96 <k197dev>
    ab28:	f1 fe       	sbrs	r15, 1
    ab2a:	b3 c0       	rjmp	.+358    	; 0xac92 <main+0xd5c>
    ab2c:	c8 01       	movw	r24, r16
    ab2e:	0f 5f       	subi	r16, 0xFF	; 255
    ab30:	1f 4f       	sbci	r17, 0xFF	; 255
getMsgValue():
C:\Users\dax\Google Drive\GitLocalRepositories\K197Display/K197device.cpp:73
      @return the value using atof(), or 0 if s includes only space characters

*/
float getMsgValue(char *s, int len) {
  for (int i = 0; i < len; i++) {
    if (*s != CH_SPACE) {
    ab32:	dc 01       	movw	r26, r24
    ab34:	2c 91       	ld	r18, X
    ab36:	20 32       	cpi	r18, 0x20	; 32
    ab38:	09 f4       	brne	.+2      	; 0xab3c <main+0xc06>
    ab3a:	a3 c0       	rjmp	.+326    	; 0xac82 <main+0xd4c>
C:\Users\dax\Google Drive\GitLocalRepositories\K197Display/K197device.cpp:74
      return atof(s);
    ab3c:	0e 94 60 60 	call	0xc0c0	; 0xc0c0 <atof>
getNewReading():
C:\Users\dax\Google Drive\GitLocalRepositories\K197Display/K197device.cpp:187
    if (!isDigitOrSpace(raw_msg[i]))
      flags.msg_is_num = false;
    nchar++;
  }
  if (flags.msg_is_num) {
    msg_value = getMsgValue(message, K197_MSG_SIZE);
    ab40:	60 93 a0 6f 	sts	0x6FA0, r22	; 0x806fa0 <k197dev+0xa>
    ab44:	70 93 a1 6f 	sts	0x6FA1, r23	; 0x806fa1 <k197dev+0xb>
    ab48:	80 93 a2 6f 	sts	0x6FA2, r24	; 0x806fa2 <k197dev+0xc>
    ab4c:	90 93 a3 6f 	sts	0x6FA3, r25	; 0x806fa3 <k197dev+0xd>
C:\Users\dax\Google Drive\GitLocalRepositories\K197Display/K197device.cpp:188
    flags.msg_is_ovrange = false;
    ab50:	80 91 96 6f 	lds	r24, 0x6F96	; 0x806f96 <k197dev>
    ab54:	8b 7f       	andi	r24, 0xFB	; 251
    ab56:	80 93 96 6f 	sts	0x6F96, r24	; 0x806f96 <k197dev>
C:\Users\dax\Google Drive\GitLocalRepositories\K197Display/K197device.cpp:202
    if (strncmp_P(message, PSTR(" CAL"), 4) == 0) {
      annunciators8 |= K197_Cal_bm;
      DebugOut.println(F(" CAL found!"));
    }
  }
  if (isTKModeActive() && flags.msg_is_num) {
    ab5a:	0e 94 e1 2d 	call	0x5bc2	; 0x5bc2 <K197device::isTKModeActive() [clone .constprop.82]>
    ab5e:	88 23       	and	r24, r24
    ab60:	09 f4       	brne	.+2      	; 0xab64 <main+0xc2e>
    ab62:	51 c0       	rjmp	.+162    	; 0xac06 <main+0xcd0>
    ab64:	80 91 96 6f 	lds	r24, 0x6F96	; 0x806f96 <k197dev>
    ab68:	81 ff       	sbrs	r24, 1
    ab6a:	4d c0       	rjmp	.+154    	; 0xac06 <main+0xcd0>
tkConvertV2C():
C:\Users\dax\Google Drive\GitLocalRepositories\K197Display/K197device.cpp:217
   thermocouple. Cold junction compensation uses the AVR internal temperature
   sensor and no linear compensation. The result of the conversion replaces the
   current measurement result
*/
void K197device::tkConvertV2C() {
  if (isOvrange() || (!isTKModeActive()))
    ab6c:	82 fd       	sbrc	r24, 2
    ab6e:	4b c0       	rjmp	.+150    	; 0xac06 <main+0xcd0>
getTCelsius():
C:\Users\dax\Google Drive\GitLocalRepositories\K197Display/dxUtil.cpp:176

    getTCelsius() = getTKelvin() - 273.15

   @return Temperature in Celsius
*/
float dxUtilClass::getTCelsius() { return getTKelvin() - 273.15; }
    ab70:	0e 94 e5 3f 	call	0x7fca	; 0x7fca <dxUtilClass::getTKelvin() [clone .constprop.131]>
    ab74:	23 e3       	ldi	r18, 0x33	; 51
    ab76:	33 e9       	ldi	r19, 0x93	; 147
    ab78:	48 e8       	ldi	r20, 0x88	; 136
    ab7a:	53 e4       	ldi	r21, 0x43	; 67
    ab7c:	0e 94 10 66 	call	0xcc20	; 0xcc20 <__subsf3>
    ab80:	6b 01       	movw	r12, r22
    ab82:	7c 01       	movw	r14, r24
tkConvertV2C():
C:\Users\dax\Google Drive\GitLocalRepositories\K197Display/K197device.cpp:219
    return;
  tcold = dxUtil.getTCelsius();
    ab84:	c0 92 a7 6f 	sts	0x6FA7, r12	; 0x806fa7 <k197dev+0x11>
    ab88:	d0 92 a8 6f 	sts	0x6FA8, r13	; 0x806fa8 <k197dev+0x12>
    ab8c:	e0 92 a9 6f 	sts	0x6FA9, r14	; 0x806fa9 <k197dev+0x13>
    ab90:	f0 92 aa 6f 	sts	0x6FAA, r15	; 0x806faa <k197dev+0x14>
C:\Users\dax\Google Drive\GitLocalRepositories\K197Display/K197device.cpp:220
  float t = msg_value * 24.2271538 + tcold; // msg_value = mV
    ab94:	26 e3       	ldi	r18, 0x36	; 54
    ab96:	31 ed       	ldi	r19, 0xD1	; 209
    ab98:	41 ec       	ldi	r20, 0xC1	; 193
    ab9a:	51 e4       	ldi	r21, 0x41	; 65
    ab9c:	60 91 a0 6f 	lds	r22, 0x6FA0	; 0x806fa0 <k197dev+0xa>
    aba0:	70 91 a1 6f 	lds	r23, 0x6FA1	; 0x806fa1 <k197dev+0xb>
    aba4:	80 91 a2 6f 	lds	r24, 0x6FA2	; 0x806fa2 <k197dev+0xc>
    aba8:	90 91 a3 6f 	lds	r25, 0x6FA3	; 0x806fa3 <k197dev+0xd>
    abac:	0e 94 40 65 	call	0xca80	; 0xca80 <__mulsf3>
    abb0:	a7 01       	movw	r20, r14
    abb2:	96 01       	movw	r18, r12
    abb4:	0e 94 11 66 	call	0xcc22	; 0xcc22 <__addsf3>
    abb8:	6b 01       	movw	r12, r22
    abba:	7c 01       	movw	r14, r24
C:\Users\dax\Google Drive\GitLocalRepositories\K197Display/K197device.cpp:221
  if (t > 2200.0) {                         // Way more than needed...
    abbc:	20 e0       	ldi	r18, 0x00	; 0
    abbe:	30 e8       	ldi	r19, 0x80	; 128
    abc0:	49 e0       	ldi	r20, 0x09	; 9
    abc2:	55 e4       	ldi	r21, 0x45	; 69
    abc4:	0e 94 0e 67 	call	0xce1c	; 0xce1c <__gesf2>
    abc8:	18 16       	cp	r1, r24
    abca:	0c f0       	brlt	.+2      	; 0xabce <main+0xc98>
    abcc:	8e c0       	rjmp	.+284    	; 0xacea <main+0xdb4>
setOverrange():
C:\Users\dax\Google Drive\GitLocalRepositories\K197Display/K197device.cpp:246

/*!
    @brief  set the displayed message to Overrange
*/
void K197device::setOverrange() {
  flags.msg_is_ovrange = true;
    abce:	80 91 96 6f 	lds	r24, 0x6F96	; 0x806f96 <k197dev>
    abd2:	84 60       	ori	r24, 0x04	; 4
    abd4:	80 93 96 6f 	sts	0x6F96, r24	; 0x806f96 <k197dev>
C:\Users\dax\Google Drive\GitLocalRepositories\K197Display/K197device.cpp:247
  raw_msg[0] = CH_SPACE;
    abd8:	80 e2       	ldi	r24, 0x20	; 32
    abda:	80 93 97 6f 	sts	0x6F97, r24	; 0x806f97 <k197dev+0x1>
C:\Users\dax\Google Drive\GitLocalRepositories\K197Display/K197device.cpp:248
  raw_msg[1] = CH_SPACE;
    abde:	80 93 98 6f 	sts	0x6F98, r24	; 0x806f98 <k197dev+0x2>
C:\Users\dax\Google Drive\GitLocalRepositories\K197Display/K197device.cpp:249
  raw_msg[2] = CH_SPACE;
    abe2:	80 93 99 6f 	sts	0x6F99, r24	; 0x806f99 <k197dev+0x3>
C:\Users\dax\Google Drive\GitLocalRepositories\K197Display/K197device.cpp:250
  raw_msg[3] = '0';
    abe6:	90 e3       	ldi	r25, 0x30	; 48
    abe8:	90 93 9a 6f 	sts	0x6F9A, r25	; 0x806f9a <k197dev+0x4>
C:\Users\dax\Google Drive\GitLocalRepositories\K197Display/K197device.cpp:251
  raw_msg[4] = 'L';
    abec:	9c e4       	ldi	r25, 0x4C	; 76
    abee:	90 93 9b 6f 	sts	0x6F9B, r25	; 0x806f9b <k197dev+0x5>
C:\Users\dax\Google Drive\GitLocalRepositories\K197Display/K197device.cpp:252
  raw_msg[5] = CH_SPACE;
    abf2:	80 93 9c 6f 	sts	0x6F9C, r24	; 0x806f9c <k197dev+0x6>
C:\Users\dax\Google Drive\GitLocalRepositories\K197Display/K197device.cpp:253
  raw_msg[6] = CH_SPACE;
    abf6:	80 93 9d 6f 	sts	0x6F9D, r24	; 0x806f9d <k197dev+0x7>
C:\Users\dax\Google Drive\GitLocalRepositories\K197Display/K197device.cpp:254
  raw_msg[7] = 0;
    abfa:	10 92 9e 6f 	sts	0x6F9E, r1	; 0x806f9e <k197dev+0x8>
C:\Users\dax\Google Drive\GitLocalRepositories\K197Display/K197device.cpp:255
  dxUtil.checkFreeStack();
    abfe:	0e 94 12 2c 	call	0x5824	; 0x5824 <dxUtilClass::checkFreeStack() [clone .constprop.157]>
tkConvertV2C():
C:\Users\dax\Google Drive\GitLocalRepositories\K197Display/K197device.cpp:223
    return;
  tcold = dxUtil.getTCelsius();
  float t = msg_value * 24.2271538 + tcold; // msg_value = mV
  if (t > 2200.0) {                         // Way more than needed...
    setOverrange();
    raw_dp = 0x00;
    ac02:	10 92 9f 6f 	sts	0x6F9F, r1	; 0x806f9f <k197dev+0x9>
updateCache():
C:\Users\dax\Google Drive\GitLocalRepositories\K197Display/K197device.cpp:335
/*!
    @brief  update the cache
    @details average, max and min are calculated here
 */
void K197device::updateCache() {
  if (cache.tkMode != flags.tkMode ||
    ac06:	10 91 96 6f 	lds	r17, 0x6F96	; 0x806f96 <k197dev>
    ac0a:	11 70       	andi	r17, 0x01	; 1
    ac0c:	a0 90 a4 6f 	lds	r10, 0x6FA4	; 0x806fa4 <k197dev+0xe>
    ac10:	b0 90 a5 6f 	lds	r11, 0x6FA5	; 0x806fa5 <k197dev+0xf>
    ac14:	00 91 a6 6f 	lds	r16, 0x6FA6	; 0x806fa6 <k197dev+0x10>
    ac18:	c0 90 a0 6f 	lds	r12, 0x6FA0	; 0x806fa0 <k197dev+0xa>
    ac1c:	d0 90 a1 6f 	lds	r13, 0x6FA1	; 0x806fa1 <k197dev+0xb>
    ac20:	e0 90 a2 6f 	lds	r14, 0x6FA2	; 0x806fa2 <k197dev+0xc>
    ac24:	f0 90 a3 6f 	lds	r15, 0x6FA3	; 0x806fa3 <k197dev+0xd>
C:\Users\dax\Google Drive\GitLocalRepositories\K197Display/K197device.cpp:337
      change0(cache.annunciators0, annunciators0) ||
      cache.annunciators7 != annunciators7 ||
    ac28:	80 91 ac 6f 	lds	r24, 0x6FAC	; 0x806fac <k197dev+0x16>
    ac2c:	81 13       	cpse	r24, r17
    ac2e:	10 c0       	rjmp	.+32     	; 0xac50 <main+0xd1a>
change0():
C:\Users\dax\Google Drive\GitLocalRepositories\K197Display/K197device.cpp:327
    @param b1 first annunciator0 set
    @param b2 second annunciator0 set
    @details average, max and min are calculated here
 */
static inline bool change0(byte b1, byte b2) {
  return (b1 & (~K197_MINUS_bm)) != (b2 & (~K197_MINUS_bm));
    ac30:	80 91 b1 6f 	lds	r24, 0x6FB1	; 0x806fb1 <k197dev+0x1b>
    ac34:	8a 25       	eor	r24, r10
    ac36:	8f 77       	andi	r24, 0x7F	; 127
    ac38:	99 27       	eor	r25, r25
updateCache():
C:\Users\dax\Google Drive\GitLocalRepositories\K197Display/K197device.cpp:335
/*!
    @brief  update the cache
    @details average, max and min are calculated here
 */
void K197device::updateCache() {
  if (cache.tkMode != flags.tkMode ||
    ac3a:	89 2b       	or	r24, r25
    ac3c:	49 f4       	brne	.+18     	; 0xac50 <main+0xd1a>
C:\Users\dax\Google Drive\GitLocalRepositories\K197Display/K197device.cpp:336
      change0(cache.annunciators0, annunciators0) ||
    ac3e:	80 91 b2 6f 	lds	r24, 0x6FB2	; 0x806fb2 <k197dev+0x1c>
    ac42:	b8 12       	cpse	r11, r24
    ac44:	05 c0       	rjmp	.+10     	; 0xac50 <main+0xd1a>
C:\Users\dax\Google Drive\GitLocalRepositories\K197Display/K197device.cpp:337
      cache.annunciators7 != annunciators7 ||
    ac46:	80 91 b3 6f 	lds	r24, 0x6FB3	; 0x806fb3 <k197dev+0x1d>
    ac4a:	80 17       	cp	r24, r16
    ac4c:	09 f4       	brne	.+2      	; 0xac50 <main+0xd1a>
    ac4e:	78 c0       	rjmp	.+240    	; 0xad40 <main+0xe0a>
resetStatistics():
C:\Users\dax\Google Drive\GitLocalRepositories\K197Display/K197device.cpp:362
/*!
    @brief  reset all statistics (min, average, max)
    @details average, max and min are calculated here
 */
void K197device::resetStatistics() {
  cache.average = msg_value;
    ac50:	c0 92 b4 6f 	sts	0x6FB4, r12	; 0x806fb4 <k197dev+0x1e>
    ac54:	d0 92 b5 6f 	sts	0x6FB5, r13	; 0x806fb5 <k197dev+0x1f>
    ac58:	e0 92 b6 6f 	sts	0x6FB6, r14	; 0x806fb6 <k197dev+0x20>
    ac5c:	f0 92 b7 6f 	sts	0x6FB7, r15	; 0x806fb7 <k197dev+0x21>
C:\Users\dax\Google Drive\GitLocalRepositories\K197Display/K197device.cpp:363
  cache.min = msg_value;
    ac60:	c0 92 b8 6f 	sts	0x6FB8, r12	; 0x806fb8 <k197dev+0x22>
    ac64:	d0 92 b9 6f 	sts	0x6FB9, r13	; 0x806fb9 <k197dev+0x23>
    ac68:	e0 92 ba 6f 	sts	0x6FBA, r14	; 0x806fba <k197dev+0x24>
    ac6c:	f0 92 bb 6f 	sts	0x6FBB, r15	; 0x806fbb <k197dev+0x25>
updateCache():
C:\Users\dax\Google Drive\GitLocalRepositories\K197Display/K197device.cpp:347
                     float(cache.nsamples); // This not perfect but good enough
                                            // in most practical cases.
    if (msg_value < cache.min)
      cache.min = msg_value;
    if (msg_value > cache.max)
      cache.max = msg_value;
    ac70:	c0 92 bc 6f 	sts	0x6FBC, r12	; 0x806fbc <k197dev+0x26>
    ac74:	d0 92 bd 6f 	sts	0x6FBD, r13	; 0x806fbd <k197dev+0x27>
    ac78:	e0 92 be 6f 	sts	0x6FBE, r14	; 0x806fbe <k197dev+0x28>
    ac7c:	f0 92 bf 6f 	sts	0x6FBF, r15	; 0x806fbf <k197dev+0x29>
    ac80:	b1 c0       	rjmp	.+354    	; 0xade4 <main+0xeae>
getMsgValue():
C:\Users\dax\Google Drive\GitLocalRepositories\K197Display/K197device.cpp:72

      @return the value using atof(), or 0 if s includes only space characters

*/
float getMsgValue(char *s, int len) {
  for (int i = 0; i < len; i++) {
    ac82:	c0 16       	cp	r12, r16
    ac84:	d1 06       	cpc	r13, r17
    ac86:	09 f0       	breq	.+2      	; 0xac8a <main+0xd54>
    ac88:	51 cf       	rjmp	.-350    	; 0xab2c <main+0xbf6>
main():
C:\Users\dax\Google Drive\GitLocalRepositories\K197Display/K197device.cpp:78
    if (*s != CH_SPACE) {
      return atof(s);
    }
    s++;
  }
  return 0.0; // we consider a string of spaces as equivalent to 0.0
    ac8a:	60 e0       	ldi	r22, 0x00	; 0
    ac8c:	70 e0       	ldi	r23, 0x00	; 0
    ac8e:	cb 01       	movw	r24, r22
    ac90:	57 cf       	rjmp	.-338    	; 0xab40 <main+0xc0a>
getNewReading():
C:\Users\dax\Google Drive\GitLocalRepositories\K197Display/K197device.cpp:191
  if (flags.msg_is_num) {
    msg_value = getMsgValue(message, K197_MSG_SIZE);
    flags.msg_is_ovrange = false;
  } else {
    // if (strstr(message, "0L") != NULL) {/
    if (strcasecmp_P(message, PSTR("0L")) == 0) {
    ac92:	66 ea       	ldi	r22, 0xA6	; 166
    ac94:	76 e0       	ldi	r23, 0x06	; 6
    ac96:	c8 01       	movw	r24, r16
    ac98:	0e 94 80 60 	call	0xc100	; 0xc100 <strcasecmp_P>
    ac9c:	89 2b       	or	r24, r25
    ac9e:	11 f5       	brne	.+68     	; 0xace4 <main+0xdae>
C:\Users\dax\Google Drive\GitLocalRepositories\K197Display/K197device.cpp:192
      flags.msg_is_ovrange = true;
    aca0:	68 94       	set
    aca2:	f2 f8       	bld	r15, 2
C:\Users\dax\Google Drive\GitLocalRepositories\K197Display/K197device.cpp:194
    } else {
      flags.msg_is_ovrange = false;
    aca4:	f0 92 96 6f 	sts	0x6F96, r15	; 0x806f96 <k197dev>
C:\Users\dax\Google Drive\GitLocalRepositories\K197Display/K197device.cpp:196
    }
    msg_value = 0.0;
    aca8:	10 92 a0 6f 	sts	0x6FA0, r1	; 0x806fa0 <k197dev+0xa>
    acac:	10 92 a1 6f 	sts	0x6FA1, r1	; 0x806fa1 <k197dev+0xb>
    acb0:	10 92 a2 6f 	sts	0x6FA2, r1	; 0x806fa2 <k197dev+0xc>
    acb4:	10 92 a3 6f 	sts	0x6FA3, r1	; 0x806fa3 <k197dev+0xd>
C:\Users\dax\Google Drive\GitLocalRepositories\K197Display/K197device.cpp:197
    if (strncmp_P(message, PSTR(" CAL"), 4) == 0) {
    acb8:	44 e0       	ldi	r20, 0x04	; 4
    acba:	50 e0       	ldi	r21, 0x00	; 0
    acbc:	61 ea       	ldi	r22, 0xA1	; 161
    acbe:	76 e0       	ldi	r23, 0x06	; 6
    acc0:	c8 01       	movw	r24, r16
    acc2:	0e 94 9e 60 	call	0xc13c	; 0xc13c <strncmp_P>
    acc6:	89 2b       	or	r24, r25
    acc8:	09 f0       	breq	.+2      	; 0xaccc <main+0xd96>
    acca:	47 cf       	rjmp	.-370    	; 0xab5a <main+0xc24>
C:\Users\dax\Google Drive\GitLocalRepositories\K197Display/K197device.cpp:198
      annunciators8 |= K197_Cal_bm;
    accc:	80 91 a6 6f 	lds	r24, 0x6FA6	; 0x806fa6 <k197dev+0x10>
    acd0:	81 60       	ori	r24, 0x01	; 1
    acd2:	80 93 a6 6f 	sts	0x6FA6, r24	; 0x806fa6 <k197dev+0x10>
C:\Users\dax\Google Drive\GitLocalRepositories\K197Display/K197device.cpp:199
      DebugOut.println(F(" CAL found!"));
    acd6:	65 e9       	ldi	r22, 0x95	; 149
    acd8:	76 e0       	ldi	r23, 0x06	; 6
    acda:	85 e4       	ldi	r24, 0x45	; 69
    acdc:	96 e6       	ldi	r25, 0x66	; 102
    acde:	0e 94 f8 43 	call	0x87f0	; 0x87f0 <Print::println(__FlashStringHelper const*)>
    ace2:	3b cf       	rjmp	.-394    	; 0xab5a <main+0xc24>
C:\Users\dax\Google Drive\GitLocalRepositories\K197Display/K197device.cpp:194
  } else {
    // if (strstr(message, "0L") != NULL) {/
    if (strcasecmp_P(message, PSTR("0L")) == 0) {
      flags.msg_is_ovrange = true;
    } else {
      flags.msg_is_ovrange = false;
    ace4:	e8 94       	clt
    ace6:	f2 f8       	bld	r15, 2
    ace8:	dd cf       	rjmp	.-70     	; 0xaca4 <main+0xd6e>
tkConvertV2C():
C:\Users\dax\Google Drive\GitLocalRepositories\K197Display/K197device.cpp:226
  if (t > 2200.0) {                         // Way more than needed...
    setOverrange();
    raw_dp = 0x00;
    return;
  }
  msg_value = t;
    acea:	c0 92 a0 6f 	sts	0x6FA0, r12	; 0x806fa0 <k197dev+0xa>
    acee:	d0 92 a1 6f 	sts	0x6FA1, r13	; 0x806fa1 <k197dev+0xb>
    acf2:	e0 92 a2 6f 	sts	0x6FA2, r14	; 0x806fa2 <k197dev+0xc>
    acf6:	f0 92 a3 6f 	sts	0x6FA3, r15	; 0x806fa3 <k197dev+0xd>
C:\Users\dax\Google Drive\GitLocalRepositories\K197Display/K197device.cpp:228
  char message[K197_MSG_SIZE];
  dtostrf(t, K197_MSG_SIZE - 1, 2, message);
    acfa:	8e 01       	movw	r16, r28
    acfc:	0f 5f       	subi	r16, 0xFF	; 255
    acfe:	1f 4f       	sbci	r17, 0xFF	; 255
    ad00:	22 e0       	ldi	r18, 0x02	; 2
    ad02:	48 e0       	ldi	r20, 0x08	; 8
    ad04:	c7 01       	movw	r24, r14
    ad06:	b6 01       	movw	r22, r12
    ad08:	0e 94 43 60 	call	0xc086	; 0xc086 <dtostrf>
    ad0c:	f8 01       	movw	r30, r16
main():
C:\Users\dax\Google Drive\GitLocalRepositories\K197Display/K197device.cpp:229
  int j = 0;
    ad0e:	90 e0       	ldi	r25, 0x00	; 0
    ad10:	80 e0       	ldi	r24, 0x00	; 0
tkConvertV2C():
C:\Users\dax\Google Drive\GitLocalRepositories\K197Display/K197device.cpp:231
  for (int i = 0; i < K197_MSG_SIZE; i++) {
    if (message[i] != '.') {
    ad12:	21 91       	ld	r18, Z+
    ad14:	2e 32       	cpi	r18, 0x2E	; 46
    ad16:	31 f0       	breq	.+12     	; 0xad24 <main+0xdee>
C:\Users\dax\Google Drive\GitLocalRepositories\K197Display/K197device.cpp:232
      raw_msg[j] = message[i];
    ad18:	dc 01       	movw	r26, r24
    ad1a:	aa 56       	subi	r26, 0x6A	; 106
    ad1c:	b0 49       	sbci	r27, 0x90	; 144
    ad1e:	11 96       	adiw	r26, 0x01	; 1
    ad20:	2c 93       	st	X, r18
C:\Users\dax\Google Drive\GitLocalRepositories\K197Display/K197device.cpp:233
      j++;
    ad22:	01 96       	adiw	r24, 0x01	; 1
C:\Users\dax\Google Drive\GitLocalRepositories\K197Display/K197device.cpp:235
    }
    if (j >= K197_RAW_MSG_SIZE)
    ad24:	88 30       	cpi	r24, 0x08	; 8
    ad26:	91 05       	cpc	r25, r1
    ad28:	2c f4       	brge	.+10     	; 0xad34 <main+0xdfe>
C:\Users\dax\Google Drive\GitLocalRepositories\K197Display/K197device.cpp:230
  }
  msg_value = t;
  char message[K197_MSG_SIZE];
  dtostrf(t, K197_MSG_SIZE - 1, 2, message);
  int j = 0;
  for (int i = 0; i < K197_MSG_SIZE; i++) {
    ad2a:	0b 89       	ldd	r16, Y+19	; 0x13
    ad2c:	1c 89       	ldd	r17, Y+20	; 0x14
    ad2e:	0e 17       	cp	r16, r30
    ad30:	1f 07       	cpc	r17, r31
    ad32:	79 f7       	brne	.-34     	; 0xad12 <main+0xddc>
C:\Users\dax\Google Drive\GitLocalRepositories\K197Display/K197device.cpp:238
      j++;
    }
    if (j >= K197_RAW_MSG_SIZE)
      break;
  }
  raw_msg[K197_RAW_MSG_SIZE - 1] = 0;
    ad34:	10 92 9e 6f 	sts	0x6F9E, r1	; 0x806f9e <k197dev+0x8>
C:\Users\dax\Google Drive\GitLocalRepositories\K197Display/K197device.cpp:239
  raw_dp = 0x20;
    ad38:	80 e2       	ldi	r24, 0x20	; 32
    ad3a:	80 93 9f 6f 	sts	0x6F9F, r24	; 0x806f9f <k197dev+0x9>
    ad3e:	63 cf       	rjmp	.-314    	; 0xac06 <main+0xcd0>
updateCache():
C:\Users\dax\Google Drive\GitLocalRepositories\K197Display/K197device.cpp:341
      change0(cache.annunciators0, annunciators0) ||
      cache.annunciators7 != annunciators7 ||
      cache.annunciators8 != annunciators8) { // Something changed, reset stats
    resetStatistics();
  } else {
    cache.average += (msg_value - cache.average) /
    ad40:	40 90 b4 6f 	lds	r4, 0x6FB4	; 0x806fb4 <k197dev+0x1e>
    ad44:	50 90 b5 6f 	lds	r5, 0x6FB5	; 0x806fb5 <k197dev+0x1f>
    ad48:	60 90 b6 6f 	lds	r6, 0x6FB6	; 0x806fb6 <k197dev+0x20>
    ad4c:	70 90 b7 6f 	lds	r7, 0x6FB7	; 0x806fb7 <k197dev+0x21>
    ad50:	a3 01       	movw	r20, r6
    ad52:	92 01       	movw	r18, r4
    ad54:	c7 01       	movw	r24, r14
    ad56:	b6 01       	movw	r22, r12
    ad58:	0e 94 10 66 	call	0xcc20	; 0xcc20 <__subsf3>
    ad5c:	6f 8b       	std	Y+23, r22	; 0x17
    ad5e:	78 8f       	std	Y+24, r23	; 0x18
    ad60:	89 8f       	std	Y+25, r24	; 0x19
    ad62:	9a 8f       	std	Y+26, r25	; 0x1a
C:\Users\dax\Google Drive\GitLocalRepositories\K197Display/K197device.cpp:342
                     float(cache.nsamples); // This not perfect but good enough
    ad64:	60 91 ab 6f 	lds	r22, 0x6FAB	; 0x806fab <k197dev+0x15>
    ad68:	70 e0       	ldi	r23, 0x00	; 0
    ad6a:	90 e0       	ldi	r25, 0x00	; 0
    ad6c:	80 e0       	ldi	r24, 0x00	; 0
    ad6e:	0e 94 df 64 	call	0xc9be	; 0xc9be <__floatunsisf>
    ad72:	9b 01       	movw	r18, r22
    ad74:	ac 01       	movw	r20, r24
C:\Users\dax\Google Drive\GitLocalRepositories\K197Display/K197device.cpp:341
      change0(cache.annunciators0, annunciators0) ||
      cache.annunciators7 != annunciators7 ||
      cache.annunciators8 != annunciators8) { // Something changed, reset stats
    resetStatistics();
  } else {
    cache.average += (msg_value - cache.average) /
    ad76:	6f 89       	ldd	r22, Y+23	; 0x17
    ad78:	78 8d       	ldd	r23, Y+24	; 0x18
    ad7a:	89 8d       	ldd	r24, Y+25	; 0x19
    ad7c:	9a 8d       	ldd	r25, Y+26	; 0x1a
    ad7e:	0e 94 75 66 	call	0xccea	; 0xccea <__divsf3>
    ad82:	a3 01       	movw	r20, r6
    ad84:	92 01       	movw	r18, r4
    ad86:	0e 94 11 66 	call	0xcc22	; 0xcc22 <__addsf3>
    ad8a:	60 93 b4 6f 	sts	0x6FB4, r22	; 0x806fb4 <k197dev+0x1e>
    ad8e:	70 93 b5 6f 	sts	0x6FB5, r23	; 0x806fb5 <k197dev+0x1f>
    ad92:	80 93 b6 6f 	sts	0x6FB6, r24	; 0x806fb6 <k197dev+0x20>
    ad96:	90 93 b7 6f 	sts	0x6FB7, r25	; 0x806fb7 <k197dev+0x21>
C:\Users\dax\Google Drive\GitLocalRepositories\K197Display/K197device.cpp:344
                     float(cache.nsamples); // This not perfect but good enough
                                            // in most practical cases.
    if (msg_value < cache.min)
    ad9a:	20 91 b8 6f 	lds	r18, 0x6FB8	; 0x806fb8 <k197dev+0x22>
    ad9e:	30 91 b9 6f 	lds	r19, 0x6FB9	; 0x806fb9 <k197dev+0x23>
    ada2:	40 91 ba 6f 	lds	r20, 0x6FBA	; 0x806fba <k197dev+0x24>
    ada6:	50 91 bb 6f 	lds	r21, 0x6FBB	; 0x806fbb <k197dev+0x25>
    adaa:	c7 01       	movw	r24, r14
    adac:	b6 01       	movw	r22, r12
    adae:	0e 94 db 64 	call	0xc9b6	; 0xc9b6 <__cmpsf2>
    adb2:	87 ff       	sbrs	r24, 7
    adb4:	08 c0       	rjmp	.+16     	; 0xadc6 <main+0xe90>
C:\Users\dax\Google Drive\GitLocalRepositories\K197Display/K197device.cpp:345
      cache.min = msg_value;
    adb6:	c0 92 b8 6f 	sts	0x6FB8, r12	; 0x806fb8 <k197dev+0x22>
    adba:	d0 92 b9 6f 	sts	0x6FB9, r13	; 0x806fb9 <k197dev+0x23>
    adbe:	e0 92 ba 6f 	sts	0x6FBA, r14	; 0x806fba <k197dev+0x24>
    adc2:	f0 92 bb 6f 	sts	0x6FBB, r15	; 0x806fbb <k197dev+0x25>
C:\Users\dax\Google Drive\GitLocalRepositories\K197Display/K197device.cpp:346
    if (msg_value > cache.max)
    adc6:	20 91 bc 6f 	lds	r18, 0x6FBC	; 0x806fbc <k197dev+0x26>
    adca:	30 91 bd 6f 	lds	r19, 0x6FBD	; 0x806fbd <k197dev+0x27>
    adce:	40 91 be 6f 	lds	r20, 0x6FBE	; 0x806fbe <k197dev+0x28>
    add2:	50 91 bf 6f 	lds	r21, 0x6FBF	; 0x806fbf <k197dev+0x29>
    add6:	c7 01       	movw	r24, r14
    add8:	b6 01       	movw	r22, r12
    adda:	0e 94 0e 67 	call	0xce1c	; 0xce1c <__gesf2>
    adde:	18 16       	cp	r1, r24
    ade0:	0c f4       	brge	.+2      	; 0xade4 <main+0xeae>
    ade2:	46 cf       	rjmp	.-372    	; 0xac70 <main+0xd3a>
C:\Users\dax\Google Drive\GitLocalRepositories\K197Display/K197device.cpp:349
      cache.max = msg_value;
  }
  cache.msg_value = msg_value;
    ade4:	c0 92 ad 6f 	sts	0x6FAD, r12	; 0x806fad <k197dev+0x17>
    ade8:	d0 92 ae 6f 	sts	0x6FAE, r13	; 0x806fae <k197dev+0x18>
    adec:	e0 92 af 6f 	sts	0x6FAF, r14	; 0x806faf <k197dev+0x19>
    adf0:	f0 92 b0 6f 	sts	0x6FB0, r15	; 0x806fb0 <k197dev+0x1a>
C:\Users\dax\Google Drive\GitLocalRepositories\K197Display/K197device.cpp:350
  cache.tkMode = flags.tkMode;
    adf4:	10 93 ac 6f 	sts	0x6FAC, r17	; 0x806fac <k197dev+0x16>
C:\Users\dax\Google Drive\GitLocalRepositories\K197Display/K197device.cpp:351
  cache.annunciators0 = annunciators0;
    adf8:	a0 92 b1 6f 	sts	0x6FB1, r10	; 0x806fb1 <k197dev+0x1b>
C:\Users\dax\Google Drive\GitLocalRepositories\K197Display/K197device.cpp:352
  cache.annunciators7 = annunciators7;
    adfc:	b0 92 b2 6f 	sts	0x6FB2, r11	; 0x806fb2 <k197dev+0x1c>
C:\Users\dax\Google Drive\GitLocalRepositories\K197Display/K197device.cpp:353
  cache.annunciators8 = annunciators8;
    ae00:	00 93 b3 6f 	sts	0x6FB3, r16	; 0x806fb3 <k197dev+0x1d>
C:\Users\dax\Google Drive\GitLocalRepositories\K197Display/K197device.cpp:354
  dxUtil.checkFreeStack();
    ae04:	0e 94 12 2c 	call	0x5824	; 0x5824 <dxUtilClass::checkFreeStack() [clone .constprop.157]>
loop():
C:\Users\dax\Google Drive\GitLocalRepositories\K197Display/K197Display.ino:388
  if (k197dev.hasNewData()) {
    PROFILE_start(DebugOut.PROFILE_DEVICE);
    byte n = k197dev.getNewReading(DMMReading);
    PROFILE_stop(DebugOut.PROFILE_DEVICE);
    PROFILE_println(DebugOut.PROFILE_DEVICE, F("Time spent in getNewReading()"));
    if (msg_printout) {
    ae08:	80 91 ee 63 	lds	r24, 0x63EE	; 0x8063ee <msg_printout>
    ae0c:	88 23       	and	r24, r24
    ae0e:	09 f4       	brne	.+2      	; 0xae12 <main+0xedc>
    ae10:	80 c0       	rjmp	.+256    	; 0xaf12 <main+0xfdc>
C:\Users\dax\Google Drive\GitLocalRepositories\K197Display/K197Display.ino:389
      DebugOut.print(F("SPI packet - N="));
    ae12:	66 ec       	ldi	r22, 0xC6	; 198
    ae14:	78 e0       	ldi	r23, 0x08	; 8
    ae16:	85 e4       	ldi	r24, 0x45	; 69
    ae18:	96 e6       	ldi	r25, 0x66	; 102
    ae1a:	0e 94 1a 2e 	call	0x5c34	; 0x5c34 <Print::print(__FlashStringHelper const*)>
print():
C:\Users\dax\AppData\Local\Arduino15\packages\DxCore\hardware\megaavr\1.4.10\cores\dxcore\api/Print.cpp:73
  return write(c);
}

size_t Print::print(unsigned char b, int base)
{
  return print((unsigned long) b, base);
    ae1e:	49 2d       	mov	r20, r9
    ae20:	50 e0       	ldi	r21, 0x00	; 0
    ae22:	70 e0       	ldi	r23, 0x00	; 0
    ae24:	60 e0       	ldi	r22, 0x00	; 0
C:\Users\dax\AppData\Local\Arduino15\packages\DxCore\hardware\megaavr\1.4.10\cores\dxcore\api/Print.cpp:105
}

size_t Print::print(unsigned long n, int base)
{
  if (base == 0) return write(n);
  else return printNumber(n, base);
    ae26:	2a e0       	ldi	r18, 0x0A	; 10
    ae28:	85 e4       	ldi	r24, 0x45	; 69
    ae2a:	96 e6       	ldi	r25, 0x66	; 102
    ae2c:	0e 94 09 44 	call	0x8812	; 0x8812 <Print::printNumber(unsigned long, unsigned char)>
loop():
C:\Users\dax\Google Drive\GitLocalRepositories\K197Display/K197Display.ino:391
      DebugOut.print(n);
      DebugOut.print(F(": "));
    ae30:	63 ec       	ldi	r22, 0xC3	; 195
    ae32:	78 e0       	ldi	r23, 0x08	; 8
    ae34:	85 e4       	ldi	r24, 0x45	; 69
    ae36:	96 e6       	ldi	r25, 0x66	; 102
    ae38:	0e 94 1a 2e 	call	0x5c34	; 0x5c34 <Print::print(__FlashStringHelper const*)>
    ae3c:	0f ee       	ldi	r16, 0xEF	; 239
    ae3e:	13 e6       	ldi	r17, 0x63	; 99
debugPrintData():
C:\Users\dax\Google Drive\GitLocalRepositories\K197Display/SPIdevice.cpp:191
      @param data pointer to the buffer
      @param n number of bytes to print

*/
void SPIdevice::debugPrintData(byte *data, byte n) {
  for (int i = 0; i < n; i++) {
    ae40:	e9 2c       	mov	r14, r9
    ae42:	f1 2c       	mov	r15, r1
    ae44:	c8 01       	movw	r24, r16
    ae46:	8f 5e       	subi	r24, 0xEF	; 239
    ae48:	93 46       	sbci	r25, 0x63	; 99
    ae4a:	8e 15       	cp	r24, r14
    ae4c:	9f 05       	cpc	r25, r15
    ae4e:	bc f4       	brge	.+46     	; 0xae7e <main+0xf48>
C:\Users\dax\Google Drive\GitLocalRepositories\K197Display/SPIdevice.cpp:192
    DebugOut.print(F("0x"));
    ae50:	61 e5       	ldi	r22, 0x51	; 81
    ae52:	77 e0       	ldi	r23, 0x07	; 7
    ae54:	85 e4       	ldi	r24, 0x45	; 69
    ae56:	96 e6       	ldi	r25, 0x66	; 102
    ae58:	0e 94 1a 2e 	call	0x5c34	; 0x5c34 <Print::print(__FlashStringHelper const*)>
C:\Users\dax\Google Drive\GitLocalRepositories\K197Display/SPIdevice.cpp:193
    DebugOut.print(data[i], HEX);
    ae5c:	d8 01       	movw	r26, r16
    ae5e:	4d 91       	ld	r20, X+
    ae60:	8d 01       	movw	r16, r26
print():
C:\Users\dax\AppData\Local\Arduino15\packages\DxCore\hardware\megaavr\1.4.10\cores\dxcore\api/Print.cpp:73
  return write(c);
}

size_t Print::print(unsigned char b, int base)
{
  return print((unsigned long) b, base);
    ae62:	50 e0       	ldi	r21, 0x00	; 0
    ae64:	70 e0       	ldi	r23, 0x00	; 0
    ae66:	60 e0       	ldi	r22, 0x00	; 0
C:\Users\dax\AppData\Local\Arduino15\packages\DxCore\hardware\megaavr\1.4.10\cores\dxcore\api/Print.cpp:105
}

size_t Print::print(unsigned long n, int base)
{
  if (base == 0) return write(n);
  else return printNumber(n, base);
    ae68:	20 e1       	ldi	r18, 0x10	; 16
    ae6a:	85 e4       	ldi	r24, 0x45	; 69
    ae6c:	96 e6       	ldi	r25, 0x66	; 102
    ae6e:	0e 94 09 44 	call	0x8812	; 0x8812 <Print::printNumber(unsigned long, unsigned char)>
debugPrintData():
C:\Users\dax\Google Drive\GitLocalRepositories\K197Display/SPIdevice.cpp:194
    DebugOut.print(CH_SPACE);
    ae72:	60 e2       	ldi	r22, 0x20	; 32
    ae74:	85 e4       	ldi	r24, 0x45	; 69
    ae76:	96 e6       	ldi	r25, 0x66	; 102
    ae78:	0e 94 13 2e 	call	0x5c26	; 0x5c26 <Print::print(char)>
    ae7c:	e3 cf       	rjmp	.-58     	; 0xae44 <main+0xf0e>
loop():
C:\Users\dax\Google Drive\GitLocalRepositories\K197Display/K197Display.ino:393
      k197dev.debugPrintData(DMMReading, n);
      DebugOut.println();
    ae7e:	85 e4       	ldi	r24, 0x45	; 69
    ae80:	96 e6       	ldi	r25, 0x66	; 102
    ae82:	0e 94 f5 43 	call	0x87ea	; 0x87ea <Print::println()>
C:\Users\dax\Google Drive\GitLocalRepositories\K197Display/K197Display.ino:394
      DebugOut.print(F("raw: "));
    ae86:	6d eb       	ldi	r22, 0xBD	; 189
    ae88:	78 e0       	ldi	r23, 0x08	; 8
    ae8a:	85 e4       	ldi	r24, 0x45	; 69
    ae8c:	96 e6       	ldi	r25, 0x66	; 102
    ae8e:	0e 94 1a 2e 	call	0x5c34	; 0x5c34 <Print::print(__FlashStringHelper const*)>
write():
    ae92:	67 e9       	ldi	r22, 0x97	; 151
    ae94:	7f e6       	ldi	r23, 0x6F	; 111
    ae96:	85 e4       	ldi	r24, 0x45	; 69
    ae98:	96 e6       	ldi	r25, 0x66	; 102
    ae9a:	0e 94 e6 43 	call	0x87cc	; 0x87cc <Print::write(char const*) [clone .part.0]>
println():
C:\Users\dax\AppData\Local\Arduino15\packages\DxCore\hardware\megaavr\1.4.10\cores\dxcore\api/Print.cpp:140
}

size_t Print::println(const char c[])
{
  size_t n = print(c);
  n += println();
    ae9e:	85 e4       	ldi	r24, 0x45	; 69
    aea0:	96 e6       	ldi	r25, 0x66	; 102
    aea2:	0e 94 f5 43 	call	0x87ea	; 0x87ea <Print::println()>
debugPrint():
C:\Users\dax\Google Drive\GitLocalRepositories\K197Display/K197device.cpp:300
/*!
    @brief  print a summary of the received message to DebugOut for
   troubleshooting purposes
*/
void K197device::debugPrint() {
  DebugOut.print(raw_msg);
    aea6:	67 e9       	ldi	r22, 0x97	; 151
    aea8:	7f e6       	ldi	r23, 0x6F	; 111
    aeaa:	85 e4       	ldi	r24, 0x45	; 69
    aeac:	96 e6       	ldi	r25, 0x66	; 102
    aeae:	0e 94 b8 48 	call	0x9170	; 0x9170 <Print::print(char const*)>
C:\Users\dax\Google Drive\GitLocalRepositories\K197Display/K197device.cpp:301
  if (flags.msg_is_num) {
    aeb2:	80 91 96 6f 	lds	r24, 0x6F96	; 0x806f96 <k197dev>
    aeb6:	06 e9       	ldi	r16, 0x96	; 150
    aeb8:	1f e6       	ldi	r17, 0x6F	; 111
    aeba:	9e e9       	ldi	r25, 0x9E	; 158
    aebc:	e9 2e       	mov	r14, r25
    aebe:	9f e6       	ldi	r25, 0x6F	; 111
    aec0:	f9 2e       	mov	r15, r25
    aec2:	81 ff       	sbrs	r24, 1
    aec4:	20 c1       	rjmp	.+576    	; 0xb106 <main+0x11d0>
C:\Users\dax\Google Drive\GitLocalRepositories\K197Display/K197device.cpp:302
    DebugOut.print(F(", ("));
    aec6:	64 e6       	ldi	r22, 0x64	; 100
    aec8:	77 e0       	ldi	r23, 0x07	; 7
    aeca:	85 e4       	ldi	r24, 0x45	; 69
    aecc:	96 e6       	ldi	r25, 0x66	; 102
    aece:	0e 94 1a 2e 	call	0x5c34	; 0x5c34 <Print::print(__FlashStringHelper const*)>
print():
C:\Users\dax\AppData\Local\Arduino15\packages\DxCore\hardware\megaavr\1.4.10\cores\dxcore\api/Print.cpp:110
  else return printNumber(n, base);
}

size_t Print::print(double n, int digits)
{
  return printFloat(n, digits);
    aed2:	40 91 a0 6f 	lds	r20, 0x6FA0	; 0x806fa0 <k197dev+0xa>
    aed6:	50 91 a1 6f 	lds	r21, 0x6FA1	; 0x806fa1 <k197dev+0xb>
    aeda:	60 91 a2 6f 	lds	r22, 0x6FA2	; 0x806fa2 <k197dev+0xc>
    aede:	70 91 a3 6f 	lds	r23, 0x6FA3	; 0x806fa3 <k197dev+0xd>
    aee2:	26 e0       	ldi	r18, 0x06	; 6
    aee4:	85 e4       	ldi	r24, 0x45	; 69
    aee6:	96 e6       	ldi	r25, 0x66	; 102
    aee8:	0e 94 a6 44 	call	0x894c	; 0x894c <Print::printFloat(double, unsigned char)>
debugPrint():
C:\Users\dax\Google Drive\GitLocalRepositories\K197Display/K197device.cpp:304
    DebugOut.print(msg_value, 6);
    DebugOut.print(')');
    aeec:	69 e2       	ldi	r22, 0x29	; 41
    aeee:	85 e4       	ldi	r24, 0x45	; 69
    aef0:	96 e6       	ldi	r25, 0x66	; 102
    aef2:	0e 94 13 2e 	call	0x5c26	; 0x5c26 <Print::print(char)>
C:\Users\dax\Google Drive\GitLocalRepositories\K197Display/K197device.cpp:314
        DebugOut.print('0');
      DebugOut.print(raw_msg[i], HEX);
    }
    DebugOut.println();
  }
  if (flags.msg_is_ovrange)
    aef6:	80 91 96 6f 	lds	r24, 0x6F96	; 0x806f96 <k197dev>
    aefa:	82 ff       	sbrs	r24, 2
    aefc:	06 c0       	rjmp	.+12     	; 0xaf0a <main+0xfd4>
C:\Users\dax\Google Drive\GitLocalRepositories\K197Display/K197device.cpp:315
    DebugOut.print(F(" + Ov.Range"));
    aefe:	64 e5       	ldi	r22, 0x54	; 84
    af00:	77 e0       	ldi	r23, 0x07	; 7
    af02:	85 e4       	ldi	r24, 0x45	; 69
    af04:	96 e6       	ldi	r25, 0x66	; 102
    af06:	0e 94 1a 2e 	call	0x5c34	; 0x5c34 <Print::print(__FlashStringHelper const*)>
C:\Users\dax\Google Drive\GitLocalRepositories\K197Display/K197device.cpp:316
  DebugOut.println();
    af0a:	85 e4       	ldi	r24, 0x45	; 69
    af0c:	96 e6       	ldi	r25, 0x66	; 102
    af0e:	0e 94 f5 43 	call	0x87ea	; 0x87ea <Print::println()>
loop():
C:\Users\dax\Google Drive\GitLocalRepositories\K197Display/K197Display.ino:398
      DebugOut.println(k197dev.getRawMessage());
      k197dev.debugPrint();
    }
    if (n == 9) {
    af12:	b9 e0       	ldi	r27, 0x09	; 9
    af14:	9b 12       	cpse	r9, r27
    af16:	1c c2       	rjmp	.+1080   	; 0xb350 <main+0x141a>
_ZN10K197device5isCalEv():
C:\Users\dax\Google Drive\GitLocalRepositories\K197Display/K197device.h:355
  /*!
      @brief  test if CAL is on
      @return returns true if on, false otherwise
  */
  inline bool isCal() {
    if ((annunciators8 & K197_Cal_bm) != 0)
    af18:	80 91 a6 6f 	lds	r24, 0x6FA6	; 0x806fa6 <k197dev+0x10>
    af1c:	80 fd       	sbrc	r24, 0
    af1e:	7d c5       	rjmp	.+2810   	; 0xba1a <main+0x1ae4>
updateDisplay():
C:\Users\dax\Google Drive\GitLocalRepositories\K197Display/UImanager.cpp:171

    If you want to add an initial scren/text, the best way would be to add this
   to setup();
*/
void UImanager::updateDisplay() {
  if (k197dev.isNotCal() && isSplitScreen())
    af20:	0e 94 2c 2c 	call	0x5858	; 0x5858 <UImanager::isSplitScreen() [clone .constprop.153]>
    af24:	88 23       	and	r24, r24
    af26:	09 f4       	brne	.+2      	; 0xaf2a <main+0xff4>
    af28:	c4 c3       	rjmp	.+1928   	; 0xb6b2 <main+0x177c>
_ZN4U8G27setFontEPKh():
E:\Users\puzzole\Documents\Arduino\libraries\U8g2\src/U8g2lib.h:266
    /* u8log_u8g2.c */
    void drawLog(u8g2_uint_t x, u8g2_uint_t y, class U8G2LOG &u8g2log);
    
    /* u8g2_font.c */

    void setFont(const uint8_t  *font) {u8g2_SetFont(&u8g2, font); }
    af2a:	69 e7       	ldi	r22, 0x79	; 121
    af2c:	7d e4       	ldi	r23, 0x4D	; 77
    af2e:	87 ee       	ldi	r24, 0xE7	; 231
    af30:	9e e6       	ldi	r25, 0x6E	; 110
    af32:	0e 94 57 38 	call	0x70ae	; 0x70ae <u8g2_SetFont>
_ZN4U8G29setCursorEjj():
E:\Users\puzzole\Documents\Arduino\libraries\U8g2\src/U8g2lib.h:386
     /* LiquidCrystal compatible functions */
    void home(void) { tx = 0; ty = 0;  u8x8_utf8_init(u8g2_GetU8x8(&u8g2)); }
    void clear(void) { home(); clearDisplay(); clearBuffer();  }
    void noDisplay(void) { u8g2_SetPowerSave(&u8g2, 1); }
    void display(void) { u8g2_SetPowerSave(&u8g2, 0); }
    void setCursor(u8g2_uint_t x, u8g2_uint_t y) { tx = x; ty = y; }
    af36:	ec e8       	ldi	r30, 0x8C	; 140
    af38:	f0 e0       	ldi	r31, 0x00	; 0
    af3a:	e0 93 75 6f 	sts	0x6F75, r30	; 0x806f75 <u8g2+0x92>
    af3e:	f0 93 76 6f 	sts	0x6F76, r31	; 0x806f76 <u8g2+0x93>
    af42:	20 92 77 6f 	sts	0x6F77, r2	; 0x806f77 <u8g2+0x94>
    af46:	30 92 78 6f 	sts	0x6F78, r3	; 0x806f78 <u8g2+0x95>
updateSplitScreen():
C:\Users\dax\Google Drive\GitLocalRepositories\K197Display/UImanager.cpp:189
void UImanager::updateSplitScreen() {
  u8g2_uint_t x = 140;
  u8g2_uint_t y = 5;
  u8g2.setFont(u8g2_font_8x13_mr);
  u8g2.setCursor(x, y);
  if (k197dev.isAuto())
    af4a:	80 91 a4 6f 	lds	r24, 0x6FA4	; 0x806fa4 <k197dev+0xe>
C:\Users\dax\Google Drive\GitLocalRepositories\K197Display/UImanager.cpp:190
    u8g2.print(F("AUTO "));
    af4e:	6c e4       	ldi	r22, 0x4C	; 76
    af50:	78 e0       	ldi	r23, 0x08	; 8
C:\Users\dax\Google Drive\GitLocalRepositories\K197Display/UImanager.cpp:189
void UImanager::updateSplitScreen() {
  u8g2_uint_t x = 140;
  u8g2_uint_t y = 5;
  u8g2.setFont(u8g2_font_8x13_mr);
  u8g2.setCursor(x, y);
  if (k197dev.isAuto())
    af52:	80 fd       	sbrc	r24, 0
    af54:	02 c0       	rjmp	.+4      	; 0xaf5a <main+0x1024>
C:\Users\dax\Google Drive\GitLocalRepositories\K197Display/UImanager.cpp:192
    u8g2.print(F("AUTO "));
  else
    u8g2.print(F("     "));
    af56:	66 e4       	ldi	r22, 0x46	; 70
    af58:	78 e0       	ldi	r23, 0x08	; 8
    af5a:	83 ee       	ldi	r24, 0xE3	; 227
    af5c:	9e e6       	ldi	r25, 0x6E	; 110
    af5e:	0e 94 1a 2e 	call	0x5c34	; 0x5c34 <Print::print(__FlashStringHelper const*)>
C:\Users\dax\Google Drive\GitLocalRepositories\K197Display/UImanager.cpp:193
  if (k197dev.isBAT())
    af62:	80 91 a4 6f 	lds	r24, 0x6FA4	; 0x806fa4 <k197dev+0xe>
C:\Users\dax\Google Drive\GitLocalRepositories\K197Display/UImanager.cpp:194
    u8g2.print(F("BAT "));
    af66:	61 e4       	ldi	r22, 0x41	; 65
    af68:	78 e0       	ldi	r23, 0x08	; 8
C:\Users\dax\Google Drive\GitLocalRepositories\K197Display/UImanager.cpp:193
  u8g2.setCursor(x, y);
  if (k197dev.isAuto())
    u8g2.print(F("AUTO "));
  else
    u8g2.print(F("     "));
  if (k197dev.isBAT())
    af6a:	86 fd       	sbrc	r24, 6
    af6c:	02 c0       	rjmp	.+4      	; 0xaf72 <main+0x103c>
C:\Users\dax\Google Drive\GitLocalRepositories\K197Display/UImanager.cpp:196
    u8g2.print(F("BAT "));
  else
    u8g2.print(F("    "));
    af6e:	6c e3       	ldi	r22, 0x3C	; 60
    af70:	78 e0       	ldi	r23, 0x08	; 8
    af72:	83 ee       	ldi	r24, 0xE3	; 227
    af74:	9e e6       	ldi	r25, 0x6E	; 110
    af76:	0e 94 1a 2e 	call	0x5c34	; 0x5c34 <Print::print(__FlashStringHelper const*)>
C:\Users\dax\Google Drive\GitLocalRepositories\K197Display/UImanager.cpp:197
  if (k197dev.isREL())
    af7a:	80 91 a4 6f 	lds	r24, 0x6FA4	; 0x806fa4 <k197dev+0xe>
C:\Users\dax\Google Drive\GitLocalRepositories\K197Display/UImanager.cpp:198
    u8g2.print(F("REL "));
    af7e:	67 e3       	ldi	r22, 0x37	; 55
    af80:	78 e0       	ldi	r23, 0x08	; 8
C:\Users\dax\Google Drive\GitLocalRepositories\K197Display/UImanager.cpp:197
    u8g2.print(F("     "));
  if (k197dev.isBAT())
    u8g2.print(F("BAT "));
  else
    u8g2.print(F("    "));
  if (k197dev.isREL())
    af82:	81 fd       	sbrc	r24, 1
    af84:	02 c0       	rjmp	.+4      	; 0xaf8a <main+0x1054>
C:\Users\dax\Google Drive\GitLocalRepositories\K197Display/UImanager.cpp:200
    u8g2.print(F("REL "));
  else
    u8g2.print(F("    "));
    af86:	62 e3       	ldi	r22, 0x32	; 50
    af88:	78 e0       	ldi	r23, 0x08	; 8
    af8a:	83 ee       	ldi	r24, 0xE3	; 227
    af8c:	9e e6       	ldi	r25, 0x6E	; 110
    af8e:	0e 94 1a 2e 	call	0x5c34	; 0x5c34 <Print::print(__FlashStringHelper const*)>
_ZN10K197device5isCalEv():
C:\Users\dax\Google Drive\GitLocalRepositories\K197Display/K197device.h:355
    af92:	80 91 a6 6f 	lds	r24, 0x6FA6	; 0x806fa6 <k197dev+0x10>
updateSplitScreen():
C:\Users\dax\Google Drive\GitLocalRepositories\K197Display/UImanager.cpp:202
  if (k197dev.isCal())
    u8g2.print(F("Cal   "));
    af96:	6b e2       	ldi	r22, 0x2B	; 43
    af98:	78 e0       	ldi	r23, 0x08	; 8
_ZN10K197device5isCalEv():
C:\Users\dax\Google Drive\GitLocalRepositories\K197Display/K197device.h:355
    af9a:	80 fd       	sbrc	r24, 0
    af9c:	02 c0       	rjmp	.+4      	; 0xafa2 <main+0x106c>
updateSplitScreen():
C:\Users\dax\Google Drive\GitLocalRepositories\K197Display/UImanager.cpp:204
  else
    u8g2.print(F("      "));
    af9e:	64 e2       	ldi	r22, 0x24	; 36
    afa0:	78 e0       	ldi	r23, 0x08	; 8
    afa2:	83 ee       	ldi	r24, 0xE3	; 227
    afa4:	9e e6       	ldi	r25, 0x6E	; 110
    afa6:	0e 94 1a 2e 	call	0x5c34	; 0x5c34 <Print::print(__FlashStringHelper const*)>
C:\Users\dax\Google Drive\GitLocalRepositories\K197Display/UImanager.cpp:206

  y += u8g2.getMaxCharHeight();
    afaa:	00 91 5e 6f 	lds	r16, 0x6F5E	; 0x806f5e <u8g2+0x7b>
    afae:	00 2e       	mov	r0, r16
    afb0:	00 0c       	add	r0, r0
    afb2:	11 0b       	sbc	r17, r17
    afb4:	0b 5f       	subi	r16, 0xFB	; 251
    afb6:	1f 4f       	sbci	r17, 0xFF	; 255
_ZN4U8G29setCursorEjj():
E:\Users\puzzole\Documents\Arduino\libraries\U8g2\src/U8g2lib.h:386
    afb8:	2c e8       	ldi	r18, 0x8C	; 140
    afba:	30 e0       	ldi	r19, 0x00	; 0
    afbc:	20 93 75 6f 	sts	0x6F75, r18	; 0x806f75 <u8g2+0x92>
    afc0:	30 93 76 6f 	sts	0x6F76, r19	; 0x806f76 <u8g2+0x93>
    afc4:	00 93 77 6f 	sts	0x6F77, r16	; 0x806f77 <u8g2+0x94>
    afc8:	10 93 78 6f 	sts	0x6F78, r17	; 0x806f78 <u8g2+0x95>
_ZN4U8G27setFontEPKh():
E:\Users\puzzole\Documents\Arduino\libraries\U8g2\src/U8g2lib.h:266
    /* u8log_u8g2.c */
    void drawLog(u8g2_uint_t x, u8g2_uint_t y, class U8G2LOG &u8g2log);
    
    /* u8g2_font.c */

    void setFont(const uint8_t  *font) {u8g2_SetFont(&u8g2, font); }
    afcc:	6f e3       	ldi	r22, 0x3F	; 63
    afce:	7b e2       	ldi	r23, 0x2B	; 43
    afd0:	87 ee       	ldi	r24, 0xE7	; 231
    afd2:	9e e6       	ldi	r25, 0x6E	; 110
    afd4:	0e 94 57 38 	call	0x70ae	; 0x70ae <u8g2_SetFont>
_ZN10K197device9isNumericEv():
C:\Users\dax\Google Drive\GitLocalRepositories\K197Display/K197device.h:200
  /*!
      @brief  check if message is a number
      @return true if message is a number (false means something else, like
     "Err", "0L", etc.)
  */
  bool isNumeric() { return flags.msg_is_num; };
    afd8:	80 91 96 6f 	lds	r24, 0x6F96	; 0x806f96 <k197dev>
updateSplitScreen():
C:\Users\dax\Google Drive\GitLocalRepositories\K197Display/UImanager.cpp:213
  u8g2.setFont(u8g2_font_9x15_m_symbols);
  if (k197dev.isNumeric()) {
    char buf[K197_RAW_MSG_SIZE + 1];
    u8g2.print(formatNumber(buf, k197dev.getValue()));
  } else
    u8g2.print(k197dev.getRawMessage());
    afdc:	67 e9       	ldi	r22, 0x97	; 151
    afde:	7f e6       	ldi	r23, 0x6F	; 111
C:\Users\dax\Google Drive\GitLocalRepositories\K197Display/UImanager.cpp:209
    u8g2.print(F("      "));

  y += u8g2.getMaxCharHeight();
  u8g2.setCursor(x, y);
  u8g2.setFont(u8g2_font_9x15_m_symbols);
  if (k197dev.isNumeric()) {
    afe0:	81 ff       	sbrs	r24, 1
    afe2:	0d c0       	rjmp	.+26     	; 0xaffe <main+0x10c8>
C:\Users\dax\Google Drive\GitLocalRepositories\K197Display/UImanager.cpp:211
    char buf[K197_RAW_MSG_SIZE + 1];
    u8g2.print(formatNumber(buf, k197dev.getValue()));
    afe4:	40 91 a0 6f 	lds	r20, 0x6FA0	; 0x806fa0 <k197dev+0xa>
    afe8:	50 91 a1 6f 	lds	r21, 0x6FA1	; 0x806fa1 <k197dev+0xb>
    afec:	60 91 a2 6f 	lds	r22, 0x6FA2	; 0x806fa2 <k197dev+0xc>
    aff0:	70 91 a3 6f 	lds	r23, 0x6FA3	; 0x806fa3 <k197dev+0xd>
    aff4:	ce 01       	movw	r24, r28
    aff6:	01 96       	adiw	r24, 0x01	; 1
    aff8:	0e 94 c2 41 	call	0x8384	; 0x8384 <UImanager::formatNumber(char*, float)>
    affc:	bc 01       	movw	r22, r24
C:\Users\dax\Google Drive\GitLocalRepositories\K197Display/UImanager.cpp:213
  } else
    u8g2.print(k197dev.getRawMessage());
    affe:	83 ee       	ldi	r24, 0xE3	; 227
    b000:	9e e6       	ldi	r25, 0x6E	; 110
    b002:	0e 94 b8 48 	call	0x9170	; 0x9170 <Print::print(char const*)>
C:\Users\dax\Google Drive\GitLocalRepositories\K197Display/UImanager.cpp:214
  u8g2.print(CH_SPACE);
    b006:	60 e2       	ldi	r22, 0x20	; 32
    b008:	83 ee       	ldi	r24, 0xE3	; 227
    b00a:	9e e6       	ldi	r25, 0x6E	; 110
    b00c:	0e 94 13 2e 	call	0x5c26	; 0x5c26 <Print::print(char)>
_ZN4U8G27setFontEPKh():
E:\Users\puzzole\Documents\Arduino\libraries\U8g2\src/U8g2lib.h:266
    b010:	6f e3       	ldi	r22, 0x3F	; 63
    b012:	7b e2       	ldi	r23, 0x2B	; 43
    b014:	87 ee       	ldi	r24, 0xE7	; 231
    b016:	9e e6       	ldi	r25, 0x6E	; 110
    b018:	0e 94 57 38 	call	0x70ae	; 0x70ae <u8g2_SetFont>
updateSplitScreen():
C:\Users\dax\Google Drive\GitLocalRepositories\K197Display/UImanager.cpp:216
  u8g2.setFont(u8g2_font_9x15_m_symbols);
  u8g2.print(k197dev.getUnit(true));
    b01c:	81 e0       	ldi	r24, 0x01	; 1
    b01e:	0e 94 9b 2d 	call	0x5b36	; 0x5b36 <K197device::getUnit(bool) [clone .constprop.83]>
    b022:	bc 01       	movw	r22, r24
    b024:	83 ee       	ldi	r24, 0xE3	; 227
    b026:	9e e6       	ldi	r25, 0x6E	; 110
    b028:	0e 94 1a 2e 	call	0x5c34	; 0x5c34 <Print::print(__FlashStringHelper const*)>
C:\Users\dax\Google Drive\GitLocalRepositories\K197Display/UImanager.cpp:217
  y += u8g2.getMaxCharHeight();
    b02c:	80 91 5e 6f 	lds	r24, 0x6F5E	; 0x806f5e <u8g2+0x7b>
    b030:	08 0f       	add	r16, r24
    b032:	11 1d       	adc	r17, r1
    b034:	87 fd       	sbrc	r24, 7
    b036:	1a 95       	dec	r17
_ZN4U8G27setFontEPKh():
E:\Users\puzzole\Documents\Arduino\libraries\U8g2\src/U8g2lib.h:266
    b038:	6f e3       	ldi	r22, 0x3F	; 63
    b03a:	7b e2       	ldi	r23, 0x2B	; 43
    b03c:	87 ee       	ldi	r24, 0xE7	; 231
    b03e:	9e e6       	ldi	r25, 0x6E	; 110
    b040:	0e 94 57 38 	call	0x70ae	; 0x70ae <u8g2_SetFont>
updateSplitScreen():
C:\Users\dax\Google Drive\GitLocalRepositories\K197Display/UImanager.cpp:219
  u8g2.setFont(u8g2_font_9x15_m_symbols);
  if (k197dev.isAC())
    b044:	80 91 a4 6f 	lds	r24, 0x6FA4	; 0x806fa4 <k197dev+0xe>
C:\Users\dax\Google Drive\GitLocalRepositories\K197Display/UImanager.cpp:220
    u8g2.print(F(" AC   "));
    b048:	6d e1       	ldi	r22, 0x1D	; 29
    b04a:	78 e0       	ldi	r23, 0x08	; 8
C:\Users\dax\Google Drive\GitLocalRepositories\K197Display/UImanager.cpp:219
  u8g2.print(CH_SPACE);
  u8g2.setFont(u8g2_font_9x15_m_symbols);
  u8g2.print(k197dev.getUnit(true));
  y += u8g2.getMaxCharHeight();
  u8g2.setFont(u8g2_font_9x15_m_symbols);
  if (k197dev.isAC())
    b04c:	84 fd       	sbrc	r24, 4
    b04e:	02 c0       	rjmp	.+4      	; 0xb054 <main+0x111e>
C:\Users\dax\Google Drive\GitLocalRepositories\K197Display/UImanager.cpp:222
    u8g2.print(F(" AC   "));
  else
    u8g2.print(F("      "));
    b050:	66 e1       	ldi	r22, 0x16	; 22
    b052:	78 e0       	ldi	r23, 0x08	; 8
    b054:	83 ee       	ldi	r24, 0xE3	; 227
    b056:	9e e6       	ldi	r25, 0x6E	; 110
    b058:	0e 94 1a 2e 	call	0x5c34	; 0x5c34 <Print::print(__FlashStringHelper const*)>
_ZN4U8G29setCursorEjj():
E:\Users\puzzole\Documents\Arduino\libraries\U8g2\src/U8g2lib.h:386
     /* LiquidCrystal compatible functions */
    void home(void) { tx = 0; ty = 0;  u8x8_utf8_init(u8g2_GetU8x8(&u8g2)); }
    void clear(void) { home(); clearDisplay(); clearBuffer();  }
    void noDisplay(void) { u8g2_SetPowerSave(&u8g2, 1); }
    void display(void) { u8g2_SetPowerSave(&u8g2, 0); }
    void setCursor(u8g2_uint_t x, u8g2_uint_t y) { tx = x; ty = y; }
    b05c:	4c e8       	ldi	r20, 0x8C	; 140
    b05e:	50 e0       	ldi	r21, 0x00	; 0
    b060:	40 93 75 6f 	sts	0x6F75, r20	; 0x806f75 <u8g2+0x92>
    b064:	50 93 76 6f 	sts	0x6F76, r21	; 0x806f76 <u8g2+0x93>
    b068:	00 93 77 6f 	sts	0x6F77, r16	; 0x806f77 <u8g2+0x94>
    b06c:	10 93 78 6f 	sts	0x6F78, r17	; 0x806f78 <u8g2+0x95>
_ZN4U8G27setFontEPKh():
E:\Users\puzzole\Documents\Arduino\libraries\U8g2\src/U8g2lib.h:266
    /* u8log_u8g2.c */
    void drawLog(u8g2_uint_t x, u8g2_uint_t y, class U8G2LOG &u8g2log);
    
    /* u8g2_font.c */

    void setFont(const uint8_t  *font) {u8g2_SetFont(&u8g2, font); }
    b070:	69 e7       	ldi	r22, 0x79	; 121
    b072:	7d e4       	ldi	r23, 0x4D	; 77
    b074:	87 ee       	ldi	r24, 0xE7	; 231
    b076:	9e e6       	ldi	r25, 0x6E	; 110
    b078:	0e 94 57 38 	call	0x70ae	; 0x70ae <u8g2_SetFont>
updateSplitScreen():
C:\Users\dax\Google Drive\GitLocalRepositories\K197Display/UImanager.cpp:226

  u8g2.setCursor(x, y);
  u8g2.setFont(u8g2_font_8x13_mr);
  if (k197dev.isSTO())
    b07c:	80 91 a4 6f 	lds	r24, 0x6FA4	; 0x806fa4 <k197dev+0xe>
C:\Users\dax\Google Drive\GitLocalRepositories\K197Display/UImanager.cpp:227
    u8g2.print(F("STO "));
    b080:	61 e1       	ldi	r22, 0x11	; 17
    b082:	78 e0       	ldi	r23, 0x08	; 8
C:\Users\dax\Google Drive\GitLocalRepositories\K197Display/UImanager.cpp:226
  else
    u8g2.print(F("      "));

  u8g2.setCursor(x, y);
  u8g2.setFont(u8g2_font_8x13_mr);
  if (k197dev.isSTO())
    b084:	82 fd       	sbrc	r24, 2
    b086:	02 c0       	rjmp	.+4      	; 0xb08c <main+0x1156>
C:\Users\dax\Google Drive\GitLocalRepositories\K197Display/UImanager.cpp:229
    u8g2.print(F("STO "));
  else
    u8g2.print(F("    "));
    b088:	6c e0       	ldi	r22, 0x0C	; 12
    b08a:	78 e0       	ldi	r23, 0x08	; 8
    b08c:	83 ee       	ldi	r24, 0xE3	; 227
    b08e:	9e e6       	ldi	r25, 0x6E	; 110
    b090:	0e 94 1a 2e 	call	0x5c34	; 0x5c34 <Print::print(__FlashStringHelper const*)>
C:\Users\dax\Google Drive\GitLocalRepositories\K197Display/UImanager.cpp:230
  if (k197dev.isRCL())
    b094:	80 91 a4 6f 	lds	r24, 0x6FA4	; 0x806fa4 <k197dev+0xe>
C:\Users\dax\Google Drive\GitLocalRepositories\K197Display/UImanager.cpp:231
    u8g2.print(F("RCL "));
    b098:	67 e0       	ldi	r22, 0x07	; 7
    b09a:	78 e0       	ldi	r23, 0x08	; 8
C:\Users\dax\Google Drive\GitLocalRepositories\K197Display/UImanager.cpp:230
  u8g2.setFont(u8g2_font_8x13_mr);
  if (k197dev.isSTO())
    u8g2.print(F("STO "));
  else
    u8g2.print(F("    "));
  if (k197dev.isRCL())
    b09c:	85 fd       	sbrc	r24, 5
    b09e:	02 c0       	rjmp	.+4      	; 0xb0a4 <main+0x116e>
C:\Users\dax\Google Drive\GitLocalRepositories\K197Display/UImanager.cpp:233
    u8g2.print(F("RCL "));
  else
    u8g2.print(F("    "));
    b0a0:	62 e0       	ldi	r22, 0x02	; 2
    b0a2:	78 e0       	ldi	r23, 0x08	; 8
    b0a4:	83 ee       	ldi	r24, 0xE3	; 227
    b0a6:	9e e6       	ldi	r25, 0x6E	; 110
    b0a8:	0e 94 1a 2e 	call	0x5c34	; 0x5c34 <Print::print(__FlashStringHelper const*)>
C:\Users\dax\Google Drive\GitLocalRepositories\K197Display/UImanager.cpp:234
  if (k197dev.isRMT())
    b0ac:	80 91 a6 6f 	lds	r24, 0x6FA6	; 0x806fa6 <k197dev+0x10>
C:\Users\dax\Google Drive\GitLocalRepositories\K197Display/UImanager.cpp:235
    u8g2.print(F("RMT   "));
    b0b0:	6b ef       	ldi	r22, 0xFB	; 251
    b0b2:	77 e0       	ldi	r23, 0x07	; 7
C:\Users\dax\Google Drive\GitLocalRepositories\K197Display/UImanager.cpp:234
    u8g2.print(F("    "));
  if (k197dev.isRCL())
    u8g2.print(F("RCL "));
  else
    u8g2.print(F("    "));
  if (k197dev.isRMT())
    b0b4:	85 fd       	sbrc	r24, 5
    b0b6:	02 c0       	rjmp	.+4      	; 0xb0bc <main+0x1186>
C:\Users\dax\Google Drive\GitLocalRepositories\K197Display/UImanager.cpp:237
    u8g2.print(F("RMT   "));
  else
    u8g2.print(F("      "));
    b0b8:	64 ef       	ldi	r22, 0xF4	; 244
    b0ba:	77 e0       	ldi	r23, 0x07	; 7
    b0bc:	83 ee       	ldi	r24, 0xE3	; 227
    b0be:	9e e6       	ldi	r25, 0x6E	; 110
    b0c0:	0e 94 1a 2e 	call	0x5c34	; 0x5c34 <Print::print(__FlashStringHelper const*)>
C:\Users\dax\Google Drive\GitLocalRepositories\K197Display/UImanager.cpp:239

  if (isSplitScreen() && !isMenuVisible()) { // Show the debug log
    b0c4:	0e 94 2c 2c 	call	0x5858	; 0x5858 <UImanager::isSplitScreen() [clone .constprop.153]>
    b0c8:	88 23       	and	r24, r24
    b0ca:	09 f4       	brne	.+2      	; 0xb0ce <main+0x1198>
    b0cc:	42 c0       	rjmp	.+132    	; 0xb152 <main+0x121c>
_ZN10K197device5isCalEv():
C:\Users\dax\Google Drive\GitLocalRepositories\K197Display/K197device.h:355
  /*!
      @brief  test if CAL is on
      @return returns true if on, false otherwise
  */
  inline bool isCal() {
    if ((annunciators8 & K197_Cal_bm) != 0)
    b0ce:	80 91 a6 6f 	lds	r24, 0x6FA6	; 0x806fa6 <k197dev+0x10>
    b0d2:	80 fd       	sbrc	r24, 0
    b0d4:	04 c0       	rjmp	.+8      	; 0xb0de <main+0x11a8>
_ZN9UImanager13isMenuVisibleEv.isra.29():
C:\Users\dax\Google Drive\GitLocalRepositories\K197Display/UImanager.h:115
  /*!
     @brief  chek if the options menu is visible
     @return true if the menu is visible
  */
  bool isMenuVisible() {
    return k197dev.isNotCal() && ((screen_mode & K197sc_MenuBitMask) != 0x00);
    b0d6:	80 91 7f 6f 	lds	r24, 0x6F7F	; 0x806f7f <uiman+0x6>
    b0da:	85 fd       	sbrc	r24, 5
    b0dc:	3a c0       	rjmp	.+116    	; 0xb152 <main+0x121c>
_ZN4U8G27setFontEPKh():
E:\Users\puzzole\Documents\Arduino\libraries\U8g2\src/U8g2lib.h:266
    b0de:	65 e2       	ldi	r22, 0x25	; 37
    b0e0:	73 e5       	ldi	r23, 0x53	; 83
    b0e2:	87 ee       	ldi	r24, 0xE7	; 231
    b0e4:	9e e6       	ldi	r25, 0x6E	; 110
    b0e6:	0e 94 57 38 	call	0x70ae	; 0x70ae <u8g2_SetFont>
u8g2_SetFontDirection():
E:\Users\puzzole\Documents\Arduino\libraries\U8g2\src\clib/u8g2_font.c:1537
    b0ea:	10 92 53 6f 	sts	0x6F53, r1	; 0x806f53 <u8g2+0x70>
main():
E:\Users\puzzole\Documents\Arduino\libraries\U8g2\src\clib/u8log_u8g2.c:59
  uint8_t buf_x, buf_y;
  uint8_t c;
  
  disp_y = y;  
  u8g2_SetFontDirection(u8g2, 0);
  for( buf_y = 0; buf_y < u8log->height; buf_y++ )
    b0ee:	d1 2c       	mov	r13, r1
E:\Users\puzzole\Documents\Arduino\libraries\U8g2\src\clib/u8log_u8g2.c:57
{
  u8g2_uint_t disp_x, disp_y;
  uint8_t buf_x, buf_y;
  uint8_t c;
  
  disp_y = y;  
    b0f0:	10 e0       	ldi	r17, 0x00	; 0
    b0f2:	00 e0       	ldi	r16, 0x00	; 0
u8g2_DrawLog():
E:\Users\puzzole\Documents\Arduino\libraries\U8g2\src\clib/u8log_u8g2.c:59
  u8g2_SetFontDirection(u8g2, 0);
  for( buf_y = 0; buf_y < u8log->height; buf_y++ )
    b0f4:	80 91 d6 6e 	lds	r24, 0x6ED6	; 0x806ed6 <u8g2log+0x7>
    b0f8:	d8 16       	cp	r13, r24
    b0fa:	08 f0       	brcs	.+2      	; 0xb0fe <main+0x11c8>
    b0fc:	1c c1       	rjmp	.+568    	; 0xb336 <main+0x1400>
main():
E:\Users\puzzole\Documents\Arduino\libraries\U8g2\src\clib/u8log_u8g2.c:62
  {
    disp_x = x;
    for( buf_x = 0; buf_x < u8log->width; buf_x++ )
    b0fe:	c1 2c       	mov	r12, r1
E:\Users\puzzole\Documents\Arduino\libraries\U8g2\src\clib/u8log_u8g2.c:61
  
  disp_y = y;  
  u8g2_SetFontDirection(u8g2, 0);
  for( buf_y = 0; buf_y < u8log->height; buf_y++ )
  {
    disp_x = x;
    b100:	f1 2c       	mov	r15, r1
    b102:	e1 2c       	mov	r14, r1
    b104:	bd c2       	rjmp	.+1402   	; 0xb680 <main+0x174a>
debugPrint():
C:\Users\dax\Google Drive\GitLocalRepositories\K197Display/K197device.cpp:307
    DebugOut.print(F(", ("));
    DebugOut.print(msg_value, 6);
    DebugOut.print(')');
  } else {
    for (int i = 0; i < K197_RAW_MSG_SIZE; i++) {
      DebugOut.print(F(" 0x"));
    b106:	60 e6       	ldi	r22, 0x60	; 96
    b108:	77 e0       	ldi	r23, 0x07	; 7
    b10a:	85 e4       	ldi	r24, 0x45	; 69
    b10c:	96 e6       	ldi	r25, 0x66	; 102
    b10e:	0e 94 1a 2e 	call	0x5c34	; 0x5c34 <Print::print(__FlashStringHelper const*)>
C:\Users\dax\Google Drive\GitLocalRepositories\K197Display/K197device.cpp:308
      if (raw_msg[i] < 0x10)
    b112:	f8 01       	movw	r30, r16
    b114:	81 81       	ldd	r24, Z+1	; 0x01
    b116:	80 31       	cpi	r24, 0x10	; 16
    b118:	2c f4       	brge	.+10     	; 0xb124 <main+0x11ee>
C:\Users\dax\Google Drive\GitLocalRepositories\K197Display/K197device.cpp:309
        DebugOut.print('0');
    b11a:	60 e3       	ldi	r22, 0x30	; 48
    b11c:	85 e4       	ldi	r24, 0x45	; 69
    b11e:	96 e6       	ldi	r25, 0x66	; 102
    b120:	0e 94 13 2e 	call	0x5c26	; 0x5c26 <Print::print(char)>
print():
C:\Users\dax\AppData\Local\Arduino15\packages\DxCore\hardware\megaavr\1.4.10\cores\dxcore\api/Print.cpp:98
      n = -n;
      return printNumber(n, 10) + t;
    }
    return printNumber(n, 10);
  } else {
    return printNumber(n, base);
    b124:	d8 01       	movw	r26, r16
    b126:	11 96       	adiw	r26, 0x01	; 1
    b128:	4c 91       	ld	r20, X
    b12a:	04 2e       	mov	r0, r20
    b12c:	00 0c       	add	r0, r0
    b12e:	55 0b       	sbc	r21, r21
    b130:	66 0b       	sbc	r22, r22
    b132:	77 0b       	sbc	r23, r23
    b134:	20 e1       	ldi	r18, 0x10	; 16
    b136:	85 e4       	ldi	r24, 0x45	; 69
    b138:	96 e6       	ldi	r25, 0x66	; 102
    b13a:	0e 94 09 44 	call	0x8812	; 0x8812 <Print::printNumber(unsigned long, unsigned char)>
    b13e:	0f 5f       	subi	r16, 0xFF	; 255
    b140:	1f 4f       	sbci	r17, 0xFF	; 255
debugPrint():
C:\Users\dax\Google Drive\GitLocalRepositories\K197Display/K197device.cpp:306
  if (flags.msg_is_num) {
    DebugOut.print(F(", ("));
    DebugOut.print(msg_value, 6);
    DebugOut.print(')');
  } else {
    for (int i = 0; i < K197_RAW_MSG_SIZE; i++) {
    b142:	e0 16       	cp	r14, r16
    b144:	f1 06       	cpc	r15, r17
    b146:	f9 f6       	brne	.-66     	; 0xb106 <main+0x11d0>
C:\Users\dax\Google Drive\GitLocalRepositories\K197Display/K197device.cpp:312
      DebugOut.print(F(" 0x"));
      if (raw_msg[i] < 0x10)
        DebugOut.print('0');
      DebugOut.print(raw_msg[i], HEX);
    }
    DebugOut.println();
    b148:	85 e4       	ldi	r24, 0x45	; 69
    b14a:	96 e6       	ldi	r25, 0x66	; 102
    b14c:	0e 94 f5 43 	call	0x87ea	; 0x87ea <Print::println()>
    b150:	d2 ce       	rjmp	.-604    	; 0xaef6 <main+0xfc0>
_ZN6UImenu14getCurrentMenuEv():
C:\Users\dax\Google Drive\GitLocalRepositories\K197Display/UImenu.h:248

  /*!
     @brief  get the currrent menu
     @return pointer to UImenu object representing the current menu
  */
  static UImenu *getCurrentMenu() { return currentMenu; };
    b152:	c0 90 8b 6f 	lds	r12, 0x6F8B	; 0x806f8b <UImenu::currentMenu>
    b156:	d0 90 8c 6f 	lds	r13, 0x6F8C	; 0x806f8c <UImenu::currentMenu+0x1>
_ZN4U8G27setFontEPKh():
E:\Users\puzzole\Documents\Arduino\libraries\U8g2\src/U8g2lib.h:266
    b15a:	67 e9       	ldi	r22, 0x97	; 151
    b15c:	76 e2       	ldi	r23, 0x26	; 38
    b15e:	87 ee       	ldi	r24, 0xE7	; 231
    b160:	9e e6       	ldi	r25, 0x6E	; 110
    b162:	0e 94 57 38 	call	0x70ae	; 0x70ae <u8g2_SetFont>
_ZN4U8G29setCursorEjj():
E:\Users\puzzole\Documents\Arduino\libraries\U8g2\src/U8g2lib.h:386
     /* LiquidCrystal compatible functions */
    void home(void) { tx = 0; ty = 0;  u8x8_utf8_init(u8g2_GetU8x8(&u8g2)); }
    void clear(void) { home(); clearDisplay(); clearBuffer();  }
    void noDisplay(void) { u8g2_SetPowerSave(&u8g2, 1); }
    void display(void) { u8g2_SetPowerSave(&u8g2, 0); }
    void setCursor(u8g2_uint_t x, u8g2_uint_t y) { tx = x; ty = y; }
    b166:	10 92 75 6f 	sts	0x6F75, r1	; 0x806f75 <u8g2+0x92>
    b16a:	10 92 76 6f 	sts	0x6F76, r1	; 0x806f76 <u8g2+0x93>
    b16e:	8a e0       	ldi	r24, 0x0A	; 10
    b170:	90 e0       	ldi	r25, 0x00	; 0
    b172:	80 93 77 6f 	sts	0x6F77, r24	; 0x806f77 <u8g2+0x94>
    b176:	90 93 78 6f 	sts	0x6F78, r25	; 0x806f78 <u8g2+0x95>
u8g2_SetFontMode():
E:\Users\puzzole\Documents\Arduino\libraries\U8g2\src\clib/u8g2_font.c:933
    U8G2_FONT_MODE_NONE
  This has been changed for the new font procedures  
*/
void u8g2_SetFontMode(u8g2_t *u8g2, uint8_t is_transparent)
{
  u8g2->font_decode.is_transparent = is_transparent;		// new font procedures
    b17a:	10 92 50 6f 	sts	0x6F50, r1	; 0x806f50 <u8g2+0x6d>
_ZN4U8G212setDrawColorEh():
E:\Users\puzzole\Documents\Arduino\libraries\U8g2\src/U8g2lib.h:218
      { u8x8_RefreshDisplay(u8g2_GetU8x8(&u8g2)); }
    


    /* clib/u8g2.hvline.c */
    void setDrawColor(uint8_t color_index) { u8g2_SetDrawColor(&u8g2, color_index); }
    b17e:	60 e0       	ldi	r22, 0x00	; 0
    b180:	87 ee       	ldi	r24, 0xE7	; 231
    b182:	9e e6       	ldi	r25, 0x6E	; 110
    b184:	0e 94 9b 35 	call	0x6b36	; 0x6b36 <u8g2_SetDrawColor>
    b188:	80 90 2f 6f 	lds	r8, 0x6F2F	; 0x806f2f <u8g2+0x4c>
    b18c:	90 90 30 6f 	lds	r9, 0x6F30	; 0x806f30 <u8g2+0x4d>
makeSelectedItemVisible():
C:\Users\dax\Google Drive\GitLocalRepositories\K197Display/UImenu.cpp:178
     @param y0 the y coordinate of the top of the menu
     @param y1 the y coordinate of the menu bottom

*/
void UImenu::makeSelectedItemVisible(u8g2_uint_t y0, u8g2_uint_t y1) {
  if (selectedItem < firstVisibleItem) {
    b190:	d6 01       	movw	r26, r12
    b192:	14 96       	adiw	r26, 0x04	; 4
    b194:	8c 91       	ld	r24, X
    b196:	14 97       	sbiw	r26, 0x04	; 4
    b198:	13 96       	adiw	r26, 0x03	; 3
    b19a:	9c 91       	ld	r25, X
    b19c:	89 17       	cp	r24, r25
    b19e:	08 f4       	brcc	.+2      	; 0xb1a2 <main+0x126c>
    b1a0:	4c c0       	rjmp	.+152    	; 0xb23a <main+0x1304>
selectedItemVisible():
C:\Users\dax\Google Drive\GitLocalRepositories\K197Display/UImenu.cpp:157
     @param y1 the y coordinate of the menu bottom
     @return true if the selected menu item is visible given the
   firstVisibleItem and the menu window dimension specified by y0 and y1
*/
bool UImenu::selectedItemVisible(u8g2_uint_t y0, u8g2_uint_t y1) {
  if (selectedItem < firstVisibleItem)
    b1a2:	f6 01       	movw	r30, r12
    b1a4:	84 81       	ldd	r24, Z+4	; 0x04
    b1a6:	03 81       	ldd	r16, Z+3	; 0x03
    b1a8:	80 17       	cp	r24, r16
    b1aa:	b8 f1       	brcs	.+110    	; 0xb21a <main+0x12e4>
C:\Users\dax\Google Drive\GitLocalRepositories\K197Display/UImenu.cpp:159
    return false;
  if (selectedItem == firstVisibleItem)
    b1ac:	80 17       	cp	r24, r16
    b1ae:	09 f4       	brne	.+2      	; 0xb1b2 <main+0x127c>
    b1b0:	46 c0       	rjmp	.+140    	; 0xb23e <main+0x1308>
C:\Users\dax\Google Drive\GitLocalRepositories\K197Display/UImenu.cpp:161
    return true;
  for (int i = firstVisibleItem; i < num_items; i++) {
    b1b2:	10 e0       	ldi	r17, 0x00	; 0
    b1b4:	58 01       	movw	r10, r16
    b1b6:	aa 0c       	add	r10, r10
    b1b8:	bb 1c       	adc	r11, r11
    b1ba:	8a e0       	ldi	r24, 0x0A	; 10
    b1bc:	e8 2e       	mov	r14, r24
    b1be:	f1 2c       	mov	r15, r1
    b1c0:	d6 01       	movw	r26, r12
    b1c2:	12 96       	adiw	r26, 0x02	; 2
    b1c4:	8c 91       	ld	r24, X
    b1c6:	12 97       	sbiw	r26, 0x02	; 2
    b1c8:	80 17       	cp	r24, r16
    b1ca:	11 06       	cpc	r1, r17
    b1cc:	31 f1       	breq	.+76     	; 0xb21a <main+0x12e4>
    b1ce:	2c f1       	brlt	.+74     	; 0xb21a <main+0x12e4>
C:\Users\dax\Google Drive\GitLocalRepositories\K197Display/UImenu.cpp:162
    y0 += items[i]->getHeight(i == selectedItem ? true : false);
    b1d0:	ed 91       	ld	r30, X+
    b1d2:	fc 91       	ld	r31, X
    b1d4:	11 97       	sbiw	r26, 0x01	; 1
    b1d6:	ea 0d       	add	r30, r10
    b1d8:	fb 1d       	adc	r31, r11
    b1da:	80 81       	ld	r24, Z
    b1dc:	91 81       	ldd	r25, Z+1	; 0x01
    b1de:	14 96       	adiw	r26, 0x04	; 4
    b1e0:	2c 91       	ld	r18, X
    b1e2:	61 e0       	ldi	r22, 0x01	; 1
    b1e4:	20 17       	cp	r18, r16
    b1e6:	11 06       	cpc	r1, r17
    b1e8:	09 f0       	breq	.+2      	; 0xb1ec <main+0x12b6>
    b1ea:	60 e0       	ldi	r22, 0x00	; 0
    b1ec:	dc 01       	movw	r26, r24
    b1ee:	ed 91       	ld	r30, X+
    b1f0:	fc 91       	ld	r31, X
    b1f2:	01 90       	ld	r0, Z+
    b1f4:	f0 81       	ld	r31, Z
    b1f6:	e0 2d       	mov	r30, r0
    b1f8:	09 95       	icall
    b1fa:	e8 0e       	add	r14, r24
    b1fc:	f9 1e       	adc	r15, r25
C:\Users\dax\Google Drive\GitLocalRepositories\K197Display/UImenu.cpp:163
    if (y0 > y1)
    b1fe:	8e 14       	cp	r8, r14
    b200:	9f 04       	cpc	r9, r15
    b202:	58 f0       	brcs	.+22     	; 0xb21a <main+0x12e4>
    b204:	b2 e0       	ldi	r27, 0x02	; 2
    b206:	ab 0e       	add	r10, r27
    b208:	b1 1c       	adc	r11, r1
C:\Users\dax\Google Drive\GitLocalRepositories\K197Display/UImenu.cpp:165
      break;
    if (selectedItem == i)
    b20a:	f6 01       	movw	r30, r12
    b20c:	84 81       	ldd	r24, Z+4	; 0x04
    b20e:	80 17       	cp	r24, r16
    b210:	11 06       	cpc	r1, r17
    b212:	a9 f0       	breq	.+42     	; 0xb23e <main+0x1308>
C:\Users\dax\Google Drive\GitLocalRepositories\K197Display/UImenu.cpp:161
bool UImenu::selectedItemVisible(u8g2_uint_t y0, u8g2_uint_t y1) {
  if (selectedItem < firstVisibleItem)
    return false;
  if (selectedItem == firstVisibleItem)
    return true;
  for (int i = firstVisibleItem; i < num_items; i++) {
    b214:	0f 5f       	subi	r16, 0xFF	; 255
    b216:	1f 4f       	sbci	r17, 0xFF	; 255
    b218:	d3 cf       	rjmp	.-90     	; 0xb1c0 <main+0x128a>
makeSelectedItemVisible():
C:\Users\dax\Google Drive\GitLocalRepositories\K197Display/UImenu.cpp:183
  if (selectedItem < firstVisibleItem) {
    firstVisibleItem = selectedItem;
    return;
  }
  while (!selectedItemVisible(y0, y1)) {
    if (firstVisibleItem >= (num_items - 1))
    b21a:	d6 01       	movw	r26, r12
    b21c:	13 96       	adiw	r26, 0x03	; 3
    b21e:	8c 91       	ld	r24, X
    b220:	13 97       	sbiw	r26, 0x03	; 3
    b222:	12 96       	adiw	r26, 0x02	; 2
    b224:	2c 91       	ld	r18, X
    b226:	12 97       	sbiw	r26, 0x02	; 2
    b228:	21 50       	subi	r18, 0x01	; 1
    b22a:	33 0b       	sbc	r19, r19
    b22c:	82 17       	cp	r24, r18
    b22e:	13 06       	cpc	r1, r19
    b230:	34 f4       	brge	.+12     	; 0xb23e <main+0x1308>
C:\Users\dax\Google Drive\GitLocalRepositories\K197Display/UImenu.cpp:185
      break;
    firstVisibleItem++;
    b232:	8f 5f       	subi	r24, 0xFF	; 255
    b234:	13 96       	adiw	r26, 0x03	; 3
    b236:	8c 93       	st	X, r24
    b238:	b4 cf       	rjmp	.-152    	; 0xb1a2 <main+0x126c>
C:\Users\dax\Google Drive\GitLocalRepositories\K197Display/UImenu.cpp:179
     @param y1 the y coordinate of the menu bottom

*/
void UImenu::makeSelectedItemVisible(u8g2_uint_t y0, u8g2_uint_t y1) {
  if (selectedItem < firstVisibleItem) {
    firstVisibleItem = selectedItem;
    b23a:	f6 01       	movw	r30, r12
    b23c:	83 83       	std	Z+3, r24	; 0x03
_ZN4U8G27drawBoxEjjjj():
E:\Users\puzzole\Documents\Arduino\libraries\U8g2\src/U8g2lib.h:229
      u8g2_DrawHVLine(&u8g2, x, y, len, dir); }
    
    /* u8g2_box.c */
    void drawFrame(u8g2_uint_t x, u8g2_uint_t y, u8g2_uint_t w, u8g2_uint_t h) { u8g2_DrawFrame(&u8g2, x, y, w, h); }
    void drawRFrame(u8g2_uint_t x, u8g2_uint_t y, u8g2_uint_t w, u8g2_uint_t h, u8g2_uint_t r) { u8g2_DrawRFrame(&u8g2, x, y, w, h,r); }
    void drawBox(u8g2_uint_t x, u8g2_uint_t y, u8g2_uint_t w, u8g2_uint_t h) { u8g2_DrawBox(&u8g2, x, y, w, h); }
    b23e:	d6 01       	movw	r26, r12
    b240:	15 96       	adiw	r26, 0x05	; 5
    b242:	2d 91       	ld	r18, X+
    b244:	3c 91       	ld	r19, X
    b246:	84 01       	movw	r16, r8
    b248:	0a 50       	subi	r16, 0x0A	; 10
    b24a:	11 09       	sbc	r17, r1
    b24c:	4a e0       	ldi	r20, 0x0A	; 10
    b24e:	50 e0       	ldi	r21, 0x00	; 0
    b250:	70 e0       	ldi	r23, 0x00	; 0
    b252:	60 e0       	ldi	r22, 0x00	; 0
    b254:	87 ee       	ldi	r24, 0xE7	; 231
    b256:	9e e6       	ldi	r25, 0x6E	; 110
    b258:	0e 94 d5 3b 	call	0x77aa	; 0x77aa <u8g2_DrawBox>
_ZN4U8G212setDrawColorEh():
E:\Users\puzzole\Documents\Arduino\libraries\U8g2\src/U8g2lib.h:218
      { u8x8_RefreshDisplay(u8g2_GetU8x8(&u8g2)); }
    


    /* clib/u8g2.hvline.c */
    void setDrawColor(uint8_t color_index) { u8g2_SetDrawColor(&u8g2, color_index); }
    b25c:	61 e0       	ldi	r22, 0x01	; 1
    b25e:	87 ee       	ldi	r24, 0xE7	; 231
    b260:	9e e6       	ldi	r25, 0x6E	; 110
    b262:	0e 94 9b 35 	call	0x6b36	; 0x6b36 <u8g2_SetDrawColor>
draw():
C:\Users\dax\Google Drive\GitLocalRepositories\K197Display/UImenu.cpp:136
  u8g2->setDrawColor(0);
  u8g2_uint_t ymax = u8g2->getDisplayHeight();
  makeSelectedItemVisible(y, ymax);
  u8g2->drawBox(x, y, width, ymax - y);
  u8g2->setDrawColor(1);
  for (int i = firstVisibleItem; i < num_items; i++) {
    b266:	f6 01       	movw	r30, r12
    b268:	a3 80       	ldd	r10, Z+3	; 0x03
    b26a:	b1 2c       	mov	r11, r1
    b26c:	25 01       	movw	r4, r10
    b26e:	44 0c       	add	r4, r4
    b270:	55 1c       	adc	r5, r5
    b272:	aa e0       	ldi	r26, 0x0A	; 10
    b274:	6a 2e       	mov	r6, r26
    b276:	71 2c       	mov	r7, r1
    b278:	d6 01       	movw	r26, r12
    b27a:	12 96       	adiw	r26, 0x02	; 2
    b27c:	8c 91       	ld	r24, X
    b27e:	12 97       	sbiw	r26, 0x02	; 2
    b280:	8a 15       	cp	r24, r10
    b282:	1b 04       	cpc	r1, r11
    b284:	09 f0       	breq	.+2      	; 0xb288 <main+0x1352>
    b286:	0c f4       	brge	.+2      	; 0xb28a <main+0x1354>
    b288:	40 c0       	rjmp	.+128    	; 0xb30a <main+0x13d4>
C:\Users\dax\Google Drive\GitLocalRepositories\K197Display/UImenu.cpp:137
    items[i]->draw(u8g2, x, y, width, i == selectedItem ? true : false);
    b28a:	ed 91       	ld	r30, X+
    b28c:	fc 91       	ld	r31, X
    b28e:	11 97       	sbiw	r26, 0x01	; 1
    b290:	e4 0d       	add	r30, r4
    b292:	f5 1d       	adc	r31, r5
    b294:	80 81       	ld	r24, Z
    b296:	91 81       	ldd	r25, Z+1	; 0x01
    b298:	14 96       	adiw	r26, 0x04	; 4
    b29a:	2c 91       	ld	r18, X
    b29c:	ee 24       	eor	r14, r14
    b29e:	e3 94       	inc	r14
    b2a0:	2a 15       	cp	r18, r10
    b2a2:	1b 04       	cpc	r1, r11
    b2a4:	09 f0       	breq	.+2      	; 0xb2a8 <main+0x1372>
    b2a6:	e1 2c       	mov	r14, r1
    b2a8:	f6 01       	movw	r30, r12
    b2aa:	05 81       	ldd	r16, Z+5	; 0x05
    b2ac:	16 81       	ldd	r17, Z+6	; 0x06
    b2ae:	dc 01       	movw	r26, r24
    b2b0:	ed 91       	ld	r30, X+
    b2b2:	fc 91       	ld	r31, X
    b2b4:	02 80       	ldd	r0, Z+2	; 0x02
    b2b6:	f3 81       	ldd	r31, Z+3	; 0x03
    b2b8:	e0 2d       	mov	r30, r0
    b2ba:	93 01       	movw	r18, r6
    b2bc:	50 e0       	ldi	r21, 0x00	; 0
    b2be:	40 e0       	ldi	r20, 0x00	; 0
    b2c0:	63 ee       	ldi	r22, 0xE3	; 227
    b2c2:	7e e6       	ldi	r23, 0x6E	; 110
    b2c4:	09 95       	icall
C:\Users\dax\Google Drive\GitLocalRepositories\K197Display/UImenu.cpp:138
    y += items[i]->getHeight(i == selectedItem ? true : false);
    b2c6:	d6 01       	movw	r26, r12
    b2c8:	ed 91       	ld	r30, X+
    b2ca:	fc 91       	ld	r31, X
    b2cc:	11 97       	sbiw	r26, 0x01	; 1
    b2ce:	e4 0d       	add	r30, r4
    b2d0:	f5 1d       	adc	r31, r5
    b2d2:	80 81       	ld	r24, Z
    b2d4:	91 81       	ldd	r25, Z+1	; 0x01
    b2d6:	14 96       	adiw	r26, 0x04	; 4
    b2d8:	2c 91       	ld	r18, X
    b2da:	61 e0       	ldi	r22, 0x01	; 1
    b2dc:	2a 15       	cp	r18, r10
    b2de:	1b 04       	cpc	r1, r11
    b2e0:	09 f0       	breq	.+2      	; 0xb2e4 <main+0x13ae>
    b2e2:	60 e0       	ldi	r22, 0x00	; 0
    b2e4:	dc 01       	movw	r26, r24
    b2e6:	ed 91       	ld	r30, X+
    b2e8:	fc 91       	ld	r31, X
    b2ea:	01 90       	ld	r0, Z+
    b2ec:	f0 81       	ld	r31, Z
    b2ee:	e0 2d       	mov	r30, r0
    b2f0:	09 95       	icall
    b2f2:	68 0e       	add	r6, r24
    b2f4:	79 1e       	adc	r7, r25
    b2f6:	b2 e0       	ldi	r27, 0x02	; 2
    b2f8:	4b 0e       	add	r4, r27
    b2fa:	51 1c       	adc	r5, r1
C:\Users\dax\Google Drive\GitLocalRepositories\K197Display/UImenu.cpp:139
    if (y > ymax)
    b2fc:	86 14       	cp	r8, r6
    b2fe:	97 04       	cpc	r9, r7
    b300:	20 f0       	brcs	.+8      	; 0xb30a <main+0x13d4>
C:\Users\dax\Google Drive\GitLocalRepositories\K197Display/UImenu.cpp:136
  u8g2->setDrawColor(0);
  u8g2_uint_t ymax = u8g2->getDisplayHeight();
  makeSelectedItemVisible(y, ymax);
  u8g2->drawBox(x, y, width, ymax - y);
  u8g2->setDrawColor(1);
  for (int i = firstVisibleItem; i < num_items; i++) {
    b302:	ef ef       	ldi	r30, 0xFF	; 255
    b304:	ae 1a       	sub	r10, r30
    b306:	be 0a       	sbc	r11, r30
    b308:	b7 cf       	rjmp	.-146    	; 0xb278 <main+0x1342>
u8g2_SetFontMode():
E:\Users\puzzole\Documents\Arduino\libraries\U8g2\src\clib/u8g2_font.c:933
    b30a:	10 92 50 6f 	sts	0x6F50, r1	; 0x806f50 <u8g2+0x6d>
_ZN4U8G212setDrawColorEh():
E:\Users\puzzole\Documents\Arduino\libraries\U8g2\src/U8g2lib.h:218
    b30e:	61 e0       	ldi	r22, 0x01	; 1
    b310:	87 ee       	ldi	r24, 0xE7	; 231
    b312:	9e e6       	ldi	r25, 0x6E	; 110
    b314:	0e 94 9b 35 	call	0x6b36	; 0x6b36 <u8g2_SetDrawColor>
u8g2_SetFontPosTop():
E:\Users\puzzole\Documents\Arduino\libraries\U8g2\src\clib/u8g2_font.c:1259
  return tmp;
}

void u8g2_SetFontPosTop(u8g2_t *u8g2)
{
  u8g2->font_calc_vref = u8g2_font_calc_vref_top;
    b318:	8a e0       	ldi	r24, 0x0A	; 10
    b31a:	9e e2       	ldi	r25, 0x2E	; 46
    b31c:	80 93 43 6f 	sts	0x6F43, r24	; 0x806f43 <u8g2+0x60>
    b320:	90 93 44 6f 	sts	0x6F44, r25	; 0x806f44 <u8g2+0x61>
u8g2_SetFontRefHeightExtendedText():
E:\Users\puzzole\Documents\Arduino\libraries\U8g2\src\clib/u8g2_font.c:1214
  u8g2_UpdateRefHeight(u8g2);
}

void u8g2_SetFontRefHeightExtendedText(u8g2_t *u8g2)
{
  u8g2->font_height_mode = U8G2_FONT_HEIGHT_MODE_XTEXT;
    b324:	81 e0       	ldi	r24, 0x01	; 1
    b326:	80 93 6c 6f 	sts	0x6F6C, r24	; 0x806f6c <u8g2+0x89>
E:\Users\puzzole\Documents\Arduino\libraries\U8g2\src\clib/u8g2_font.c:1215
  u8g2_UpdateRefHeight(u8g2);
    b32a:	87 ee       	ldi	r24, 0xE7	; 231
    b32c:	9e e6       	ldi	r25, 0x6E	; 110
    b32e:	0e 94 17 37 	call	0x6e2e	; 0x6e2e <u8g2_UpdateRefHeight>
u8g2_SetFontDirection():
E:\Users\puzzole\Documents\Arduino\libraries\U8g2\src\clib/u8g2_font.c:1537


void u8g2_SetFontDirection(u8g2_t *u8g2, uint8_t dir)
{
#ifdef U8G2_WITH_FONT_ROTATION  
  u8g2->font_decode.dir = dir;
    b332:	10 92 53 6f 	sts	0x6F53, r1	; 0x806f53 <u8g2+0x70>
_ZN4U8G210sendBufferEv():
E:\Users\puzzole\Documents\Arduino\libraries\U8g2\src/U8g2lib.h:187
    u8g2_uint_t getDisplayHeight(void) { return u8g2_GetDisplayHeight(&u8g2); }
    u8g2_uint_t getDisplayWidth(void) { return u8g2_GetDisplayWidth(&u8g2); }

    
    /* u8g2_buffer.c */
    void sendBuffer(void) { u8g2_SendBuffer(&u8g2); }
    b336:	0e 94 7c 3b 	call	0x76f8	; 0x76f8 <u8g2_SendBuffer.constprop.149>
updateSplitScreen():
C:\Users\dax\Google Drive\GitLocalRepositories\K197Display/UImanager.cpp:246
    u8g2.drawLog(0, 0, u8g2log);    // draw the terminal window on the display
  } else { // For all other modes we show the settings menu when in split mode
    UImenu::getCurrentMenu()->draw(&u8g2, 0, 10);
  }
  u8g2.sendBuffer();
  dxUtil.checkFreeStack();
    b33a:	0e 94 12 2c 	call	0x5824	; 0x5824 <dxUtilClass::checkFreeStack() [clone .constprop.157]>
updateDisplay():
C:\Users\dax\Google Drive\GitLocalRepositories\K197Display/UImanager.cpp:177
    updateSplitScreen();
  else if (k197dev.isCal() || (getScreenMode() == K197sc_normal))
    updateNormalScreen();
  else
    updateMinMaxScreen();
  dxUtil.checkFreeStack();
    b33e:	0e 94 12 2c 	call	0x5824	; 0x5824 <dxUtilClass::checkFreeStack() [clone .constprop.157]>
_ZN10K197device5isCalEv():
C:\Users\dax\Google Drive\GitLocalRepositories\K197Display/K197device.h:355
    b342:	80 91 a6 6f 	lds	r24, 0x6FA6	; 0x806fa6 <k197dev+0x10>
    b346:	80 ff       	sbrs	r24, 0
    b348:	2a c5       	rjmp	.+2644   	; 0xbd9e <main+0x1e68>
loop():
C:\Users\dax\Google Drive\GitLocalRepositories\K197Display/K197Display.ino:407
      PROFILE_println(DebugOut.PROFILE_DISPLAY, F("Time in updateDisplay()"));
      PROFILE_start(DebugOut.PROFILE_DISPLAY);
      uiman.logData();
      PROFILE_stop(DebugOut.PROFILE_DISPLAY);
      PROFILE_println(DebugOut.PROFILE_DISPLAY, F("Time in logData()"));
      dxUtil.checkFreeStack();
    b34a:	0e 94 12 2c 	call	0x5824	; 0x5824 <dxUtilClass::checkFreeStack() [clone .constprop.157]>
C:\Users\dax\Google Drive\GitLocalRepositories\K197Display/K197Display.ino:408
      __asm__ __volatile__("wdr" ::);
    b34e:	a8 95       	wdr
digitalReadFast():
C:\Users\dax\AppData\Local\Arduino15\packages\DxCore\hardware\megaavr\1.4.10\cores\dxcore/wiring_digital.c:494

  // Old style port logic is a small integer 0 for PORTA, 1 for PORTB etc.
  vport = (VPORT_t *)(port * 4);

  // Read pin value from VPORTx.IN register
  return !!(vport->IN & mask);
    b350:	92 b1       	in	r25, 0x02	; 2
    b352:	81 e0       	ldi	r24, 0x01	; 1
    b354:	29 2f       	mov	r18, r25
    b356:	24 70       	andi	r18, 0x04	; 4
    b358:	92 ff       	sbrs	r25, 2
    b35a:	80 e0       	ldi	r24, 0x00	; 0
checkPresence():
C:\Users\dax\Google Drive\GitLocalRepositories\K197Display/BTmanager.cpp:123
      @return the result of the check
*/
BTmanagerResult BTmanager::checkPresence() {
#ifdef BT_POWER
  bool bt_module_present_now = digitalReadFast(BT_POWER);
  if (bt_module_present == bt_module_present_now)
    b35c:	90 91 c0 6f 	lds	r25, 0x6FC0	; 0x806fc0 <BTman>
    b360:	98 17       	cp	r25, r24
    b362:	b1 f0       	breq	.+44     	; 0xb390 <main+0x145a>
C:\Users\dax\Google Drive\GitLocalRepositories\K197Display/BTmanager.cpp:125
    return BTmoduleOn; // Nothing to do
  bt_module_present = bt_module_present_now;
    b364:	80 93 c0 6f 	sts	0x6FC0, r24	; 0x806fc0 <BTman>
C:\Users\dax\Google Drive\GitLocalRepositories\K197Display/BTmanager.cpp:126
  if (bt_module_present) { // Module was turned on after setup().
    b368:	22 23       	and	r18, r18
    b36a:	09 f4       	brne	.+2      	; 0xb36e <main+0x1438>
    b36c:	24 c6       	rjmp	.+3144   	; 0xbfb6 <main+0x2080>
C:\Users\dax\Google Drive\GitLocalRepositories\K197Display/BTmanager.cpp:127
    Serial.begin(
    b36e:	40 e0       	ldi	r20, 0x00	; 0
    b370:	52 ec       	ldi	r21, 0xC2	; 194
    b372:	61 e0       	ldi	r22, 0x01	; 1
    b374:	70 e0       	ldi	r23, 0x00	; 0
    b376:	81 e4       	ldi	r24, 0x41	; 65
    b378:	94 e6       	ldi	r25, 0x64	; 100
    b37a:	0e 94 dc 3f 	call	0x7fb8	; 0x7fb8 <UartClass::begin(unsigned long)>
_ZN9debugUtil9useSerialEb():
C:\Users\dax\Google Drive\GitLocalRepositories\K197Display/debugUtil.h:96

     PREREQUISITES: Serial.begin() must be called if Serial output is enabled

     @param serial enable Serial output if true, disable if false
  */
  void useSerial(bool serial) { use_serial = serial; };
    b37e:	81 e0       	ldi	r24, 0x01	; 1
    b380:	80 93 49 66 	sts	0x6649, r24	; 0x806649 <DebugOut+0x4>
checkPresence():
C:\Users\dax\Google Drive\GitLocalRepositories\K197Display/BTmanager.cpp:131
        115200); // Note: If this is the second time Serial.begin is called, a
                 // bug in Serial may hang the SW, and cause a WDT reset
    DebugOut.useSerial(true);
    DebugOut.println(F("BT turned on"));
    b384:	68 e6       	ldi	r22, 0x68	; 104
    b386:	78 e0       	ldi	r23, 0x08	; 8
C:\Users\dax\Google Drive\GitLocalRepositories\K197Display/BTmanager.cpp:139
    Serial.end();
    BT_USART.CTRLB &= (~(USART_RXEN_bm |
                         USART_TXEN_bm)); // Disable RX and TX for good measure
    pinConfigure(SERIAL_TX, PIN_DIR_OUTPUT | PIN_OUT_LOW | PIN_INPUT_ENABLE);
    pinConfigure(SERIAL_RX, PIN_DIR_INPUT | PIN_PULLUP_OFF);
    DebugOut.println(F("BT turned off"));
    b388:	85 e4       	ldi	r24, 0x45	; 69
    b38a:	96 e6       	ldi	r25, 0x66	; 102
    b38c:	0e 94 f8 43 	call	0x87f0	; 0x87f0 <Print::println(__FlashStringHelper const*)>
checkConnection():
C:\Users\dax\Google Drive\GitLocalRepositories\K197Display/BTmanager.cpp:86

      @return the result of the check

*/
BTmanagerResult BTmanager::checkConnection() {
  dxUtil.checkFreeStack();
    b390:	0e 94 12 2c 	call	0x5824	; 0x5824 <dxUtilClass::checkFreeStack() [clone .constprop.157]>
C:\Users\dax\Google Drive\GitLocalRepositories\K197Display/BTmanager.cpp:88
  bool bt_module_connected_now;
  if (BT_STATE_VPORT.IN & BT_STATE_bm) { // BT_STATE == HIGH
    b394:	15 99       	sbic	0x02, 5	; 2
    b396:	33 c6       	rjmp	.+3174   	; 0xbffe <main+0x20c8>
C:\Users\dax\Google Drive\GitLocalRepositories\K197Display/BTmanager.cpp:90
    bt_module_connected_now = false;     // no connection
  } else if (bt_module_present) { // BT_STATE == LOW ==> connected if BT module
    b398:	80 91 c0 6f 	lds	r24, 0x6FC0	; 0x806fc0 <BTman>
C:\Users\dax\Google Drive\GitLocalRepositories\K197Display/BTmanager.cpp:96
                                  // present
    bt_module_connected_now = true;
  } else { // cannot be connected if BT module not present
    bt_module_connected_now = false;
  }
  if (bt_module_connected == bt_module_connected_now)
    b39c:	90 91 c1 6f 	lds	r25, 0x6FC1	; 0x806fc1 <BTman+0x1>
    b3a0:	98 17       	cp	r25, r24
    b3a2:	51 f0       	breq	.+20     	; 0xb3b8 <main+0x1482>
C:\Users\dax\Google Drive\GitLocalRepositories\K197Display/BTmanager.cpp:98
    return bt_module_connected ? BTmoduleOn : BTmoduleOff;
  bt_module_connected = bt_module_connected_now;
    b3a4:	80 93 c1 6f 	sts	0x6FC1, r24	; 0x806fc1 <BTman+0x1>
C:\Users\dax\Google Drive\GitLocalRepositories\K197Display/BTmanager.cpp:99
  return bt_module_connected ? BTmoduleTurnedOn : BTmoduleTurnedOff;
    b3a8:	81 11       	cpse	r24, r1
    b3aa:	06 c0       	rjmp	.+12     	; 0xb3b8 <main+0x1482>
setLogging():
C:\Users\dax\Google Drive\GitLocalRepositories\K197Display/UImanager.cpp:701
      @brief  set data logging to Serial
      @param yesno true to enabl, false to disable
*/
void UImanager::setLogging(bool yesno) {
  if (!yesno)
    logskip_counter = 0;
    b3ac:	10 92 81 6f 	sts	0x6F81, r1	; 0x806f81 <uiman+0x8>
_ZN13MenuInputBool8setValueEb():
C:\Users\dax\Google Drive\GitLocalRepositories\K197Display/UImenu.h:285
      : UIMenuButtonItem(height, text){};
  /*!
     @brief  set the value for this item
     @param newValue the new value that will be assigned to the item
  */
  void setValue(bool newValue) { value = newValue; };
    b3b0:	10 92 81 6e 	sts	0x6E81, r1	; 0x806e81 <logEnable+0x6>
setLogging():
C:\Users\dax\Google Drive\GitLocalRepositories\K197Display/UImanager.cpp:703
  logEnable.setValue(yesno);
  dxUtil.checkFreeStack();
    b3b4:	0e 94 12 2c 	call	0x5824	; 0x5824 <dxUtilClass::checkFreeStack() [clone .constprop.157]>
    b3b8:	80 91 7f 6f 	lds	r24, 0x6F7F	; 0x806f7f <uiman+0x6>
    b3bc:	90 91 80 6f 	lds	r25, 0x6F80	; 0x806f80 <uiman+0x7>
_ZN10K197device5isCalEv():
C:\Users\dax\Google Drive\GitLocalRepositories\K197Display/K197device.h:355
    b3c0:	20 91 a6 6f 	lds	r18, 0x6FA6	; 0x806fa6 <k197dev+0x10>
    b3c4:	20 fd       	sbrc	r18, 0
    b3c6:	02 c0       	rjmp	.+4      	; 0xb3cc <main+0x1496>
_ZN9UImanager12isFullScreenEv.isra.2():
C:\Users\dax\Google Drive\GitLocalRepositories\K197Display/UImanager.h:102
  /*!
     @brief  check if display is in full screen mode
     @return true if in full screen mode
  */
  bool isFullScreen() {
    return k197dev.isCal() ||
    b3c8:	84 ff       	sbrs	r24, 4
    b3ca:	4d c0       	rjmp	.+154    	; 0xb466 <main+0x1530>
_ZN9UImanager13getScreenModeEv():
C:\Users\dax\Google Drive\GitLocalRepositories\K197Display/UImanager.h:90
     @brief  get the screen mode
     @return screen mode, it must be one of the displayXXX constants defined in
     class UImanager
  */
  K197screenMode getScreenMode() {
    return (K197screenMode)(screen_mode & K197sc_ScreenModeMask);
    b3cc:	8f 70       	andi	r24, 0x0F	; 15
    b3ce:	99 27       	eor	r25, r25
updateBtStatus():
C:\Users\dax\Google Drive\GitLocalRepositories\K197Display/UImanager.cpp:524

      @param present true if a BT module is detected, false otherwise
      @param connected true if a BT connection is detected, false otherwise
*/
void UImanager::updateBtStatus() {
  if (isSplitScreen() ||
    b3d0:	01 97       	sbiw	r24, 0x01	; 1
    b3d2:	09 f0       	breq	.+2      	; 0xb3d6 <main+0x14a0>
    b3d4:	48 c0       	rjmp	.+144    	; 0xb466 <main+0x1530>
_ZN4U8G29setCursorEjj():
E:\Users\puzzole\Documents\Arduino\libraries\U8g2\src/U8g2lib.h:386
     /* LiquidCrystal compatible functions */
    void home(void) { tx = 0; ty = 0;  u8x8_utf8_init(u8g2_GetU8x8(&u8g2)); }
    void clear(void) { home(); clearDisplay(); clearBuffer();  }
    void noDisplay(void) { u8g2_SetPowerSave(&u8g2, 1); }
    void display(void) { u8g2_SetPowerSave(&u8g2, 0); }
    void setCursor(u8g2_uint_t x, u8g2_uint_t y) { tx = x; ty = y; }
    b3d6:	8f e5       	ldi	r24, 0x5F	; 95
    b3d8:	90 e0       	ldi	r25, 0x00	; 0
    b3da:	80 93 75 6f 	sts	0x6F75, r24	; 0x806f75 <u8g2+0x92>
    b3de:	90 93 76 6f 	sts	0x6F76, r25	; 0x806f76 <u8g2+0x93>
    b3e2:	a2 e0       	ldi	r26, 0x02	; 2
    b3e4:	b0 e0       	ldi	r27, 0x00	; 0
    b3e6:	a0 93 77 6f 	sts	0x6F77, r26	; 0x806f77 <u8g2+0x94>
    b3ea:	b0 93 78 6f 	sts	0x6F78, r27	; 0x806f78 <u8g2+0x95>
_ZN4U8G27setFontEPKh():
E:\Users\puzzole\Documents\Arduino\libraries\U8g2\src/U8g2lib.h:266
    /* u8log_u8g2.c */
    void drawLog(u8g2_uint_t x, u8g2_uint_t y, class U8G2LOG &u8g2log);
    
    /* u8g2_font.c */

    void setFont(const uint8_t  *font) {u8g2_SetFont(&u8g2, font); }
    b3ee:	65 e2       	ldi	r22, 0x25	; 37
    b3f0:	73 e5       	ldi	r23, 0x53	; 83
    b3f2:	87 ee       	ldi	r24, 0xE7	; 231
    b3f4:	9e e6       	ldi	r25, 0x6E	; 110
    b3f6:	0e 94 57 38 	call	0x70ae	; 0x70ae <u8g2_SetFont>
updateBtStatus():
C:\Users\dax\Google Drive\GitLocalRepositories\K197Display/UImanager.cpp:532
  }
  unsigned int x = 95;
  unsigned int y = 2;
  u8g2.setCursor(x, y);
  u8g2.setFont(u8g2_font_5x7_mr);
  if (BTman.isPresent()) {
    b3fa:	80 91 c0 6f 	lds	r24, 0x6FC0	; 0x806fc0 <BTman>
C:\Users\dax\Google Drive\GitLocalRepositories\K197Display/UImanager.cpp:533
    u8g2.print(F("bt "));
    b3fe:	63 e9       	ldi	r22, 0x93	; 147
    b400:	78 e0       	ldi	r23, 0x08	; 8
C:\Users\dax\Google Drive\GitLocalRepositories\K197Display/UImanager.cpp:532
  }
  unsigned int x = 95;
  unsigned int y = 2;
  u8g2.setCursor(x, y);
  u8g2.setFont(u8g2_font_5x7_mr);
  if (BTman.isPresent()) {
    b402:	81 11       	cpse	r24, r1
    b404:	02 c0       	rjmp	.+4      	; 0xb40a <main+0x14d4>
C:\Users\dax\Google Drive\GitLocalRepositories\K197Display/UImanager.cpp:535
    u8g2.print(F("bt "));
  } else {
    u8g2.print(F("   "));
    b406:	6f e8       	ldi	r22, 0x8F	; 143
    b408:	78 e0       	ldi	r23, 0x08	; 8
    b40a:	83 ee       	ldi	r24, 0xE3	; 227
    b40c:	9e e6       	ldi	r25, 0x6E	; 110
    b40e:	0e 94 1a 2e 	call	0x5c34	; 0x5c34 <Print::print(__FlashStringHelper const*)>
u8g2_GetStrWidth():
E:\Users\puzzole\Documents\Arduino\libraries\U8g2\src\clib/u8g2_font.c:1504



u8g2_uint_t u8g2_GetStrWidth(u8g2_t *u8g2, const char *s)
{
  u8g2->u8x8.next_cb = u8x8_ascii_next;
    b412:	e6 e9       	ldi	r30, 0x96	; 150
    b414:	fb e2       	ldi	r31, 0x2B	; 43
    b416:	e0 93 e9 6e 	sts	0x6EE9, r30	; 0x806ee9 <u8g2+0x6>
    b41a:	f0 93 ea 6e 	sts	0x6EEA, r31	; 0x806eea <u8g2+0x7>
E:\Users\puzzole\Documents\Arduino\libraries\U8g2\src\clib/u8g2_font.c:1505
  return u8g2_string_width(u8g2, s);
    b41e:	0e 94 45 39 	call	0x728a	; 0x728a <u8g2_string_width.constprop.86>
updateBtStatus():
C:\Users\dax\Google Drive\GitLocalRepositories\K197Display/UImanager.cpp:537
  }
  x += u8g2.getStrWidth("   ");
    b422:	81 5a       	subi	r24, 0xA1	; 161
    b424:	9f 4f       	sbci	r25, 0xFF	; 255
_ZN4U8G29setCursorEjj():
E:\Users\puzzole\Documents\Arduino\libraries\U8g2\src/U8g2lib.h:386
     /* LiquidCrystal compatible functions */
    void home(void) { tx = 0; ty = 0;  u8x8_utf8_init(u8g2_GetU8x8(&u8g2)); }
    void clear(void) { home(); clearDisplay(); clearBuffer();  }
    void noDisplay(void) { u8g2_SetPowerSave(&u8g2, 1); }
    void display(void) { u8g2_SetPowerSave(&u8g2, 0); }
    void setCursor(u8g2_uint_t x, u8g2_uint_t y) { tx = x; ty = y; }
    b426:	80 93 75 6f 	sts	0x6F75, r24	; 0x806f75 <u8g2+0x92>
    b42a:	90 93 76 6f 	sts	0x6F76, r25	; 0x806f76 <u8g2+0x93>
    b42e:	02 e0       	ldi	r16, 0x02	; 2
    b430:	10 e0       	ldi	r17, 0x00	; 0
    b432:	00 93 77 6f 	sts	0x6F77, r16	; 0x806f77 <u8g2+0x94>
    b436:	10 93 78 6f 	sts	0x6F78, r17	; 0x806f78 <u8g2+0x95>
updateBtStatus():
C:\Users\dax\Google Drive\GitLocalRepositories\K197Display/UImanager.cpp:540
  u8g2.setCursor(x, y);
  bool connected = BTman.isConnected();
  if (connected && isLogging()) {
    b43a:	80 91 c1 6f 	lds	r24, 0x6FC1	; 0x806fc1 <BTman+0x1>
C:\Users\dax\Google Drive\GitLocalRepositories\K197Display/UImanager.cpp:545
    u8g2.print(F("<=>"));
  } else if (connected) {
    u8g2.print(F("<->"));
  } else {
    u8g2.print(F("   "));
    b43e:	63 e8       	ldi	r22, 0x83	; 131
    b440:	78 e0       	ldi	r23, 0x08	; 8
C:\Users\dax\Google Drive\GitLocalRepositories\K197Display/UImanager.cpp:540
    u8g2.print(F("   "));
  }
  x += u8g2.getStrWidth("   ");
  u8g2.setCursor(x, y);
  bool connected = BTman.isConnected();
  if (connected && isLogging()) {
    b442:	88 23       	and	r24, r24
    b444:	41 f0       	breq	.+16     	; 0xb456 <main+0x1520>
    b446:	80 91 81 6e 	lds	r24, 0x6E81	; 0x806e81 <logEnable+0x6>
C:\Users\dax\Google Drive\GitLocalRepositories\K197Display/UImanager.cpp:541
    u8g2.print(F("<=>"));
    b44a:	6b e8       	ldi	r22, 0x8B	; 139
    b44c:	78 e0       	ldi	r23, 0x08	; 8
C:\Users\dax\Google Drive\GitLocalRepositories\K197Display/UImanager.cpp:540
    u8g2.print(F("   "));
  }
  x += u8g2.getStrWidth("   ");
  u8g2.setCursor(x, y);
  bool connected = BTman.isConnected();
  if (connected && isLogging()) {
    b44e:	81 11       	cpse	r24, r1
    b450:	02 c0       	rjmp	.+4      	; 0xb456 <main+0x1520>
C:\Users\dax\Google Drive\GitLocalRepositories\K197Display/UImanager.cpp:543
    u8g2.print(F("<=>"));
  } else if (connected) {
    u8g2.print(F("<->"));
    b452:	67 e8       	ldi	r22, 0x87	; 135
    b454:	78 e0       	ldi	r23, 0x08	; 8
C:\Users\dax\Google Drive\GitLocalRepositories\K197Display/UImanager.cpp:545
  } else {
    u8g2.print(F("   "));
    b456:	83 ee       	ldi	r24, 0xE3	; 227
    b458:	9e e6       	ldi	r25, 0x6E	; 110
    b45a:	0e 94 1a 2e 	call	0x5c34	; 0x5c34 <Print::print(__FlashStringHelper const*)>
_ZN4U8G210sendBufferEv():
E:\Users\puzzole\Documents\Arduino\libraries\U8g2\src/U8g2lib.h:187
    u8g2_uint_t getDisplayHeight(void) { return u8g2_GetDisplayHeight(&u8g2); }
    u8g2_uint_t getDisplayWidth(void) { return u8g2_GetDisplayWidth(&u8g2); }

    
    /* u8g2_buffer.c */
    void sendBuffer(void) { u8g2_SendBuffer(&u8g2); }
    b45e:	0e 94 7c 3b 	call	0x76f8	; 0x76f8 <u8g2_SendBuffer.constprop.149>
updateBtStatus():
C:\Users\dax\Google Drive\GitLocalRepositories\K197Display/UImanager.cpp:548
  }
  u8g2.sendBuffer();
  dxUtil.checkFreeStack();
    b462:	0e 94 12 2c 	call	0x5824	; 0x5824 <dxUtilClass::checkFreeStack() [clone .constprop.157]>
_ZN9SPIdevice17collisionDetectedEv.isra.0():
C:\Users\dax\Google Drive\GitLocalRepositories\K197Display/SPIdevice.h:61
  /*!
      @brief  check if a buffer overflow has been detected by the SPI peripheral
      @return true if collision detcted (buffer overflow)
  */
  bool collisionDetected() {
    return SPI1.INTFLAGS & SPI_BUFOVF_bm ? true : false;
    b466:	80 91 63 09 	lds	r24, 0x0963	; 0x800963 <__TEXT_REGION_LENGTH__+0x7f0963>
    b46a:	81 70       	andi	r24, 0x01	; 1
loop():
C:\Users\dax\Google Drive\GitLocalRepositories\K197Display/K197Display.ino:419
    uiman.updateBtStatus();
    PROFILE_stop(DebugOut.PROFILE_DISPLAY);
    PROFILE_println(DebugOut.PROFILE_DISPLAY, F("Time in BT checks()"));
  }
  bool collision = k197dev.collisionDetected();
  if (collision != collisionStatus) {
    b46c:	90 91 ed 63 	lds	r25, 0x63ED	; 0x8063ed <collisionStatus>
    b470:	98 17       	cp	r25, r24
    b472:	a1 f0       	breq	.+40     	; 0xb49c <main+0x1566>
C:\Users\dax\Google Drive\GitLocalRepositories\K197Display/K197Display.ino:420
    collisionStatus = collision;
    b474:	80 93 ed 63 	sts	0x63ED, r24	; 0x8063ed <collisionStatus>
C:\Users\dax\Google Drive\GitLocalRepositories\K197Display/K197Display.ino:421
    DebugOut.println(F("Collision "));
    b478:	62 eb       	ldi	r22, 0xB2	; 178
    b47a:	78 e0       	ldi	r23, 0x08	; 8
    b47c:	85 e4       	ldi	r24, 0x45	; 69
    b47e:	96 e6       	ldi	r25, 0x66	; 102
    b480:	0e 94 f8 43 	call	0x87f0	; 0x87f0 <Print::println(__FlashStringHelper const*)>
C:\Users\dax\Google Drive\GitLocalRepositories\K197Display/K197Display.ino:422
    if (collisionStatus) {
    b484:	80 91 ed 63 	lds	r24, 0x63ED	; 0x8063ed <collisionStatus>
C:\Users\dax\Google Drive\GitLocalRepositories\K197Display/K197Display.ino:423
      DebugOut.println(F("DETECTED"));
    b488:	69 ea       	ldi	r22, 0xA9	; 169
    b48a:	78 e0       	ldi	r23, 0x08	; 8
C:\Users\dax\Google Drive\GitLocalRepositories\K197Display/K197Display.ino:422
  }
  bool collision = k197dev.collisionDetected();
  if (collision != collisionStatus) {
    collisionStatus = collision;
    DebugOut.println(F("Collision "));
    if (collisionStatus) {
    b48c:	81 11       	cpse	r24, r1
    b48e:	02 c0       	rjmp	.+4      	; 0xb494 <main+0x155e>
C:\Users\dax\Google Drive\GitLocalRepositories\K197Display/K197Display.ino:425
      DebugOut.println(F("DETECTED"));
    } else {
      DebugOut.println(F("cleared"));
    b490:	61 ea       	ldi	r22, 0xA1	; 161
    b492:	78 e0       	ldi	r23, 0x08	; 8
    b494:	85 e4       	ldi	r24, 0x45	; 69
    b496:	96 e6       	ldi	r25, 0x66	; 102
    b498:	0e 94 f8 43 	call	0x87f0	; 0x87f0 <Print::println(__FlashStringHelper const*)>
checkNew():
C:\Users\dax\Google Drive\GitLocalRepositories\K197Display/K197PushButtons.cpp:478

    It will check if the button pin changed status, debounce and call the call
   back for the relevant events
*/
void k197ButtonCluster::checkNew() {
  unsigned long now = micros();
    b49c:	0e 94 b1 30 	call	0x6162	; 0x6162 <micros>
    b4a0:	4b 01       	movw	r8, r22
    b4a2:	5c 01       	movw	r10, r24
    b4a4:	33 e3       	ldi	r19, 0x33	; 51
    b4a6:	c3 2e       	mov	r12, r19
    b4a8:	30 e6       	ldi	r19, 0x60	; 96
    b4aa:	d3 2e       	mov	r13, r19
main():
C:\Users\dax\Google Drive\GitLocalRepositories\K197Display/K197PushButtons.cpp:479
  for (int i = 0; i < 4; i++) {
    b4ac:	10 e0       	ldi	r17, 0x00	; 0
    b4ae:	00 e0       	ldi	r16, 0x00	; 0
checkNew():
C:\Users\dax\Google Drive\GitLocalRepositories\K197Display/K197PushButtons.cpp:480
    if (buttonState[i] == BUTTON_PRESSED_STATE) {
    b4b0:	d6 01       	movw	r26, r12
    b4b2:	8d 91       	ld	r24, X+
    b4b4:	6d 01       	movw	r12, r26
    b4b6:	81 11       	cpse	r24, r1
    b4b8:	33 c0       	rjmp	.+102    	; 0xb520 <main+0x15ea>
    b4ba:	c8 01       	movw	r24, r16
    b4bc:	88 0f       	add	r24, r24
    b4be:	99 1f       	adc	r25, r25
    b4c0:	88 0f       	add	r24, r24
    b4c2:	99 1f       	adc	r25, r25
checkPressed():
C:\Users\dax\Google Drive\GitLocalRepositories\K197Display/K197PushButtons.cpp:521
    @param i the array index assigned to the push button
    @param now the current value of micros()
*/
void k197ButtonCluster::checkPressed(uint8_t i, unsigned long now) {
  // if the button is already pressed, we handle LongPress & Hold
  if (now - startPressed[i] > longPressTime) {
    b4c4:	fc 01       	movw	r30, r24
    b4c6:	eb 5d       	subi	r30, 0xDB	; 219
    b4c8:	fb 49       	sbci	r31, 0x9B	; 155
    b4ca:	40 81       	ld	r20, Z
    b4cc:	51 81       	ldd	r21, Z+1	; 0x01
    b4ce:	62 81       	ldd	r22, Z+2	; 0x02
    b4d0:	73 81       	ldd	r23, Z+3	; 0x03
    b4d2:	24 01       	movw	r4, r8
    b4d4:	35 01       	movw	r6, r10
    b4d6:	44 1a       	sub	r4, r20
    b4d8:	55 0a       	sbc	r5, r21
    b4da:	66 0a       	sbc	r6, r22
    b4dc:	77 0a       	sbc	r7, r23
    b4de:	b1 e2       	ldi	r27, 0x21	; 33
    b4e0:	4b 16       	cp	r4, r27
    b4e2:	b1 ea       	ldi	r27, 0xA1	; 161
    b4e4:	5b 06       	cpc	r5, r27
    b4e6:	b7 e0       	ldi	r27, 0x07	; 7
    b4e8:	6b 06       	cpc	r6, r27
    b4ea:	71 04       	cpc	r7, r1
    b4ec:	c8 f0       	brcs	.+50     	; 0xb520 <main+0x15ea>
    b4ee:	fc 01       	movw	r30, r24
    b4f0:	eb 5f       	subi	r30, 0xFB	; 251
    b4f2:	fb 49       	sbci	r31, 0x9B	; 155
    b4f4:	7f 01       	movw	r14, r30
C:\Users\dax\Google Drive\GitLocalRepositories\K197Display/K197PushButtons.cpp:522
    if (startPressed[i] == lastHold[i]) { // 1st hold event is a LongPress
    b4f6:	80 81       	ld	r24, Z
    b4f8:	91 81       	ldd	r25, Z+1	; 0x01
    b4fa:	a2 81       	ldd	r26, Z+2	; 0x02
    b4fc:	b3 81       	ldd	r27, Z+3	; 0x03
    b4fe:	48 17       	cp	r20, r24
    b500:	59 07       	cpc	r21, r25
    b502:	6a 07       	cpc	r22, r26
    b504:	7b 07       	cpc	r23, r27
    b506:	09 f0       	breq	.+2      	; 0xb50a <main+0x15d4>
    b508:	7c c5       	rjmp	.+2808   	; 0xc002 <main+0x20cc>
C:\Users\dax\Google Drive\GitLocalRepositories\K197Display/K197PushButtons.cpp:523
      invoke_callback(i, UIeventLongPress);
    b50a:	62 e1       	ldi	r22, 0x12	; 18
    b50c:	70 e0       	ldi	r23, 0x00	; 0
C:\Users\dax\Google Drive\GitLocalRepositories\K197Display/K197PushButtons.cpp:526
      lastHold[i] = now;
    } else if (now - lastHold[i] > holdTime) { // hold event
      invoke_callback(i, UIeventHold);
    b50e:	c8 01       	movw	r24, r16
    b510:	0e 94 62 3f 	call	0x7ec4	; 0x7ec4 <invoke_callback(int, K197UIeventType)>
C:\Users\dax\Google Drive\GitLocalRepositories\K197Display/K197PushButtons.cpp:527
      lastHold[i] = now;
    b514:	d7 01       	movw	r26, r14
    b516:	8d 92       	st	X+, r8
    b518:	9d 92       	st	X+, r9
    b51a:	ad 92       	st	X+, r10
    b51c:	bc 92       	st	X, r11
    b51e:	13 97       	sbiw	r26, 0x03	; 3
checkNew():
C:\Users\dax\Google Drive\GitLocalRepositories\K197Display/K197PushButtons.cpp:479
    It will check if the button pin changed status, debounce and call the call
   back for the relevant events
*/
void k197ButtonCluster::checkNew() {
  unsigned long now = micros();
  for (int i = 0; i < 4; i++) {
    b520:	0f 5f       	subi	r16, 0xFF	; 255
    b522:	1f 4f       	sbci	r17, 0xFF	; 255
    b524:	04 30       	cpi	r16, 0x04	; 4
    b526:	11 05       	cpc	r17, r1
    b528:	19 f6       	brne	.-122    	; 0xb4b0 <main+0x157a>
C:\Users\dax\Google Drive\GitLocalRepositories\K197Display/K197PushButtons.cpp:485
    if (buttonState[i] == BUTTON_PRESSED_STATE) {
      checkPressed(i, now);
    }
  }

  cli();
    b52a:	f8 94       	cli
main():
C:\Users\dax\Google Drive\GitLocalRepositories\K197Display/K197PushButtons.cpp:183
    @details this function is thread safe, but the result may not be consistent
   with previous/following calls (see fifo_pull())
    @return the number of records currently in the FIFO queue
*/
static inline int fifo_getSize() {
  int size = 0;
    b52c:	d1 2c       	mov	r13, r1
    b52e:	c1 2c       	mov	r12, r1
C:\Users\dax\Google Drive\GitLocalRepositories\K197Display/K197PushButtons.cpp:184
  for (unsigned int i = 0; i < fifo_MAX_RECORDS; i++) {
    b530:	90 e0       	ldi	r25, 0x00	; 0
    b532:	80 e0       	ldi	r24, 0x00	; 0
fifo_getSize():
C:\Users\dax\Google Drive\GitLocalRepositories\K197Display/K197PushButtons.cpp:185
    if (fifo_records[i] != fifo_NO_DATA)
    b534:	fc 01       	movw	r30, r24
    b536:	e5 5d       	subi	r30, 0xD5	; 213
    b538:	ff 49       	sbci	r31, 0x9F	; 159
    b53a:	20 81       	ld	r18, Z
    b53c:	2f 3f       	cpi	r18, 0xFF	; 255
    b53e:	19 f0       	breq	.+6      	; 0xb546 <main+0x1610>
C:\Users\dax\Google Drive\GitLocalRepositories\K197Display/K197PushButtons.cpp:186
      size++;
    b540:	bf ef       	ldi	r27, 0xFF	; 255
    b542:	cb 1a       	sub	r12, r27
    b544:	db 0a       	sbc	r13, r27
C:\Users\dax\Google Drive\GitLocalRepositories\K197Display/K197PushButtons.cpp:184
   with previous/following calls (see fifo_pull())
    @return the number of records currently in the FIFO queue
*/
static inline int fifo_getSize() {
  int size = 0;
  for (unsigned int i = 0; i < fifo_MAX_RECORDS; i++) {
    b546:	01 96       	adiw	r24, 0x01	; 1
    b548:	88 30       	cpi	r24, 0x08	; 8
    b54a:	91 05       	cpc	r25, r1
    b54c:	99 f7       	brne	.-26     	; 0xb534 <main+0x15fe>
fifo_isFull():
C:\Users\dax\Google Drive\GitLocalRepositories\K197Display/K197PushButtons.cpp:209
   with previous/following calls (see fifo_pull())
    @return true if the FIFO queue is empty
*/
static inline bool fifo_isFull() {
  // If we do not have free space than the queue must be full
  return fifo_records[(fifo_rear + 1) % fifo_MAX_RECORDS] != fifo_NO_DATA;
    b54e:	ef b3       	in	r30, 0x1f	; 31
    b550:	f0 e0       	ldi	r31, 0x00	; 0
    b552:	31 96       	adiw	r30, 0x01	; 1
    b554:	e7 70       	andi	r30, 0x07	; 7
    b556:	ff 27       	eor	r31, r31
    b558:	e5 5d       	subi	r30, 0xD5	; 213
    b55a:	ff 49       	sbci	r31, 0x9F	; 159
    b55c:	00 81       	ld	r16, Z
checkNew():
C:\Users\dax\Google Drive\GitLocalRepositories\K197Display/K197PushButtons.cpp:488
  }

  cli();
  int8_t n = fifo_getSize();
  bool b = fifo_isFull();
  byte x = fifo_pull();
    b55e:	0e 94 2e 3f 	call	0x7e5c	; 0x7e5c <fifo_pull()>
    b562:	18 2f       	mov	r17, r24
C:\Users\dax\Google Drive\GitLocalRepositories\K197Display/K197PushButtons.cpp:489
  sei();
    b564:	78 94       	sei
C:\Users\dax\Google Drive\GitLocalRepositories\K197Display/K197PushButtons.cpp:490
  if (b) {
    b566:	0f 3f       	cpi	r16, 0xFF	; 255
    b568:	09 f1       	breq	.+66     	; 0xb5ac <main+0x1676>
C:\Users\dax\Google Drive\GitLocalRepositories\K197Display/K197PushButtons.cpp:491
    DebugOut.println(F("FIFO Full"));
    b56a:	67 e9       	ldi	r22, 0x97	; 151
    b56c:	78 e0       	ldi	r23, 0x08	; 8
    b56e:	85 e4       	ldi	r24, 0x45	; 69
    b570:	96 e6       	ldi	r25, 0x66	; 102
    b572:	0e 94 f8 43 	call	0x87f0	; 0x87f0 <Print::println(__FlashStringHelper const*)>
print():
C:\Users\dax\AppData\Local\Arduino15\packages\DxCore\hardware\megaavr\1.4.10\cores\dxcore\api/Print.cpp:78
  return print((unsigned long) b, base);
}

size_t Print::print(int n, int base)
{
  return print((long) n, base);
    b576:	0c 2c       	mov	r0, r12
    b578:	00 0c       	add	r0, r0
    b57a:	dd 08       	sbc	r13, r13
    b57c:	ee 08       	sbc	r14, r14
    b57e:	ff 08       	sbc	r15, r15
C:\Users\dax\AppData\Local\Arduino15\packages\DxCore\hardware\megaavr\1.4.10\cores\dxcore\api/Print.cpp:96
    if (n < 0) {
      int t = print('-');
      n = -n;
      return printNumber(n, 10) + t;
    }
    return printNumber(n, 10);
    b580:	2a e0       	ldi	r18, 0x0A	; 10
    b582:	b7 01       	movw	r22, r14
    b584:	a6 01       	movw	r20, r12
C:\Users\dax\AppData\Local\Arduino15\packages\DxCore\hardware\megaavr\1.4.10\cores\dxcore\api/Print.cpp:91
size_t Print::print(long n, int base)
{
  if (base == 0) {
    return write(n);
  } else if (base == 10) {
    if (n < 0) {
    b586:	f7 fe       	sbrs	r15, 7
    b588:	0d c0       	rjmp	.+26     	; 0xb5a4 <main+0x166e>
C:\Users\dax\AppData\Local\Arduino15\packages\DxCore\hardware\megaavr\1.4.10\cores\dxcore\api/Print.cpp:92
      int t = print('-');
    b58a:	6d e2       	ldi	r22, 0x2D	; 45
    b58c:	85 e4       	ldi	r24, 0x45	; 69
    b58e:	96 e6       	ldi	r25, 0x66	; 102
    b590:	0e 94 13 2e 	call	0x5c26	; 0x5c26 <Print::print(char)>
C:\Users\dax\AppData\Local\Arduino15\packages\DxCore\hardware\megaavr\1.4.10\cores\dxcore\api/Print.cpp:93
      n = -n;
    b594:	44 27       	eor	r20, r20
    b596:	55 27       	eor	r21, r21
    b598:	ba 01       	movw	r22, r20
    b59a:	4c 19       	sub	r20, r12
    b59c:	5d 09       	sbc	r21, r13
    b59e:	6e 09       	sbc	r22, r14
    b5a0:	7f 09       	sbc	r23, r15
C:\Users\dax\AppData\Local\Arduino15\packages\DxCore\hardware\megaavr\1.4.10\cores\dxcore\api/Print.cpp:94
      return printNumber(n, 10) + t;
    b5a2:	2a e0       	ldi	r18, 0x0A	; 10
C:\Users\dax\AppData\Local\Arduino15\packages\DxCore\hardware\megaavr\1.4.10\cores\dxcore\api/Print.cpp:96
    }
    return printNumber(n, 10);
    b5a4:	85 e4       	ldi	r24, 0x45	; 69
    b5a6:	96 e6       	ldi	r25, 0x66	; 102
    b5a8:	0e 94 09 44 	call	0x8812	; 0x8812 <Print::printNumber(unsigned long, unsigned char)>
checkNew():
C:\Users\dax\Google Drive\GitLocalRepositories\K197Display/K197PushButtons.cpp:494
    DebugOut.print(n);
  }
  if (x != fifo_NO_DATA) { // We have a new raw event
    b5ac:	1f 3f       	cpi	r17, 0xFF	; 255
    b5ae:	21 f1       	breq	.+72     	; 0xb5f8 <main+0x16c2>
C:\Users\dax\Google Drive\GitLocalRepositories\K197Display/K197PushButtons.cpp:495
    now = micros();
    b5b0:	0e 94 b1 30 	call	0x6162	; 0x6162 <micros>
    b5b4:	6b 01       	movw	r12, r22
    b5b6:	7c 01       	movw	r14, r24
getButtonState():
C:\Users\dax\Google Drive\GitLocalRepositories\K197Display/K197PushButtons.cpp:310
    @details the current implemntation assumes 0 means pressed and !=0 means not
   pressed
    @return BUTTON_PRESSED_STATE or BUTTON_IDLE_STATE
*/
static inline uint8_t getButtonState(byte b) {
  return b == 0 ? BUTTON_PRESSED_STATE : BUTTON_IDLE_STATE;
    b5b8:	15 fb       	bst	r17, 5
    b5ba:	66 27       	eor	r22, r22
    b5bc:	60 f9       	bld	r22, 0
checkNew():
C:\Users\dax\Google Drive\GitLocalRepositories\K197Display/K197PushButtons.cpp:498
  }
  if (x != fifo_NO_DATA) { // We have a new raw event
    now = micros();
    // DebugOut.print(F("Items=")); DebugOut.print(n);
    // DebugOut.print(F(", fifo: 0x")); DebugOut.println(x, HEX);
    checkNew(0, getButtonState(x & UI_STO_bm), now);
    b5be:	ac 01       	movw	r20, r24
    b5c0:	96 01       	movw	r18, r12
    b5c2:	80 e0       	ldi	r24, 0x00	; 0
    b5c4:	0e 94 71 3f 	call	0x7ee2	; 0x7ee2 <k197ButtonCluster::checkNew(unsigned char, unsigned char, unsigned long) [clone .constprop.90]>
getButtonState():
C:\Users\dax\Google Drive\GitLocalRepositories\K197Display/K197PushButtons.cpp:310
    @details the current implemntation assumes 0 means pressed and !=0 means not
   pressed
    @return BUTTON_PRESSED_STATE or BUTTON_IDLE_STATE
*/
static inline uint8_t getButtonState(byte b) {
  return b == 0 ? BUTTON_PRESSED_STATE : BUTTON_IDLE_STATE;
    b5c8:	61 2f       	mov	r22, r17
    b5ca:	66 1f       	adc	r22, r22
    b5cc:	66 27       	eor	r22, r22
    b5ce:	66 1f       	adc	r22, r22
checkNew():
C:\Users\dax\Google Drive\GitLocalRepositories\K197Display/K197PushButtons.cpp:499
  if (x != fifo_NO_DATA) { // We have a new raw event
    now = micros();
    // DebugOut.print(F("Items=")); DebugOut.print(n);
    // DebugOut.print(F(", fifo: 0x")); DebugOut.println(x, HEX);
    checkNew(0, getButtonState(x & UI_STO_bm), now);
    checkNew(1, getButtonState(x & UI_RCL_bm), now);
    b5d0:	a7 01       	movw	r20, r14
    b5d2:	96 01       	movw	r18, r12
    b5d4:	81 e0       	ldi	r24, 0x01	; 1
    b5d6:	0e 94 71 3f 	call	0x7ee2	; 0x7ee2 <k197ButtonCluster::checkNew(unsigned char, unsigned char, unsigned long) [clone .constprop.90]>
C:\Users\dax\Google Drive\GitLocalRepositories\K197Display/K197PushButtons.cpp:500
    checkNew(2, getButtonState(x & UI_REL_bm), now);
    b5da:	61 2f       	mov	r22, r17
    b5dc:	61 70       	andi	r22, 0x01	; 1
    b5de:	a7 01       	movw	r20, r14
    b5e0:	96 01       	movw	r18, r12
    b5e2:	82 e0       	ldi	r24, 0x02	; 2
    b5e4:	0e 94 71 3f 	call	0x7ee2	; 0x7ee2 <k197ButtonCluster::checkNew(unsigned char, unsigned char, unsigned long) [clone .constprop.90]>
getButtonState():
C:\Users\dax\Google Drive\GitLocalRepositories\K197Display/K197PushButtons.cpp:310
    @details the current implemntation assumes 0 means pressed and !=0 means not
   pressed
    @return BUTTON_PRESSED_STATE or BUTTON_IDLE_STATE
*/
static inline uint8_t getButtonState(byte b) {
  return b == 0 ? BUTTON_PRESSED_STATE : BUTTON_IDLE_STATE;
    b5e8:	11 fb       	bst	r17, 1
    b5ea:	66 27       	eor	r22, r22
    b5ec:	60 f9       	bld	r22, 0
checkNew():
C:\Users\dax\Google Drive\GitLocalRepositories\K197Display/K197PushButtons.cpp:501
    // DebugOut.print(F("Items=")); DebugOut.print(n);
    // DebugOut.print(F(", fifo: 0x")); DebugOut.println(x, HEX);
    checkNew(0, getButtonState(x & UI_STO_bm), now);
    checkNew(1, getButtonState(x & UI_RCL_bm), now);
    checkNew(2, getButtonState(x & UI_REL_bm), now);
    checkNew(3, getButtonState(x & UI_DB_bm), now);
    b5ee:	a7 01       	movw	r20, r14
    b5f0:	96 01       	movw	r18, r12
    b5f2:	83 e0       	ldi	r24, 0x03	; 3
    b5f4:	0e 94 71 3f 	call	0x7ee2	; 0x7ee2 <k197ButtonCluster::checkNew(unsigned char, unsigned char, unsigned long) [clone .constprop.90]>
loop():
C:\Users\dax\Google Drive\GitLocalRepositories\K197Display/K197Display.ino:432
  }
  pushbuttons.checkNew();

  PROFILE_stop(DebugOut.PROFILE_LOOP);
  PROFILE_println(DebugOut.PROFILE_LOOP, F("Time spent in loop()"));
  looptimer=micros()-looptimer;
    b5f8:	0e 94 b1 30 	call	0x6162	; 0x6162 <micros>
    b5fc:	00 91 01 64 	lds	r16, 0x6401	; 0x806401 <looptimer>
    b600:	10 91 02 64 	lds	r17, 0x6402	; 0x806402 <looptimer+0x1>
    b604:	20 91 03 64 	lds	r18, 0x6403	; 0x806403 <looptimer+0x2>
    b608:	30 91 04 64 	lds	r19, 0x6404	; 0x806404 <looptimer+0x3>
    b60c:	dc 01       	movw	r26, r24
    b60e:	cb 01       	movw	r24, r22
    b610:	80 1b       	sub	r24, r16
    b612:	91 0b       	sbc	r25, r17
    b614:	a2 0b       	sbc	r26, r18
    b616:	b3 0b       	sbc	r27, r19
    b618:	80 93 01 64 	sts	0x6401, r24	; 0x806401 <looptimer>
    b61c:	90 93 02 64 	sts	0x6402, r25	; 0x806402 <looptimer+0x1>
    b620:	a0 93 03 64 	sts	0x6403, r26	; 0x806403 <looptimer+0x2>
    b624:	b0 93 04 64 	sts	0x6404, r27	; 0x806404 <looptimer+0x3>
C:\Users\dax\Google Drive\GitLocalRepositories\K197Display/K197Display.ino:433
  if (uiman.looptimerMax<looptimer) uiman.looptimerMax=looptimer;
    b628:	00 91 79 6f 	lds	r16, 0x6F79	; 0x806f79 <uiman>
    b62c:	10 91 7a 6f 	lds	r17, 0x6F7A	; 0x806f7a <uiman+0x1>
    b630:	20 91 7b 6f 	lds	r18, 0x6F7B	; 0x806f7b <uiman+0x2>
    b634:	30 91 7c 6f 	lds	r19, 0x6F7C	; 0x806f7c <uiman+0x3>
    b638:	08 17       	cp	r16, r24
    b63a:	19 07       	cpc	r17, r25
    b63c:	2a 07       	cpc	r18, r26
    b63e:	3b 07       	cpc	r19, r27
    b640:	08 f0       	brcs	.+2      	; 0xb644 <main+0x170e>
    b642:	7c c8       	rjmp	.-3848   	; 0xa73c <main+0x806>
    b644:	80 93 79 6f 	sts	0x6F79, r24	; 0x806f79 <uiman>
    b648:	90 93 7a 6f 	sts	0x6F7A, r25	; 0x806f7a <uiman+0x1>
    b64c:	a0 93 7b 6f 	sts	0x6F7B, r26	; 0x806f7b <uiman+0x2>
    b650:	b0 93 7c 6f 	sts	0x6F7C, r27	; 0x806f7c <uiman+0x3>
    b654:	70 c8       	rjmp	.-3872   	; 0xa736 <main+0x800>
u8g2_DrawLog():
E:\Users\puzzole\Documents\Arduino\libraries\U8g2\src\clib/u8log_u8g2.c:64
    for( buf_x = 0; buf_x < u8log->width; buf_x++ )
    {
      c = u8log->screen_buffer[buf_y * u8log->width + buf_x];
    b656:	e0 91 d9 6e 	lds	r30, 0x6ED9	; 0x806ed9 <u8g2log+0xa>
    b65a:	f0 91 da 6e 	lds	r31, 0x6EDA	; 0x806eda <u8g2log+0xb>
    b65e:	d8 9e       	mul	r13, r24
    b660:	e0 0d       	add	r30, r0
    b662:	f1 1d       	adc	r31, r1
    b664:	11 24       	eor	r1, r1
    b666:	ec 0d       	add	r30, r12
    b668:	f1 1d       	adc	r31, r1
E:\Users\puzzole\Documents\Arduino\libraries\U8g2\src\clib/u8log_u8g2.c:65
      disp_x += u8g2_DrawGlyph(u8g2, disp_x, disp_y, c);
    b66a:	20 81       	ld	r18, Z
    b66c:	30 e0       	ldi	r19, 0x00	; 0
    b66e:	a8 01       	movw	r20, r16
    b670:	b7 01       	movw	r22, r14
    b672:	87 ee       	ldi	r24, 0xE7	; 231
    b674:	9e e6       	ldi	r25, 0x6E	; 110
    b676:	0e 94 b3 39 	call	0x7366	; 0x7366 <u8g2_DrawGlyph>
    b67a:	e8 0e       	add	r14, r24
    b67c:	f9 1e       	adc	r15, r25
E:\Users\puzzole\Documents\Arduino\libraries\U8g2\src\clib/u8log_u8g2.c:62
  disp_y = y;  
  u8g2_SetFontDirection(u8g2, 0);
  for( buf_y = 0; buf_y < u8log->height; buf_y++ )
  {
    disp_x = x;
    for( buf_x = 0; buf_x < u8log->width; buf_x++ )
    b67e:	c3 94       	inc	r12
    b680:	80 91 d5 6e 	lds	r24, 0x6ED5	; 0x806ed5 <u8g2log+0x6>
    b684:	c8 16       	cp	r12, r24
    b686:	38 f3       	brcs	.-50     	; 0xb656 <main+0x1720>
E:\Users\puzzole\Documents\Arduino\libraries\U8g2\src\clib/u8log_u8g2.c:67
    {
      c = u8log->screen_buffer[buf_y * u8log->width + buf_x];
      disp_x += u8g2_DrawGlyph(u8g2, disp_x, disp_y, c);
    }
    disp_y += u8g2_GetAscent(u8g2) - u8g2_GetDescent(u8g2);
    b688:	80 91 6d 6f 	lds	r24, 0x6F6D	; 0x806f6d <u8g2+0x8a>
    b68c:	08 2e       	mov	r0, r24
    b68e:	00 0c       	add	r0, r0
    b690:	99 0b       	sbc	r25, r25
    b692:	20 91 6e 6f 	lds	r18, 0x6F6E	; 0x806f6e <u8g2+0x8b>
    b696:	82 1b       	sub	r24, r18
    b698:	91 09       	sbc	r25, r1
    b69a:	27 fd       	sbrc	r18, 7
    b69c:	93 95       	inc	r25
E:\Users\puzzole\Documents\Arduino\libraries\U8g2\src\clib/u8log_u8g2.c:68
    disp_y += u8log->line_height_offset;
    b69e:	20 91 dc 6e 	lds	r18, 0x6EDC	; 0x806edc <u8g2log+0xd>
    b6a2:	82 0f       	add	r24, r18
    b6a4:	91 1d       	adc	r25, r1
    b6a6:	27 fd       	sbrc	r18, 7
    b6a8:	9a 95       	dec	r25
    b6aa:	08 0f       	add	r16, r24
    b6ac:	19 1f       	adc	r17, r25
E:\Users\puzzole\Documents\Arduino\libraries\U8g2\src\clib/u8log_u8g2.c:59
  uint8_t buf_x, buf_y;
  uint8_t c;
  
  disp_y = y;  
  u8g2_SetFontDirection(u8g2, 0);
  for( buf_y = 0; buf_y < u8log->height; buf_y++ )
    b6ae:	d3 94       	inc	r13
    b6b0:	21 cd       	rjmp	.-1470   	; 0xb0f4 <main+0x11be>
_ZN9UImanager13getScreenModeEv():
C:\Users\dax\Google Drive\GitLocalRepositories\K197Display/UImanager.h:90
    b6b2:	80 91 7f 6f 	lds	r24, 0x6F7F	; 0x806f7f <uiman+0x6>
    b6b6:	90 91 80 6f 	lds	r25, 0x6F80	; 0x806f80 <uiman+0x7>
    b6ba:	8f 70       	andi	r24, 0x0F	; 15
    b6bc:	99 27       	eor	r25, r25
updateDisplay():
C:\Users\dax\Google Drive\GitLocalRepositories\K197Display/UImanager.cpp:173
   to setup();
*/
void UImanager::updateDisplay() {
  if (k197dev.isNotCal() && isSplitScreen())
    updateSplitScreen();
  else if (k197dev.isCal() || (getScreenMode() == K197sc_normal))
    b6be:	01 97       	sbiw	r24, 0x01	; 1
    b6c0:	09 f4       	brne	.+2      	; 0xb6c4 <main+0x178e>
    b6c2:	ab c1       	rjmp	.+854    	; 0xba1a <main+0x1ae4>
_ZN4U8G27setFontEPKh():
E:\Users\puzzole\Documents\Arduino\libraries\U8g2\src/U8g2lib.h:266
    /* u8log_u8g2.c */
    void drawLog(u8g2_uint_t x, u8g2_uint_t y, class U8G2LOG &u8g2log);
    
    /* u8g2_font.c */

    void setFont(const uint8_t  *font) {u8g2_SetFont(&u8g2, font); }
    b6c4:	66 e0       	ldi	r22, 0x06	; 6
    b6c6:	7d e1       	ldi	r23, 0x1D	; 29
    b6c8:	87 ee       	ldi	r24, 0xE7	; 231
    b6ca:	9e e6       	ldi	r25, 0x6E	; 110
    b6cc:	0e 94 57 38 	call	0x70ae	; 0x70ae <u8g2_SetFont>
_ZN10K197device14getDisplayHoldEv():
C:\Users\dax\Google Drive\GitLocalRepositories\K197Display/K197device.h:143

  /*!
      @brief  get display hold mode
      @return true if display hold mode is active, false otherwise
  */
  bool getDisplayHold() { return flags.hold; };
    b6d0:	80 91 96 6f 	lds	r24, 0x6F96	; 0x806f96 <k197dev>
updateMinMaxScreen():
C:\Users\dax\Google Drive\GitLocalRepositories\K197Display/UImanager.cpp:390
  const unsigned int dpsz_x = 3;  // decimal point size in x direction
  const unsigned int dpsz_y = 3;  // decimal point size in y direction
  const unsigned int dphsz_x = 2; // decimal point "half size" in x direction
  const unsigned int dphsz_y = 2; // decimal point "half size" in y direction

  if (!k197dev.getDisplayHold()) {
    b6d4:	83 fd       	sbrc	r24, 3
    b6d6:	7b c1       	rjmp	.+758    	; 0xb9ce <main+0x1a98>
u8g2_DrawStr():
E:\Users\puzzole\Documents\Arduino\libraries\U8g2\src\clib/u8g2_font.c:1041
  return sum;
}

u8g2_uint_t u8g2_DrawStr(u8g2_t *u8g2, u8g2_uint_t x, u8g2_uint_t y, const char *str)
{
  u8g2->u8x8.next_cb = u8x8_ascii_next;
    b6d8:	06 e9       	ldi	r16, 0x96	; 150
    b6da:	1b e2       	ldi	r17, 0x2B	; 43
    b6dc:	00 93 e9 6e 	sts	0x6EE9, r16	; 0x806ee9 <u8g2+0x6>
    b6e0:	10 93 ea 6e 	sts	0x6EEA, r17	; 0x806eea <u8g2+0x7>
E:\Users\puzzole\Documents\Arduino\libraries\U8g2\src\clib/u8g2_font.c:1042
  return u8g2_draw_string(u8g2, x, y, str);
    b6e4:	82 e8       	ldi	r24, 0x82	; 130
    b6e6:	90 e0       	ldi	r25, 0x00	; 0
    b6e8:	0e 94 d6 3a 	call	0x75ac	; 0x75ac <u8g2_draw_string.constprop.77>
    b6ec:	ee 24       	eor	r14, r14
    b6ee:	e3 94       	inc	r14
    b6f0:	f1 2c       	mov	r15, r1
_ZN10K197device12isDecPointOnEh():
C:\Users\dax\Google Drive\GitLocalRepositories\K197Display/K197device.h:177
      @param  char_n the char to check (allowed range: 0 to 7, however 0 always
     return false)
      @return true if the last raw_message received from the K197/197A had a
     decimal point at the nth character
  */
  bool isDecPointOn(byte char_n) { return bitRead(raw_dp, char_n); };
    b6f2:	80 91 9f 6f 	lds	r24, 0x6F9F	; 0x806f9f <k197dev+0x9>
    b6f6:	90 e0       	ldi	r25, 0x00	; 0
    b6f8:	0e 2c       	mov	r0, r14
    b6fa:	02 c0       	rjmp	.+4      	; 0xb700 <main+0x17ca>
    b6fc:	95 95       	asr	r25
    b6fe:	87 95       	ror	r24
    b700:	0a 94       	dec	r0
    b702:	e2 f7       	brpl	.-8      	; 0xb6fc <main+0x17c6>
updateMinMaxScreen():
C:\Users\dax\Google Drive\GitLocalRepositories\K197Display/UImanager.cpp:393
    u8g2.drawStr(xraw, yraw, k197dev.getRawMessage());
    for (byte i = 1; i <= 7; i++) {
      if (k197dev.isDecPointOn(i)) {
    b704:	80 ff       	sbrs	r24, 0
    b706:	19 c0       	rjmp	.+50     	; 0xb73a <main+0x1804>
C:\Users\dax\Google Drive\GitLocalRepositories\K197Display/UImanager.cpp:395
        u8g2.drawBox(xraw + i * u8g2.getMaxCharWidth() - dphsz_x,
                     yraw + u8g2.getAscent() - dphsz_y, dpsz_x, dpsz_y);
    b708:	40 91 6d 6f 	lds	r20, 0x6F6D	; 0x806f6d <u8g2+0x8a>
    b70c:	04 2e       	mov	r0, r20
    b70e:	00 0c       	add	r0, r0
    b710:	55 0b       	sbc	r21, r21
C:\Users\dax\Google Drive\GitLocalRepositories\K197Display/UImanager.cpp:394

  if (!k197dev.getDisplayHold()) {
    u8g2.drawStr(xraw, yraw, k197dev.getRawMessage());
    for (byte i = 1; i <= 7; i++) {
      if (k197dev.isDecPointOn(i)) {
        u8g2.drawBox(xraw + i * u8g2.getMaxCharWidth() - dphsz_x,
    b712:	43 5f       	subi	r20, 0xF3	; 243
    b714:	5f 4f       	sbci	r21, 0xFF	; 255
    b716:	20 91 5d 6f 	lds	r18, 0x6F5D	; 0x806f5d <u8g2+0x7a>
    b71a:	87 01       	movw	r16, r14
    b71c:	20 03       	mulsu	r18, r16
    b71e:	b0 01       	movw	r22, r0
    b720:	21 9f       	mul	r18, r17
    b722:	70 0d       	add	r23, r0
    b724:	11 24       	eor	r1, r1
    b726:	60 58       	subi	r22, 0x80	; 128
    b728:	7f 4f       	sbci	r23, 0xFF	; 255
_ZN4U8G27drawBoxEjjjj():
E:\Users\puzzole\Documents\Arduino\libraries\U8g2\src/U8g2lib.h:229
      u8g2_DrawHVLine(&u8g2, x, y, len, dir); }
    
    /* u8g2_box.c */
    void drawFrame(u8g2_uint_t x, u8g2_uint_t y, u8g2_uint_t w, u8g2_uint_t h) { u8g2_DrawFrame(&u8g2, x, y, w, h); }
    void drawRFrame(u8g2_uint_t x, u8g2_uint_t y, u8g2_uint_t w, u8g2_uint_t h, u8g2_uint_t r) { u8g2_DrawRFrame(&u8g2, x, y, w, h,r); }
    void drawBox(u8g2_uint_t x, u8g2_uint_t y, u8g2_uint_t w, u8g2_uint_t h) { u8g2_DrawBox(&u8g2, x, y, w, h); }
    b72a:	03 e0       	ldi	r16, 0x03	; 3
    b72c:	10 e0       	ldi	r17, 0x00	; 0
    b72e:	23 e0       	ldi	r18, 0x03	; 3
    b730:	30 e0       	ldi	r19, 0x00	; 0
    b732:	87 ee       	ldi	r24, 0xE7	; 231
    b734:	9e e6       	ldi	r25, 0x6E	; 110
    b736:	0e 94 d5 3b 	call	0x77aa	; 0x77aa <u8g2_DrawBox>
    b73a:	1f ef       	ldi	r17, 0xFF	; 255
    b73c:	e1 1a       	sub	r14, r17
    b73e:	f1 0a       	sbc	r15, r17
updateMinMaxScreen():
C:\Users\dax\Google Drive\GitLocalRepositories\K197Display/UImanager.cpp:392
  const unsigned int dphsz_x = 2; // decimal point "half size" in x direction
  const unsigned int dphsz_y = 2; // decimal point "half size" in y direction

  if (!k197dev.getDisplayHold()) {
    u8g2.drawStr(xraw, yraw, k197dev.getRawMessage());
    for (byte i = 1; i <= 7; i++) {
    b740:	28 e0       	ldi	r18, 0x08	; 8
    b742:	e2 16       	cp	r14, r18
    b744:	f1 04       	cpc	r15, r1
    b746:	a9 f6       	brne	.-86     	; 0xb6f2 <main+0x17bc>
_ZN4U8G27setFontEPKh():
E:\Users\puzzole\Documents\Arduino\libraries\U8g2\src/U8g2lib.h:266
    /* u8log_u8g2.c */
    void drawLog(u8g2_uint_t x, u8g2_uint_t y, class U8G2LOG &u8g2log);
    
    /* u8g2_font.c */

    void setFont(const uint8_t  *font) {u8g2_SetFont(&u8g2, font); }
    b748:	6f e3       	ldi	r22, 0x3F	; 63
    b74a:	7b e2       	ldi	r23, 0x2B	; 43
    b74c:	87 ee       	ldi	r24, 0xE7	; 231
    b74e:	9e e6       	ldi	r25, 0x6E	; 110
    b750:	0e 94 57 38 	call	0x70ae	; 0x70ae <u8g2_SetFont>
_ZN4U8G29setCursorEjj():
E:\Users\puzzole\Documents\Arduino\libraries\U8g2\src/U8g2lib.h:386
     /* LiquidCrystal compatible functions */
    void home(void) { tx = 0; ty = 0;  u8x8_utf8_init(u8g2_GetU8x8(&u8g2)); }
    void clear(void) { home(); clearDisplay(); clearBuffer();  }
    void noDisplay(void) { u8g2_SetPowerSave(&u8g2, 1); }
    void display(void) { u8g2_SetPowerSave(&u8g2, 0); }
    void setCursor(u8g2_uint_t x, u8g2_uint_t y) { tx = x; ty = y; }
    b754:	45 ee       	ldi	r20, 0xE5	; 229
    b756:	50 e0       	ldi	r21, 0x00	; 0
    b758:	40 93 75 6f 	sts	0x6F75, r20	; 0x806f75 <u8g2+0x92>
    b75c:	50 93 76 6f 	sts	0x6F76, r21	; 0x806f76 <u8g2+0x93>
    b760:	84 e1       	ldi	r24, 0x14	; 20
    b762:	90 e0       	ldi	r25, 0x00	; 0
    b764:	80 93 77 6f 	sts	0x6F77, r24	; 0x806f77 <u8g2+0x94>
    b768:	90 93 78 6f 	sts	0x6F78, r25	; 0x806f78 <u8g2+0x95>
updateMinMaxScreen():
C:\Users\dax\Google Drive\GitLocalRepositories\K197Display/UImanager.cpp:404
    // set the unit
    u8g2.setFont(u8g2_font_9x15_m_symbols);
    const unsigned int xunit = 229;
    const unsigned int yunit = 20;
    u8g2.setCursor(xunit, yunit);
    u8g2.print(k197dev.getUnit(true));
    b76c:	81 e0       	ldi	r24, 0x01	; 1
    b76e:	0e 94 9b 2d 	call	0x5b36	; 0x5b36 <K197device::getUnit(bool) [clone .constprop.83]>
    b772:	bc 01       	movw	r22, r24
    b774:	83 ee       	ldi	r24, 0xE3	; 227
    b776:	9e e6       	ldi	r25, 0x6E	; 110
    b778:	0e 94 1a 2e 	call	0x5c34	; 0x5c34 <Print::print(__FlashStringHelper const*)>
_ZN4U8G27setFontEPKh():
E:\Users\puzzole\Documents\Arduino\libraries\U8g2\src/U8g2lib.h:266
    /* u8log_u8g2.c */
    void drawLog(u8g2_uint_t x, u8g2_uint_t y, class U8G2LOG &u8g2log);
    
    /* u8g2_font.c */

    void setFont(const uint8_t  *font) {u8g2_SetFont(&u8g2, font); }
    b77c:	6f e3       	ldi	r22, 0x3F	; 63
    b77e:	7b e2       	ldi	r23, 0x2B	; 43
    b780:	87 ee       	ldi	r24, 0xE7	; 231
    b782:	9e e6       	ldi	r25, 0x6E	; 110
    b784:	0e 94 57 38 	call	0x70ae	; 0x70ae <u8g2_SetFont>
    b788:	00 91 5e 6f 	lds	r16, 0x6F5E	; 0x806f5e <u8g2+0x7b>
_ZN4U8G29setCursorEjj():
E:\Users\puzzole\Documents\Arduino\libraries\U8g2\src/U8g2lib.h:386
     /* LiquidCrystal compatible functions */
    void home(void) { tx = 0; ty = 0;  u8x8_utf8_init(u8g2_GetU8x8(&u8g2)); }
    void clear(void) { home(); clearDisplay(); clearBuffer();  }
    void noDisplay(void) { u8g2_SetPowerSave(&u8g2, 1); }
    void display(void) { u8g2_SetPowerSave(&u8g2, 0); }
    void setCursor(u8g2_uint_t x, u8g2_uint_t y) { tx = x; ty = y; }
    b78c:	a5 ee       	ldi	r26, 0xE5	; 229
    b78e:	b0 e0       	ldi	r27, 0x00	; 0
    b790:	a0 93 75 6f 	sts	0x6F75, r26	; 0x806f75 <u8g2+0x92>
    b794:	b0 93 76 6f 	sts	0x6F76, r27	; 0x806f76 <u8g2+0x93>
    b798:	83 e2       	ldi	r24, 0x23	; 35
    b79a:	90 e0       	ldi	r25, 0x00	; 0
    b79c:	80 93 77 6f 	sts	0x6F77, r24	; 0x806f77 <u8g2+0x94>
    b7a0:	90 93 78 6f 	sts	0x6F78, r25	; 0x806f78 <u8g2+0x95>
updateMinMaxScreen():
C:\Users\dax\Google Drive\GitLocalRepositories\K197Display/UImanager.cpp:412
    u8g2.setFont(u8g2_font_9x15_m_symbols);
    int char_height_9x15 = u8g2.getMaxCharHeight(); // needed later on
    const unsigned int xac = 229;
    const unsigned int yac = 35;
    u8g2.setCursor(xac, yac);
    if (k197dev.isAC())
    b7a4:	80 91 a4 6f 	lds	r24, 0x6FA4	; 0x806fa4 <k197dev+0xe>
C:\Users\dax\Google Drive\GitLocalRepositories\K197Display/UImanager.cpp:413
      u8g2.print(F("AC"));
    b7a8:	61 ef       	ldi	r22, 0xF1	; 241
    b7aa:	77 e0       	ldi	r23, 0x07	; 7
C:\Users\dax\Google Drive\GitLocalRepositories\K197Display/UImanager.cpp:412
    u8g2.setFont(u8g2_font_9x15_m_symbols);
    int char_height_9x15 = u8g2.getMaxCharHeight(); // needed later on
    const unsigned int xac = 229;
    const unsigned int yac = 35;
    u8g2.setCursor(xac, yac);
    if (k197dev.isAC())
    b7ac:	84 fd       	sbrc	r24, 4
    b7ae:	02 c0       	rjmp	.+4      	; 0xb7b4 <main+0x187e>
C:\Users\dax\Google Drive\GitLocalRepositories\K197Display/UImanager.cpp:415
      u8g2.print(F("AC"));
    else
      u8g2.print(F("  "));
    b7b0:	6e ee       	ldi	r22, 0xEE	; 238
    b7b2:	77 e0       	ldi	r23, 0x07	; 7
    b7b4:	83 ee       	ldi	r24, 0xE3	; 227
    b7b6:	9e e6       	ldi	r25, 0x6E	; 110
    b7b8:	0e 94 1a 2e 	call	0x5c34	; 0x5c34 <Print::print(__FlashStringHelper const*)>
_ZN4U8G27setFontEPKh():
E:\Users\puzzole\Documents\Arduino\libraries\U8g2\src/U8g2lib.h:266
    /* u8log_u8g2.c */
    void drawLog(u8g2_uint_t x, u8g2_uint_t y, class U8G2LOG &u8g2log);
    
    /* u8g2_font.c */

    void setFont(const uint8_t  *font) {u8g2_SetFont(&u8g2, font); }
    b7bc:	67 e9       	ldi	r22, 0x97	; 151
    b7be:	76 e2       	ldi	r23, 0x26	; 38
    b7c0:	87 ee       	ldi	r24, 0xE7	; 231
    b7c2:	9e e6       	ldi	r25, 0x6E	; 110
    b7c4:	0e 94 57 38 	call	0x70ae	; 0x70ae <u8g2_SetFont>
_ZN4U8G29setCursorEjj():
E:\Users\puzzole\Documents\Arduino\libraries\U8g2\src/U8g2lib.h:386
     /* LiquidCrystal compatible functions */
    void home(void) { tx = 0; ty = 0;  u8x8_utf8_init(u8g2_GetU8x8(&u8g2)); }
    void clear(void) { home(); clearDisplay(); clearBuffer();  }
    void noDisplay(void) { u8g2_SetPowerSave(&u8g2, 1); }
    void display(void) { u8g2_SetPowerSave(&u8g2, 0); }
    void setCursor(u8g2_uint_t x, u8g2_uint_t y) { tx = x; ty = y; }
    b7c8:	10 92 75 6f 	sts	0x6F75, r1	; 0x806f75 <u8g2+0x92>
    b7cc:	10 92 76 6f 	sts	0x6F76, r1	; 0x806f76 <u8g2+0x93>
    b7d0:	20 92 77 6f 	sts	0x6F77, r2	; 0x806f77 <u8g2+0x94>
    b7d4:	30 92 78 6f 	sts	0x6F78, r3	; 0x806f78 <u8g2+0x95>
updateMinMaxScreen():
C:\Users\dax\Google Drive\GitLocalRepositories\K197Display/UImanager.cpp:422
    // set the other announciators
    u8g2.setFont(u8g2_font_6x12_mr);
    unsigned int x = 0;
    unsigned int y = 5;
    u8g2.setCursor(x, y);
    if (k197dev.isREL())
    b7d8:	80 91 a4 6f 	lds	r24, 0x6FA4	; 0x806fa4 <k197dev+0xe>
C:\Users\dax\Google Drive\GitLocalRepositories\K197Display/UImanager.cpp:423
      u8g2.print(F("REL"));
    b7dc:	6a ee       	ldi	r22, 0xEA	; 234
    b7de:	77 e0       	ldi	r23, 0x07	; 7
C:\Users\dax\Google Drive\GitLocalRepositories\K197Display/UImanager.cpp:422
    // set the other announciators
    u8g2.setFont(u8g2_font_6x12_mr);
    unsigned int x = 0;
    unsigned int y = 5;
    u8g2.setCursor(x, y);
    if (k197dev.isREL())
    b7e0:	81 fd       	sbrc	r24, 1
    b7e2:	02 c0       	rjmp	.+4      	; 0xb7e8 <main+0x18b2>
C:\Users\dax\Google Drive\GitLocalRepositories\K197Display/UImanager.cpp:425
      u8g2.print(F("REL"));
    else
      u8g2.print(F("   "));
    b7e4:	66 ee       	ldi	r22, 0xE6	; 230
    b7e6:	77 e0       	ldi	r23, 0x07	; 7
    b7e8:	83 ee       	ldi	r24, 0xE3	; 227
    b7ea:	9e e6       	ldi	r25, 0x6E	; 110
    b7ec:	0e 94 1a 2e 	call	0x5c34	; 0x5c34 <Print::print(__FlashStringHelper const*)>
_ZN4U8G27setFontEPKh():
E:\Users\puzzole\Documents\Arduino\libraries\U8g2\src/U8g2lib.h:266
    /* u8log_u8g2.c */
    void drawLog(u8g2_uint_t x, u8g2_uint_t y, class U8G2LOG &u8g2log);
    
    /* u8g2_font.c */

    void setFont(const uint8_t  *font) {u8g2_SetFont(&u8g2, font); }
    b7f0:	65 e2       	ldi	r22, 0x25	; 37
    b7f2:	73 e5       	ldi	r23, 0x53	; 83
    b7f4:	87 ee       	ldi	r24, 0xE7	; 231
    b7f6:	9e e6       	ldi	r25, 0x6E	; 110
    b7f8:	0e 94 57 38 	call	0x70ae	; 0x70ae <u8g2_SetFont>
updateMinMaxScreen():
C:\Users\dax\Google Drive\GitLocalRepositories\K197Display/UImanager.cpp:429

    // Write Min/average/Max labels
    u8g2.setFont(u8g2_font_5x7_mr);
    x = u8g2.tx + 10;
    b7fc:	e0 90 75 6f 	lds	r14, 0x6F75	; 0x806f75 <u8g2+0x92>
    b800:	f0 90 76 6f 	lds	r15, 0x6F76	; 0x806f76 <u8g2+0x93>
    b804:	ba e0       	ldi	r27, 0x0A	; 10
    b806:	eb 0e       	add	r14, r27
    b808:	f1 1c       	adc	r15, r1
_ZN4U8G29setCursorEjj():
E:\Users\puzzole\Documents\Arduino\libraries\U8g2\src/U8g2lib.h:386
     /* LiquidCrystal compatible functions */
    void home(void) { tx = 0; ty = 0;  u8x8_utf8_init(u8g2_GetU8x8(&u8g2)); }
    void clear(void) { home(); clearDisplay(); clearBuffer();  }
    void noDisplay(void) { u8g2_SetPowerSave(&u8g2, 1); }
    void display(void) { u8g2_SetPowerSave(&u8g2, 0); }
    void setCursor(u8g2_uint_t x, u8g2_uint_t y) { tx = x; ty = y; }
    b80a:	e0 92 75 6f 	sts	0x6F75, r14	; 0x806f75 <u8g2+0x92>
    b80e:	f0 92 76 6f 	sts	0x6F76, r15	; 0x806f76 <u8g2+0x93>
    b812:	20 92 77 6f 	sts	0x6F77, r2	; 0x806f77 <u8g2+0x94>
    b816:	30 92 78 6f 	sts	0x6F78, r3	; 0x806f78 <u8g2+0x95>
updateMinMaxScreen():
C:\Users\dax\Google Drive\GitLocalRepositories\K197Display/UImanager.cpp:432
    y = 5;
    u8g2.setCursor(x, y);
    u8g2.print(F("Max "));
    b81a:	61 ee       	ldi	r22, 0xE1	; 225
    b81c:	77 e0       	ldi	r23, 0x07	; 7
    b81e:	83 ee       	ldi	r24, 0xE3	; 227
    b820:	9e e6       	ldi	r25, 0x6E	; 110
    b822:	0e 94 1a 2e 	call	0x5c34	; 0x5c34 <Print::print(__FlashStringHelper const*)>
C:\Users\dax\Google Drive\GitLocalRepositories\K197Display/UImanager.cpp:433
    y += char_height_9x15;
    b826:	00 2e       	mov	r0, r16
    b828:	00 0c       	add	r0, r0
    b82a:	11 0b       	sbc	r17, r17
    b82c:	68 01       	movw	r12, r16
    b82e:	e5 e0       	ldi	r30, 0x05	; 5
    b830:	ce 0e       	add	r12, r30
    b832:	d1 1c       	adc	r13, r1
_ZN4U8G29setCursorEjj():
E:\Users\puzzole\Documents\Arduino\libraries\U8g2\src/U8g2lib.h:386
    b834:	e0 92 75 6f 	sts	0x6F75, r14	; 0x806f75 <u8g2+0x92>
    b838:	f0 92 76 6f 	sts	0x6F76, r15	; 0x806f76 <u8g2+0x93>
    b83c:	c0 92 77 6f 	sts	0x6F77, r12	; 0x806f77 <u8g2+0x94>
    b840:	d0 92 78 6f 	sts	0x6F78, r13	; 0x806f78 <u8g2+0x95>
updateMinMaxScreen():
C:\Users\dax\Google Drive\GitLocalRepositories\K197Display/UImanager.cpp:435
    u8g2.setCursor(x, y);
    u8g2.print(F("Avg "));
    b844:	6c ed       	ldi	r22, 0xDC	; 220
    b846:	77 e0       	ldi	r23, 0x07	; 7
    b848:	83 ee       	ldi	r24, 0xE3	; 227
    b84a:	9e e6       	ldi	r25, 0x6E	; 110
    b84c:	0e 94 1a 2e 	call	0x5c34	; 0x5c34 <Print::print(__FlashStringHelper const*)>
_ZN4U8G29setCursorEjj():
E:\Users\puzzole\Documents\Arduino\libraries\U8g2\src/U8g2lib.h:386
    b850:	e0 92 75 6f 	sts	0x6F75, r14	; 0x806f75 <u8g2+0x92>
    b854:	f0 92 76 6f 	sts	0x6F76, r15	; 0x806f76 <u8g2+0x93>
updateMinMaxScreen():
C:\Users\dax\Google Drive\GitLocalRepositories\K197Display/UImanager.cpp:436
    y += char_height_9x15;
    b858:	c0 0e       	add	r12, r16
    b85a:	d1 1e       	adc	r13, r17
_ZN4U8G29setCursorEjj():
E:\Users\puzzole\Documents\Arduino\libraries\U8g2\src/U8g2lib.h:386
    b85c:	c0 92 77 6f 	sts	0x6F77, r12	; 0x806f77 <u8g2+0x94>
    b860:	d0 92 78 6f 	sts	0x6F78, r13	; 0x806f78 <u8g2+0x95>
updateMinMaxScreen():
C:\Users\dax\Google Drive\GitLocalRepositories\K197Display/UImanager.cpp:438
    u8g2.setCursor(x, y);
    u8g2.print(F("Min "));
    b864:	67 ed       	ldi	r22, 0xD7	; 215
    b866:	77 e0       	ldi	r23, 0x07	; 7
    b868:	83 ee       	ldi	r24, 0xE3	; 227
    b86a:	9e e6       	ldi	r25, 0x6E	; 110
    b86c:	0e 94 1a 2e 	call	0x5c34	; 0x5c34 <Print::print(__FlashStringHelper const*)>
_ZN4U8G27setFontEPKh():
E:\Users\puzzole\Documents\Arduino\libraries\U8g2\src/U8g2lib.h:266
    /* u8log_u8g2.c */
    void drawLog(u8g2_uint_t x, u8g2_uint_t y, class U8G2LOG &u8g2log);
    
    /* u8g2_font.c */

    void setFont(const uint8_t  *font) {u8g2_SetFont(&u8g2, font); }
    b870:	6f e3       	ldi	r22, 0x3F	; 63
    b872:	7b e2       	ldi	r23, 0x2B	; 43
    b874:	87 ee       	ldi	r24, 0xE7	; 231
    b876:	9e e6       	ldi	r25, 0x6E	; 110
    b878:	0e 94 57 38 	call	0x70ae	; 0x70ae <u8g2_SetFont>
updateMinMaxScreen():
C:\Users\dax\Google Drive\GitLocalRepositories\K197Display/UImanager.cpp:442

    u8g2.setFont(u8g2_font_9x15_m_symbols);
    char buf[K197_RAW_MSG_SIZE + 1];
    x = u8g2.tx;
    b87c:	c0 90 75 6f 	lds	r12, 0x6F75	; 0x806f75 <u8g2+0x92>
    b880:	d0 90 76 6f 	lds	r13, 0x6F76	; 0x806f76 <u8g2+0x93>
_ZN4U8G29setCursorEjj():
E:\Users\puzzole\Documents\Arduino\libraries\U8g2\src/U8g2lib.h:386
     /* LiquidCrystal compatible functions */
    void home(void) { tx = 0; ty = 0;  u8x8_utf8_init(u8g2_GetU8x8(&u8g2)); }
    void clear(void) { home(); clearDisplay(); clearBuffer();  }
    void noDisplay(void) { u8g2_SetPowerSave(&u8g2, 1); }
    void display(void) { u8g2_SetPowerSave(&u8g2, 0); }
    void setCursor(u8g2_uint_t x, u8g2_uint_t y) { tx = x; ty = y; }
    b884:	83 e0       	ldi	r24, 0x03	; 3
    b886:	90 e0       	ldi	r25, 0x00	; 0
    b888:	80 93 77 6f 	sts	0x6F77, r24	; 0x806f77 <u8g2+0x94>
    b88c:	90 93 78 6f 	sts	0x6F78, r25	; 0x806f78 <u8g2+0x95>
updateMinMaxScreen():
C:\Users\dax\Google Drive\GitLocalRepositories\K197Display/UImanager.cpp:445
    y = 3;
    u8g2.setCursor(x, y);
    u8g2.print(formatNumber(buf, k197dev.getMax()));
    b890:	40 91 bc 6f 	lds	r20, 0x6FBC	; 0x806fbc <k197dev+0x26>
    b894:	50 91 bd 6f 	lds	r21, 0x6FBD	; 0x806fbd <k197dev+0x27>
    b898:	60 91 be 6f 	lds	r22, 0x6FBE	; 0x806fbe <k197dev+0x28>
    b89c:	70 91 bf 6f 	lds	r23, 0x6FBF	; 0x806fbf <k197dev+0x29>
    b8a0:	ce 01       	movw	r24, r28
    b8a2:	0a 96       	adiw	r24, 0x0a	; 10
    b8a4:	0e 94 c2 41 	call	0x8384	; 0x8384 <UImanager::formatNumber(char*, float)>
    b8a8:	bc 01       	movw	r22, r24
    b8aa:	83 ee       	ldi	r24, 0xE3	; 227
    b8ac:	9e e6       	ldi	r25, 0x6E	; 110
    b8ae:	0e 94 b8 48 	call	0x9170	; 0x9170 <Print::print(char const*)>
C:\Users\dax\Google Drive\GitLocalRepositories\K197Display/UImanager.cpp:446
    y += char_height_9x15;
    b8b2:	78 01       	movw	r14, r16
    b8b4:	f3 e0       	ldi	r31, 0x03	; 3
    b8b6:	ef 0e       	add	r14, r31
    b8b8:	f1 1c       	adc	r15, r1
_ZN4U8G29setCursorEjj():
E:\Users\puzzole\Documents\Arduino\libraries\U8g2\src/U8g2lib.h:386
    b8ba:	c0 92 75 6f 	sts	0x6F75, r12	; 0x806f75 <u8g2+0x92>
    b8be:	d0 92 76 6f 	sts	0x6F76, r13	; 0x806f76 <u8g2+0x93>
    b8c2:	e0 92 77 6f 	sts	0x6F77, r14	; 0x806f77 <u8g2+0x94>
    b8c6:	f0 92 78 6f 	sts	0x6F78, r15	; 0x806f78 <u8g2+0x95>
updateMinMaxScreen():
C:\Users\dax\Google Drive\GitLocalRepositories\K197Display/UImanager.cpp:448
    u8g2.setCursor(x, y);
    u8g2.print(formatNumber(buf, k197dev.getAverage()));
    b8ca:	40 91 b4 6f 	lds	r20, 0x6FB4	; 0x806fb4 <k197dev+0x1e>
    b8ce:	50 91 b5 6f 	lds	r21, 0x6FB5	; 0x806fb5 <k197dev+0x1f>
    b8d2:	60 91 b6 6f 	lds	r22, 0x6FB6	; 0x806fb6 <k197dev+0x20>
    b8d6:	70 91 b7 6f 	lds	r23, 0x6FB7	; 0x806fb7 <k197dev+0x21>
    b8da:	ce 01       	movw	r24, r28
    b8dc:	0a 96       	adiw	r24, 0x0a	; 10
    b8de:	0e 94 c2 41 	call	0x8384	; 0x8384 <UImanager::formatNumber(char*, float)>
    b8e2:	bc 01       	movw	r22, r24
    b8e4:	83 ee       	ldi	r24, 0xE3	; 227
    b8e6:	9e e6       	ldi	r25, 0x6E	; 110
    b8e8:	0e 94 b8 48 	call	0x9170	; 0x9170 <Print::print(char const*)>
_ZN4U8G29setCursorEjj():
E:\Users\puzzole\Documents\Arduino\libraries\U8g2\src/U8g2lib.h:386
    b8ec:	c0 92 75 6f 	sts	0x6F75, r12	; 0x806f75 <u8g2+0x92>
    b8f0:	d0 92 76 6f 	sts	0x6F76, r13	; 0x806f76 <u8g2+0x93>
updateMinMaxScreen():
C:\Users\dax\Google Drive\GitLocalRepositories\K197Display/UImanager.cpp:449
    y += char_height_9x15;
    b8f4:	0e 0d       	add	r16, r14
    b8f6:	1f 1d       	adc	r17, r15
_ZN4U8G29setCursorEjj():
E:\Users\puzzole\Documents\Arduino\libraries\U8g2\src/U8g2lib.h:386
    b8f8:	00 93 77 6f 	sts	0x6F77, r16	; 0x806f77 <u8g2+0x94>
    b8fc:	10 93 78 6f 	sts	0x6F78, r17	; 0x806f78 <u8g2+0x95>
updateMinMaxScreen():
C:\Users\dax\Google Drive\GitLocalRepositories\K197Display/UImanager.cpp:451
    u8g2.setCursor(x, y);
    u8g2.print(formatNumber(buf, k197dev.getMin()));
    b900:	40 91 b8 6f 	lds	r20, 0x6FB8	; 0x806fb8 <k197dev+0x22>
    b904:	50 91 b9 6f 	lds	r21, 0x6FB9	; 0x806fb9 <k197dev+0x23>
    b908:	60 91 ba 6f 	lds	r22, 0x6FBA	; 0x806fba <k197dev+0x24>
    b90c:	70 91 bb 6f 	lds	r23, 0x6FBB	; 0x806fbb <k197dev+0x25>
    b910:	ce 01       	movw	r24, r28
    b912:	0a 96       	adiw	r24, 0x0a	; 10
    b914:	0e 94 c2 41 	call	0x8384	; 0x8384 <UImanager::formatNumber(char*, float)>
    b918:	bc 01       	movw	r22, r24
    b91a:	83 ee       	ldi	r24, 0xE3	; 227
    b91c:	9e e6       	ldi	r25, 0x6E	; 110
    b91e:	0e 94 b8 48 	call	0x9170	; 0x9170 <Print::print(char const*)>
_ZN4U8G29setCursorEjj():
E:\Users\puzzole\Documents\Arduino\libraries\U8g2\src/U8g2lib.h:386
    b922:	8a ea       	ldi	r24, 0xAA	; 170
    b924:	90 e0       	ldi	r25, 0x00	; 0
    b926:	80 93 75 6f 	sts	0x6F75, r24	; 0x806f75 <u8g2+0x92>
    b92a:	90 93 76 6f 	sts	0x6F76, r25	; 0x806f76 <u8g2+0x93>
    b92e:	02 e0       	ldi	r16, 0x02	; 2
    b930:	10 e0       	ldi	r17, 0x00	; 0
    b932:	00 93 77 6f 	sts	0x6F77, r16	; 0x806f77 <u8g2+0x94>
    b936:	10 93 78 6f 	sts	0x6F78, r17	; 0x806f78 <u8g2+0x95>
_ZN4U8G27setFontEPKh():
E:\Users\puzzole\Documents\Arduino\libraries\U8g2\src/U8g2lib.h:266
    /* u8log_u8g2.c */
    void drawLog(u8g2_uint_t x, u8g2_uint_t y, class U8G2LOG &u8g2log);
    
    /* u8g2_font.c */

    void setFont(const uint8_t  *font) {u8g2_SetFont(&u8g2, font); }
    b93a:	65 e2       	ldi	r22, 0x25	; 37
    b93c:	73 e5       	ldi	r23, 0x53	; 83
    b93e:	87 ee       	ldi	r24, 0xE7	; 231
    b940:	9e e6       	ldi	r25, 0x6E	; 110
    b942:	0e 94 57 38 	call	0x70ae	; 0x70ae <u8g2_SetFont>
updateMinMaxScreen():
C:\Users\dax\Google Drive\GitLocalRepositories\K197Display/UImanager.cpp:457

    x = 170;
    y = 2;
    u8g2.setCursor(x, y);
    u8g2.setFont(u8g2_font_5x7_mr);
    if (k197dev.isTKModeActive()) { // Display local temperature
    b946:	0e 94 e1 2d 	call	0x5bc2	; 0x5bc2 <K197device::isTKModeActive() [clone .constprop.82]>
C:\Users\dax\Google Drive\GitLocalRepositories\K197Display/UImanager.cpp:463
      char buf[K197_RAW_MSG_SIZE + 1];
      dtostrf(k197dev.getTColdJunction(), K197_RAW_MSG_SIZE, 2, buf);
      u8g2.print(buf);
      u8g2.print(k197dev.getUnit());
    } else {
      u8g2.print(F("          "));
    b94a:	6c ec       	ldi	r22, 0xCC	; 204
    b94c:	77 e0       	ldi	r23, 0x07	; 7
C:\Users\dax\Google Drive\GitLocalRepositories\K197Display/UImanager.cpp:457

    x = 170;
    y = 2;
    u8g2.setCursor(x, y);
    u8g2.setFont(u8g2_font_5x7_mr);
    if (k197dev.isTKModeActive()) { // Display local temperature
    b94e:	88 23       	and	r24, r24
    b950:	d1 f1       	breq	.+116    	; 0xb9c6 <main+0x1a90>
getTColdJunction():
C:\Users\dax\Google Drive\GitLocalRepositories\K197Display/K197device.h:407
  /*!
      @brief  returns the temperature used for cold junction compensation
      @return temperature in celsius
  */
  float getTColdJunction() {
    return abs(tcold) < 999.99 ? tcold : 999.99; // Keep it in the display range
    b952:	c0 90 a7 6f 	lds	r12, 0x6FA7	; 0x806fa7 <k197dev+0x11>
    b956:	d0 90 a8 6f 	lds	r13, 0x6FA8	; 0x806fa8 <k197dev+0x12>
    b95a:	e0 90 a9 6f 	lds	r14, 0x6FA9	; 0x806fa9 <k197dev+0x13>
    b95e:	f0 90 aa 6f 	lds	r15, 0x6FAA	; 0x806faa <k197dev+0x14>
    b962:	c7 01       	movw	r24, r14
    b964:	b6 01       	movw	r22, r12
    b966:	0e 94 dd 66 	call	0xcdba	; 0xcdba <__fixsfsi>
    b96a:	9b 01       	movw	r18, r22
    b96c:	77 ff       	sbrs	r23, 7
    b96e:	04 c0       	rjmp	.+8      	; 0xb978 <main+0x1a42>
    b970:	22 27       	eor	r18, r18
    b972:	33 27       	eor	r19, r19
    b974:	26 1b       	sub	r18, r22
    b976:	37 0b       	sbc	r19, r23
    b978:	b9 01       	movw	r22, r18
    b97a:	33 0f       	add	r19, r19
    b97c:	88 0b       	sbc	r24, r24
    b97e:	99 0b       	sbc	r25, r25
    b980:	0e 94 e1 64 	call	0xc9c2	; 0xc9c2 <__floatsisf>
    b984:	2c e5       	ldi	r18, 0x5C	; 92
    b986:	3f ef       	ldi	r19, 0xFF	; 255
    b988:	49 e7       	ldi	r20, 0x79	; 121
    b98a:	54 e4       	ldi	r21, 0x44	; 68
    b98c:	0e 94 db 64 	call	0xc9b6	; 0xc9b6 <__cmpsf2>
    b990:	87 fd       	sbrc	r24, 7
    b992:	08 c0       	rjmp	.+16     	; 0xb9a4 <main+0x1a6e>
main():
    b994:	7c e5       	ldi	r23, 0x5C	; 92
    b996:	c7 2e       	mov	r12, r23
    b998:	dd 24       	eor	r13, r13
    b99a:	da 94       	dec	r13
    b99c:	79 e7       	ldi	r23, 0x79	; 121
    b99e:	e7 2e       	mov	r14, r23
    b9a0:	74 e4       	ldi	r23, 0x44	; 68
    b9a2:	f7 2e       	mov	r15, r23
updateMinMaxScreen():
C:\Users\dax\Google Drive\GitLocalRepositories\K197Display/UImanager.cpp:459
      char buf[K197_RAW_MSG_SIZE + 1];
      dtostrf(k197dev.getTColdJunction(), K197_RAW_MSG_SIZE, 2, buf);
    b9a4:	8e 01       	movw	r16, r28
    b9a6:	0f 5f       	subi	r16, 0xFF	; 255
    b9a8:	1f 4f       	sbci	r17, 0xFF	; 255
    b9aa:	22 e0       	ldi	r18, 0x02	; 2
    b9ac:	48 e0       	ldi	r20, 0x08	; 8
    b9ae:	c7 01       	movw	r24, r14
    b9b0:	b6 01       	movw	r22, r12
    b9b2:	69 d3       	rcall	.+1746   	; 0xc086 <dtostrf>
C:\Users\dax\Google Drive\GitLocalRepositories\K197Display/UImanager.cpp:460
      u8g2.print(buf);
    b9b4:	b8 01       	movw	r22, r16
    b9b6:	83 ee       	ldi	r24, 0xE3	; 227
    b9b8:	9e e6       	ldi	r25, 0x6E	; 110
    b9ba:	0e 94 b8 48 	call	0x9170	; 0x9170 <Print::print(char const*)>
C:\Users\dax\Google Drive\GitLocalRepositories\K197Display/UImanager.cpp:461
      u8g2.print(k197dev.getUnit());
    b9be:	80 e0       	ldi	r24, 0x00	; 0
    b9c0:	0e 94 9b 2d 	call	0x5b36	; 0x5b36 <K197device::getUnit(bool) [clone .constprop.83]>
    b9c4:	bc 01       	movw	r22, r24
C:\Users\dax\Google Drive\GitLocalRepositories\K197Display/UImanager.cpp:463
    } else {
      u8g2.print(F("          "));
    b9c6:	83 ee       	ldi	r24, 0xE3	; 227
    b9c8:	9e e6       	ldi	r25, 0x6E	; 110
    b9ca:	0e 94 1a 2e 	call	0x5c34	; 0x5c34 <Print::print(__FlashStringHelper const*)>
_ZN4U8G27setFontEPKh():
E:\Users\puzzole\Documents\Arduino\libraries\U8g2\src/U8g2lib.h:266
    b9ce:	69 e7       	ldi	r22, 0x79	; 121
    b9d0:	7d e4       	ldi	r23, 0x4D	; 77
    b9d2:	87 ee       	ldi	r24, 0xE7	; 231
    b9d4:	9e e6       	ldi	r25, 0x6E	; 110
    b9d6:	0e 94 57 38 	call	0x70ae	; 0x70ae <u8g2_SetFont>
updateMinMaxScreen():
C:\Users\dax\Google Drive\GitLocalRepositories\K197Display/UImanager.cpp:468
    }
  }
  u8g2.setFont(u8g2_font_8x13_mr);
  unsigned int x = 0;
  unsigned int y = 5 + u8g2.getMaxCharHeight() * 2;
    b9da:	80 91 5e 6f 	lds	r24, 0x6F5E	; 0x806f5e <u8g2+0x7b>
    b9de:	88 0f       	add	r24, r24
    b9e0:	99 0b       	sbc	r25, r25
    b9e2:	05 96       	adiw	r24, 0x05	; 5
_ZN4U8G29setCursorEjj():
E:\Users\puzzole\Documents\Arduino\libraries\U8g2\src/U8g2lib.h:386
     /* LiquidCrystal compatible functions */
    void home(void) { tx = 0; ty = 0;  u8x8_utf8_init(u8g2_GetU8x8(&u8g2)); }
    void clear(void) { home(); clearDisplay(); clearBuffer();  }
    void noDisplay(void) { u8g2_SetPowerSave(&u8g2, 1); }
    void display(void) { u8g2_SetPowerSave(&u8g2, 0); }
    void setCursor(u8g2_uint_t x, u8g2_uint_t y) { tx = x; ty = y; }
    b9e4:	10 92 75 6f 	sts	0x6F75, r1	; 0x806f75 <u8g2+0x92>
    b9e8:	10 92 76 6f 	sts	0x6F76, r1	; 0x806f76 <u8g2+0x93>
    b9ec:	80 93 77 6f 	sts	0x6F77, r24	; 0x806f77 <u8g2+0x94>
    b9f0:	90 93 78 6f 	sts	0x6F78, r25	; 0x806f78 <u8g2+0x95>
_ZN4U8G27setFontEPKh():
E:\Users\puzzole\Documents\Arduino\libraries\U8g2\src/U8g2lib.h:266
    /* u8log_u8g2.c */
    void drawLog(u8g2_uint_t x, u8g2_uint_t y, class U8G2LOG &u8g2log);
    
    /* u8g2_font.c */

    void setFont(const uint8_t  *font) {u8g2_SetFont(&u8g2, font); }
    b9f4:	65 e2       	ldi	r22, 0x25	; 37
    b9f6:	73 e5       	ldi	r23, 0x53	; 83
    b9f8:	87 ee       	ldi	r24, 0xE7	; 231
    b9fa:	9e e6       	ldi	r25, 0x6E	; 110
    b9fc:	0e 94 57 38 	call	0x70ae	; 0x70ae <u8g2_SetFont>
_ZN10K197device14getDisplayHoldEv():
C:\Users\dax\Google Drive\GitLocalRepositories\K197Display/K197device.h:143

  /*!
      @brief  get display hold mode
      @return true if display hold mode is active, false otherwise
  */
  bool getDisplayHold() { return flags.hold; };
    ba00:	80 91 96 6f 	lds	r24, 0x6F96	; 0x806f96 <k197dev>
updateMinMaxScreen():
C:\Users\dax\Google Drive\GitLocalRepositories\K197Display/UImanager.cpp:472
  u8g2.setCursor(x, y);
  u8g2.setFont(u8g2_font_5x7_mr);
  if (k197dev.getDisplayHold())
    u8g2.print(F("HOLD"));
    ba04:	67 ec       	ldi	r22, 0xC7	; 199
    ba06:	77 e0       	ldi	r23, 0x07	; 7
C:\Users\dax\Google Drive\GitLocalRepositories\K197Display/UImanager.cpp:471
  u8g2.setFont(u8g2_font_8x13_mr);
  unsigned int x = 0;
  unsigned int y = 5 + u8g2.getMaxCharHeight() * 2;
  u8g2.setCursor(x, y);
  u8g2.setFont(u8g2_font_5x7_mr);
  if (k197dev.getDisplayHold())
    ba08:	83 fd       	sbrc	r24, 3
    ba0a:	02 c0       	rjmp	.+4      	; 0xba10 <main+0x1ada>
C:\Users\dax\Google Drive\GitLocalRepositories\K197Display/UImanager.cpp:474
    u8g2.print(F("HOLD"));
  else
    u8g2.print(F("    "));
    ba0c:	62 ec       	ldi	r22, 0xC2	; 194
    ba0e:	77 e0       	ldi	r23, 0x07	; 7
updateNormalScreen():
C:\Users\dax\Google Drive\GitLocalRepositories\K197Display/UImanager.cpp:367
  if (k197dev.isTKModeActive() &&
      !k197dev.getDisplayHold()) { // Display local temperature
    char buf[K197_RAW_MSG_SIZE + 1];
    dtostrf(k197dev.getTColdJunction(), K197_RAW_MSG_SIZE, 2, buf);
    u8g2.print(buf);
    u8g2.print(k197dev.getUnit());
    ba10:	83 ee       	ldi	r24, 0xE3	; 227
    ba12:	9e e6       	ldi	r25, 0x6E	; 110
    ba14:	0e 94 1a 2e 	call	0x5c34	; 0x5c34 <Print::print(__FlashStringHelper const*)>
    ba18:	8e cc       	rjmp	.-1764   	; 0xb336 <main+0x1400>
_ZN4U8G27setFontEPKh():
E:\Users\puzzole\Documents\Arduino\libraries\U8g2\src/U8g2lib.h:266
    ba1a:	6f e1       	ldi	r22, 0x1F	; 31
    ba1c:	7a e0       	ldi	r23, 0x0A	; 10
    ba1e:	87 ee       	ldi	r24, 0xE7	; 231
    ba20:	9e e6       	ldi	r25, 0x6E	; 110
    ba22:	0e 94 57 38 	call	0x70ae	; 0x70ae <u8g2_SetFont>
_ZN10K197device14getDisplayHoldEv():
C:\Users\dax\Google Drive\GitLocalRepositories\K197Display/K197device.h:143
    ba26:	80 91 96 6f 	lds	r24, 0x6F96	; 0x806f96 <k197dev>
updateNormalScreen():
C:\Users\dax\Google Drive\GitLocalRepositories\K197Display/UImanager.cpp:263
  const unsigned int dpsz_x = 3;  // decimal point size in x direction
  const unsigned int dpsz_y = 3;  // decimal point size in y direction
  const unsigned int dphsz_x = 2; // decimal point "half size" in x direction
  const unsigned int dphsz_y = 2; // decimal point "half size" in y direction

  if (!k197dev.getDisplayHold()) {
    ba2a:	83 fd       	sbrc	r24, 3
    ba2c:	70 c0       	rjmp	.+224    	; 0xbb0e <main+0x1bd8>
u8g2_DrawStr():
E:\Users\puzzole\Documents\Arduino\libraries\U8g2\src\clib/u8g2_font.c:1041
  return sum;
}

u8g2_uint_t u8g2_DrawStr(u8g2_t *u8g2, u8g2_uint_t x, u8g2_uint_t y, const char *str)
{
  u8g2->u8x8.next_cb = u8x8_ascii_next;
    ba2e:	26 e9       	ldi	r18, 0x96	; 150
    ba30:	3b e2       	ldi	r19, 0x2B	; 43
    ba32:	20 93 e9 6e 	sts	0x6EE9, r18	; 0x806ee9 <u8g2+0x6>
    ba36:	30 93 ea 6e 	sts	0x6EEA, r19	; 0x806eea <u8g2+0x7>
E:\Users\puzzole\Documents\Arduino\libraries\U8g2\src\clib/u8g2_font.c:1042
  return u8g2_draw_string(u8g2, x, y, str);
    ba3a:	81 e3       	ldi	r24, 0x31	; 49
    ba3c:	90 e0       	ldi	r25, 0x00	; 0
    ba3e:	0e 94 d6 3a 	call	0x75ac	; 0x75ac <u8g2_draw_string.constprop.77>
    ba42:	ee 24       	eor	r14, r14
    ba44:	e3 94       	inc	r14
    ba46:	f1 2c       	mov	r15, r1
_ZN10K197device12isDecPointOnEh():
C:\Users\dax\Google Drive\GitLocalRepositories\K197Display/K197device.h:177
      @param  char_n the char to check (allowed range: 0 to 7, however 0 always
     return false)
      @return true if the last raw_message received from the K197/197A had a
     decimal point at the nth character
  */
  bool isDecPointOn(byte char_n) { return bitRead(raw_dp, char_n); };
    ba48:	80 91 9f 6f 	lds	r24, 0x6F9F	; 0x806f9f <k197dev+0x9>
    ba4c:	90 e0       	ldi	r25, 0x00	; 0
    ba4e:	0e 2c       	mov	r0, r14
    ba50:	02 c0       	rjmp	.+4      	; 0xba56 <main+0x1b20>
    ba52:	95 95       	asr	r25
    ba54:	87 95       	ror	r24
    ba56:	0a 94       	dec	r0
    ba58:	e2 f7       	brpl	.-8      	; 0xba52 <main+0x1b1c>
updateNormalScreen():
C:\Users\dax\Google Drive\GitLocalRepositories\K197Display/UImanager.cpp:266
    u8g2.drawStr(xraw, yraw, k197dev.getRawMessage());
    for (byte i = 1; i <= 7; i++) {
      if (k197dev.isDecPointOn(i)) {
    ba5a:	80 ff       	sbrs	r24, 0
    ba5c:	19 c0       	rjmp	.+50     	; 0xba90 <main+0x1b5a>
C:\Users\dax\Google Drive\GitLocalRepositories\K197Display/UImanager.cpp:268
        u8g2.drawBox(xraw + i * u8g2.getMaxCharWidth() - dphsz_x,
                     yraw + u8g2.getAscent() - dphsz_y, dpsz_x, dpsz_y);
    ba5e:	40 91 6d 6f 	lds	r20, 0x6F6D	; 0x806f6d <u8g2+0x8a>
    ba62:	04 2e       	mov	r0, r20
    ba64:	00 0c       	add	r0, r0
    ba66:	55 0b       	sbc	r21, r21
C:\Users\dax\Google Drive\GitLocalRepositories\K197Display/UImanager.cpp:267

  if (!k197dev.getDisplayHold()) {
    u8g2.drawStr(xraw, yraw, k197dev.getRawMessage());
    for (byte i = 1; i <= 7; i++) {
      if (k197dev.isDecPointOn(i)) {
        u8g2.drawBox(xraw + i * u8g2.getMaxCharWidth() - dphsz_x,
    ba68:	43 5f       	subi	r20, 0xF3	; 243
    ba6a:	5f 4f       	sbci	r21, 0xFF	; 255
    ba6c:	20 91 5d 6f 	lds	r18, 0x6F5D	; 0x806f5d <u8g2+0x7a>
    ba70:	87 01       	movw	r16, r14
    ba72:	20 03       	mulsu	r18, r16
    ba74:	b0 01       	movw	r22, r0
    ba76:	21 9f       	mul	r18, r17
    ba78:	70 0d       	add	r23, r0
    ba7a:	11 24       	eor	r1, r1
    ba7c:	61 5d       	subi	r22, 0xD1	; 209
    ba7e:	7f 4f       	sbci	r23, 0xFF	; 255
_ZN4U8G27drawBoxEjjjj():
E:\Users\puzzole\Documents\Arduino\libraries\U8g2\src/U8g2lib.h:229
      u8g2_DrawHVLine(&u8g2, x, y, len, dir); }
    
    /* u8g2_box.c */
    void drawFrame(u8g2_uint_t x, u8g2_uint_t y, u8g2_uint_t w, u8g2_uint_t h) { u8g2_DrawFrame(&u8g2, x, y, w, h); }
    void drawRFrame(u8g2_uint_t x, u8g2_uint_t y, u8g2_uint_t w, u8g2_uint_t h, u8g2_uint_t r) { u8g2_DrawRFrame(&u8g2, x, y, w, h,r); }
    void drawBox(u8g2_uint_t x, u8g2_uint_t y, u8g2_uint_t w, u8g2_uint_t h) { u8g2_DrawBox(&u8g2, x, y, w, h); }
    ba80:	03 e0       	ldi	r16, 0x03	; 3
    ba82:	10 e0       	ldi	r17, 0x00	; 0
    ba84:	23 e0       	ldi	r18, 0x03	; 3
    ba86:	30 e0       	ldi	r19, 0x00	; 0
    ba88:	87 ee       	ldi	r24, 0xE7	; 231
    ba8a:	9e e6       	ldi	r25, 0x6E	; 110
    ba8c:	0e 94 d5 3b 	call	0x77aa	; 0x77aa <u8g2_DrawBox>
    ba90:	1f ef       	ldi	r17, 0xFF	; 255
    ba92:	e1 1a       	sub	r14, r17
    ba94:	f1 0a       	sbc	r15, r17
updateNormalScreen():
C:\Users\dax\Google Drive\GitLocalRepositories\K197Display/UImanager.cpp:265
  const unsigned int dphsz_x = 2; // decimal point "half size" in x direction
  const unsigned int dphsz_y = 2; // decimal point "half size" in y direction

  if (!k197dev.getDisplayHold()) {
    u8g2.drawStr(xraw, yraw, k197dev.getRawMessage());
    for (byte i = 1; i <= 7; i++) {
    ba96:	28 e0       	ldi	r18, 0x08	; 8
    ba98:	e2 16       	cp	r14, r18
    ba9a:	f1 04       	cpc	r15, r1
    ba9c:	a9 f6       	brne	.-86     	; 0xba48 <main+0x1b12>
_ZN4U8G27setFontEPKh():
E:\Users\puzzole\Documents\Arduino\libraries\U8g2\src/U8g2lib.h:266
    /* u8log_u8g2.c */
    void drawLog(u8g2_uint_t x, u8g2_uint_t y, class U8G2LOG &u8g2log);
    
    /* u8g2_font.c */

    void setFont(const uint8_t  *font) {u8g2_SetFont(&u8g2, font); }
    ba9e:	6f e3       	ldi	r22, 0x3F	; 63
    baa0:	7b e2       	ldi	r23, 0x2B	; 43
    baa2:	87 ee       	ldi	r24, 0xE7	; 231
    baa4:	9e e6       	ldi	r25, 0x6E	; 110
    baa6:	0e 94 57 38 	call	0x70ae	; 0x70ae <u8g2_SetFont>
_ZN4U8G29setCursorEjj():
E:\Users\puzzole\Documents\Arduino\libraries\U8g2\src/U8g2lib.h:386
     /* LiquidCrystal compatible functions */
    void home(void) { tx = 0; ty = 0;  u8x8_utf8_init(u8g2_GetU8x8(&u8g2)); }
    void clear(void) { home(); clearDisplay(); clearBuffer();  }
    void noDisplay(void) { u8g2_SetPowerSave(&u8g2, 1); }
    void display(void) { u8g2_SetPowerSave(&u8g2, 0); }
    void setCursor(u8g2_uint_t x, u8g2_uint_t y) { tx = x; ty = y; }
    baaa:	45 ee       	ldi	r20, 0xE5	; 229
    baac:	50 e0       	ldi	r21, 0x00	; 0
    baae:	40 93 75 6f 	sts	0x6F75, r20	; 0x806f75 <u8g2+0x92>
    bab2:	50 93 76 6f 	sts	0x6F76, r21	; 0x806f76 <u8g2+0x93>
    bab6:	84 e1       	ldi	r24, 0x14	; 20
    bab8:	90 e0       	ldi	r25, 0x00	; 0
    baba:	80 93 77 6f 	sts	0x6F77, r24	; 0x806f77 <u8g2+0x94>
    babe:	90 93 78 6f 	sts	0x6F78, r25	; 0x806f78 <u8g2+0x95>
updateNormalScreen():
C:\Users\dax\Google Drive\GitLocalRepositories\K197Display/UImanager.cpp:276
    // set the unit
    u8g2.setFont(u8g2_font_9x15_m_symbols);
    const unsigned int xunit = 229;
    const unsigned int yunit = 20;
    u8g2.setCursor(xunit, yunit);
    u8g2.print(k197dev.getUnit());
    bac2:	80 e0       	ldi	r24, 0x00	; 0
    bac4:	0e 94 9b 2d 	call	0x5b36	; 0x5b36 <K197device::getUnit(bool) [clone .constprop.83]>
    bac8:	bc 01       	movw	r22, r24
    baca:	83 ee       	ldi	r24, 0xE3	; 227
    bacc:	9e e6       	ldi	r25, 0x6E	; 110
    bace:	0e 94 1a 2e 	call	0x5c34	; 0x5c34 <Print::print(__FlashStringHelper const*)>
_ZN4U8G27setFontEPKh():
E:\Users\puzzole\Documents\Arduino\libraries\U8g2\src/U8g2lib.h:266
    /* u8log_u8g2.c */
    void drawLog(u8g2_uint_t x, u8g2_uint_t y, class U8G2LOG &u8g2log);
    
    /* u8g2_font.c */

    void setFont(const uint8_t  *font) {u8g2_SetFont(&u8g2, font); }
    bad2:	6f e3       	ldi	r22, 0x3F	; 63
    bad4:	7b e2       	ldi	r23, 0x2B	; 43
    bad6:	87 ee       	ldi	r24, 0xE7	; 231
    bad8:	9e e6       	ldi	r25, 0x6E	; 110
    bada:	0e 94 57 38 	call	0x70ae	; 0x70ae <u8g2_SetFont>
_ZN4U8G29setCursorEjj():
E:\Users\puzzole\Documents\Arduino\libraries\U8g2\src/U8g2lib.h:386
     /* LiquidCrystal compatible functions */
    void home(void) { tx = 0; ty = 0;  u8x8_utf8_init(u8g2_GetU8x8(&u8g2)); }
    void clear(void) { home(); clearDisplay(); clearBuffer();  }
    void noDisplay(void) { u8g2_SetPowerSave(&u8g2, 1); }
    void display(void) { u8g2_SetPowerSave(&u8g2, 0); }
    void setCursor(u8g2_uint_t x, u8g2_uint_t y) { tx = x; ty = y; }
    bade:	a4 e3       	ldi	r26, 0x34	; 52
    bae0:	b0 e0       	ldi	r27, 0x00	; 0
    bae2:	a0 93 75 6f 	sts	0x6F75, r26	; 0x806f75 <u8g2+0x92>
    bae6:	b0 93 76 6f 	sts	0x6F76, r27	; 0x806f76 <u8g2+0x93>
    baea:	88 e2       	ldi	r24, 0x28	; 40
    baec:	90 e0       	ldi	r25, 0x00	; 0
    baee:	80 93 77 6f 	sts	0x6F77, r24	; 0x806f77 <u8g2+0x94>
    baf2:	90 93 78 6f 	sts	0x6F78, r25	; 0x806f78 <u8g2+0x95>
updateNormalScreen():
C:\Users\dax\Google Drive\GitLocalRepositories\K197Display/UImanager.cpp:283
    // set the AC/DC indicator
    u8g2.setFont(u8g2_font_9x15_m_symbols);
    const unsigned int xac = xraw + 3;
    const unsigned int yac = 40;
    u8g2.setCursor(xac, yac);
    if (k197dev.isAC())
    baf6:	80 91 a4 6f 	lds	r24, 0x6FA4	; 0x806fa4 <k197dev+0xe>
C:\Users\dax\Google Drive\GitLocalRepositories\K197Display/UImanager.cpp:284
      u8g2.print(F("AC"));
    bafa:	6f eb       	ldi	r22, 0xBF	; 191
    bafc:	77 e0       	ldi	r23, 0x07	; 7
C:\Users\dax\Google Drive\GitLocalRepositories\K197Display/UImanager.cpp:283
    // set the AC/DC indicator
    u8g2.setFont(u8g2_font_9x15_m_symbols);
    const unsigned int xac = xraw + 3;
    const unsigned int yac = 40;
    u8g2.setCursor(xac, yac);
    if (k197dev.isAC())
    bafe:	84 fd       	sbrc	r24, 4
    bb00:	02 c0       	rjmp	.+4      	; 0xbb06 <main+0x1bd0>
C:\Users\dax\Google Drive\GitLocalRepositories\K197Display/UImanager.cpp:286
      u8g2.print(F("AC"));
    else
      u8g2.print(F("  "));
    bb02:	6c eb       	ldi	r22, 0xBC	; 188
    bb04:	77 e0       	ldi	r23, 0x07	; 7
    bb06:	83 ee       	ldi	r24, 0xE3	; 227
    bb08:	9e e6       	ldi	r25, 0x6E	; 110
    bb0a:	0e 94 1a 2e 	call	0x5c34	; 0x5c34 <Print::print(__FlashStringHelper const*)>
_ZN4U8G27setFontEPKh():
E:\Users\puzzole\Documents\Arduino\libraries\U8g2\src/U8g2lib.h:266
    /* u8log_u8g2.c */
    void drawLog(u8g2_uint_t x, u8g2_uint_t y, class U8G2LOG &u8g2log);
    
    /* u8g2_font.c */

    void setFont(const uint8_t  *font) {u8g2_SetFont(&u8g2, font); }
    bb0e:	69 e7       	ldi	r22, 0x79	; 121
    bb10:	7d e4       	ldi	r23, 0x4D	; 77
    bb12:	87 ee       	ldi	r24, 0xE7	; 231
    bb14:	9e e6       	ldi	r25, 0x6E	; 110
    bb16:	0e 94 57 38 	call	0x70ae	; 0x70ae <u8g2_SetFont>
_ZN4U8G29setCursorEjj():
E:\Users\puzzole\Documents\Arduino\libraries\U8g2\src/U8g2lib.h:386
     /* LiquidCrystal compatible functions */
    void home(void) { tx = 0; ty = 0;  u8x8_utf8_init(u8g2_GetU8x8(&u8g2)); }
    void clear(void) { home(); clearDisplay(); clearBuffer();  }
    void noDisplay(void) { u8g2_SetPowerSave(&u8g2, 1); }
    void display(void) { u8g2_SetPowerSave(&u8g2, 0); }
    void setCursor(u8g2_uint_t x, u8g2_uint_t y) { tx = x; ty = y; }
    bb1a:	10 92 75 6f 	sts	0x6F75, r1	; 0x806f75 <u8g2+0x92>
    bb1e:	10 92 76 6f 	sts	0x6F76, r1	; 0x806f76 <u8g2+0x93>
    bb22:	20 92 77 6f 	sts	0x6F77, r2	; 0x806f77 <u8g2+0x94>
    bb26:	30 92 78 6f 	sts	0x6F78, r3	; 0x806f78 <u8g2+0x95>
updateNormalScreen():
C:\Users\dax\Google Drive\GitLocalRepositories\K197Display/UImanager.cpp:294
  // set the other announciators
  u8g2.setFont(u8g2_font_8x13_mr);
  unsigned int x = 0;
  unsigned int y = 5;
  u8g2.setCursor(x, y);
  if (k197dev.isAuto())
    bb2a:	80 91 a4 6f 	lds	r24, 0x6FA4	; 0x806fa4 <k197dev+0xe>
C:\Users\dax\Google Drive\GitLocalRepositories\K197Display/UImanager.cpp:295
    u8g2.print(F("AUTO"));
    bb2e:	67 eb       	ldi	r22, 0xB7	; 183
    bb30:	77 e0       	ldi	r23, 0x07	; 7
C:\Users\dax\Google Drive\GitLocalRepositories\K197Display/UImanager.cpp:294
  // set the other announciators
  u8g2.setFont(u8g2_font_8x13_mr);
  unsigned int x = 0;
  unsigned int y = 5;
  u8g2.setCursor(x, y);
  if (k197dev.isAuto())
    bb32:	80 fd       	sbrc	r24, 0
    bb34:	02 c0       	rjmp	.+4      	; 0xbb3a <main+0x1c04>
C:\Users\dax\Google Drive\GitLocalRepositories\K197Display/UImanager.cpp:297
    u8g2.print(F("AUTO"));
  else
    u8g2.print(F("    "));
    bb36:	62 eb       	ldi	r22, 0xB2	; 178
    bb38:	77 e0       	ldi	r23, 0x07	; 7
    bb3a:	83 ee       	ldi	r24, 0xE3	; 227
    bb3c:	9e e6       	ldi	r25, 0x6E	; 110
    bb3e:	0e 94 1a 2e 	call	0x5c34	; 0x5c34 <Print::print(__FlashStringHelper const*)>
C:\Users\dax\Google Drive\GitLocalRepositories\K197Display/UImanager.cpp:298
  x = u8g2.tx;
    bb42:	80 91 75 6f 	lds	r24, 0x6F75	; 0x806f75 <u8g2+0x92>
    bb46:	90 91 76 6f 	lds	r25, 0x6F76	; 0x806f76 <u8g2+0x93>
C:\Users\dax\Google Drive\GitLocalRepositories\K197Display/UImanager.cpp:299
  x += u8g2.getMaxCharWidth() * 2;
    bb4a:	00 91 5d 6f 	lds	r16, 0x6F5D	; 0x806f5d <u8g2+0x7a>
    bb4e:	00 0f       	add	r16, r16
    bb50:	11 0b       	sbc	r17, r17
    bb52:	08 0f       	add	r16, r24
    bb54:	19 1f       	adc	r17, r25
_ZN4U8G27setFontEPKh():
E:\Users\puzzole\Documents\Arduino\libraries\U8g2\src/U8g2lib.h:266
    /* u8log_u8g2.c */
    void drawLog(u8g2_uint_t x, u8g2_uint_t y, class U8G2LOG &u8g2log);
    
    /* u8g2_font.c */

    void setFont(const uint8_t  *font) {u8g2_SetFont(&u8g2, font); }
    bb56:	67 e9       	ldi	r22, 0x97	; 151
    bb58:	76 e2       	ldi	r23, 0x26	; 38
    bb5a:	87 ee       	ldi	r24, 0xE7	; 231
    bb5c:	9e e6       	ldi	r25, 0x6E	; 110
    bb5e:	0e 94 57 38 	call	0x70ae	; 0x70ae <u8g2_SetFont>
_ZN4U8G29setCursorEjj():
E:\Users\puzzole\Documents\Arduino\libraries\U8g2\src/U8g2lib.h:386
     /* LiquidCrystal compatible functions */
    void home(void) { tx = 0; ty = 0;  u8x8_utf8_init(u8g2_GetU8x8(&u8g2)); }
    void clear(void) { home(); clearDisplay(); clearBuffer();  }
    void noDisplay(void) { u8g2_SetPowerSave(&u8g2, 1); }
    void display(void) { u8g2_SetPowerSave(&u8g2, 0); }
    void setCursor(u8g2_uint_t x, u8g2_uint_t y) { tx = x; ty = y; }
    bb62:	00 93 75 6f 	sts	0x6F75, r16	; 0x806f75 <u8g2+0x92>
    bb66:	10 93 76 6f 	sts	0x6F76, r17	; 0x806f76 <u8g2+0x93>
    bb6a:	20 92 77 6f 	sts	0x6F77, r2	; 0x806f77 <u8g2+0x94>
    bb6e:	30 92 78 6f 	sts	0x6F78, r3	; 0x806f78 <u8g2+0x95>
updateNormalScreen():
C:\Users\dax\Google Drive\GitLocalRepositories\K197Display/UImanager.cpp:302
  u8g2.setFont(u8g2_font_6x12_mr);
  u8g2.setCursor(x, y);
  if (k197dev.isBAT())
    bb72:	80 91 a4 6f 	lds	r24, 0x6FA4	; 0x806fa4 <k197dev+0xe>
C:\Users\dax\Google Drive\GitLocalRepositories\K197Display/UImanager.cpp:303
    u8g2.print(F("BAT"));
    bb76:	6e ea       	ldi	r22, 0xAE	; 174
    bb78:	77 e0       	ldi	r23, 0x07	; 7
C:\Users\dax\Google Drive\GitLocalRepositories\K197Display/UImanager.cpp:302
    u8g2.print(F("    "));
  x = u8g2.tx;
  x += u8g2.getMaxCharWidth() * 2;
  u8g2.setFont(u8g2_font_6x12_mr);
  u8g2.setCursor(x, y);
  if (k197dev.isBAT())
    bb7a:	86 fd       	sbrc	r24, 6
    bb7c:	02 c0       	rjmp	.+4      	; 0xbb82 <main+0x1c4c>
C:\Users\dax\Google Drive\GitLocalRepositories\K197Display/UImanager.cpp:305
    u8g2.print(F("BAT"));
  else
    u8g2.print(F("   "));
    bb7e:	6a ea       	ldi	r22, 0xAA	; 170
    bb80:	77 e0       	ldi	r23, 0x07	; 7
    bb82:	83 ee       	ldi	r24, 0xE3	; 227
    bb84:	9e e6       	ldi	r25, 0x6E	; 110
    bb86:	0e 94 1a 2e 	call	0x5c34	; 0x5c34 <Print::print(__FlashStringHelper const*)>
_ZN4U8G27setFontEPKh():
E:\Users\puzzole\Documents\Arduino\libraries\U8g2\src/U8g2lib.h:266
    /* u8log_u8g2.c */
    void drawLog(u8g2_uint_t x, u8g2_uint_t y, class U8G2LOG &u8g2log);
    
    /* u8g2_font.c */

    void setFont(const uint8_t  *font) {u8g2_SetFont(&u8g2, font); }
    bb8a:	69 e7       	ldi	r22, 0x79	; 121
    bb8c:	7d e4       	ldi	r23, 0x4D	; 77
    bb8e:	87 ee       	ldi	r24, 0xE7	; 231
    bb90:	9e e6       	ldi	r25, 0x6E	; 110
    bb92:	0e 94 57 38 	call	0x70ae	; 0x70ae <u8g2_SetFont>
updateNormalScreen():
C:\Users\dax\Google Drive\GitLocalRepositories\K197Display/UImanager.cpp:308

  u8g2.setFont(u8g2_font_8x13_mr);
  y += u8g2.getMaxCharHeight();
    bb96:	00 91 5e 6f 	lds	r16, 0x6F5E	; 0x806f5e <u8g2+0x7b>
    bb9a:	00 2e       	mov	r0, r16
    bb9c:	00 0c       	add	r0, r0
    bb9e:	11 0b       	sbc	r17, r17
    bba0:	0b 5f       	subi	r16, 0xFB	; 251
    bba2:	1f 4f       	sbci	r17, 0xFF	; 255
_ZN4U8G29setCursorEjj():
E:\Users\puzzole\Documents\Arduino\libraries\U8g2\src/U8g2lib.h:386
     /* LiquidCrystal compatible functions */
    void home(void) { tx = 0; ty = 0;  u8x8_utf8_init(u8g2_GetU8x8(&u8g2)); }
    void clear(void) { home(); clearDisplay(); clearBuffer();  }
    void noDisplay(void) { u8g2_SetPowerSave(&u8g2, 1); }
    void display(void) { u8g2_SetPowerSave(&u8g2, 0); }
    void setCursor(u8g2_uint_t x, u8g2_uint_t y) { tx = x; ty = y; }
    bba4:	10 92 75 6f 	sts	0x6F75, r1	; 0x806f75 <u8g2+0x92>
    bba8:	10 92 76 6f 	sts	0x6F76, r1	; 0x806f76 <u8g2+0x93>
    bbac:	00 93 77 6f 	sts	0x6F77, r16	; 0x806f77 <u8g2+0x94>
    bbb0:	10 93 78 6f 	sts	0x6F78, r17	; 0x806f78 <u8g2+0x95>
_ZN10K197device14getDisplayHoldEv():
C:\Users\dax\Google Drive\GitLocalRepositories\K197Display/K197device.h:143

  /*!
      @brief  get display hold mode
      @return true if display hold mode is active, false otherwise
  */
  bool getDisplayHold() { return flags.hold; };
    bbb4:	80 91 96 6f 	lds	r24, 0x6F96	; 0x806f96 <k197dev>
updateNormalScreen():
C:\Users\dax\Google Drive\GitLocalRepositories\K197Display/UImanager.cpp:312
  x = 0;
  u8g2.setCursor(x, y);

  if (!k197dev.getDisplayHold()) {
    bbb8:	83 fd       	sbrc	r24, 3
    bbba:	2d c0       	rjmp	.+90     	; 0xbc16 <main+0x1ce0>
C:\Users\dax\Google Drive\GitLocalRepositories\K197Display/UImanager.cpp:313
    if (k197dev.isREL())
    bbbc:	80 91 a4 6f 	lds	r24, 0x6FA4	; 0x806fa4 <k197dev+0xe>
C:\Users\dax\Google Drive\GitLocalRepositories\K197Display/UImanager.cpp:314
      u8g2.print(F("REL"));
    bbc0:	66 ea       	ldi	r22, 0xA6	; 166
    bbc2:	77 e0       	ldi	r23, 0x07	; 7
C:\Users\dax\Google Drive\GitLocalRepositories\K197Display/UImanager.cpp:313
  y += u8g2.getMaxCharHeight();
  x = 0;
  u8g2.setCursor(x, y);

  if (!k197dev.getDisplayHold()) {
    if (k197dev.isREL())
    bbc4:	81 fd       	sbrc	r24, 1
    bbc6:	02 c0       	rjmp	.+4      	; 0xbbcc <main+0x1c96>
C:\Users\dax\Google Drive\GitLocalRepositories\K197Display/UImanager.cpp:316
      u8g2.print(F("REL"));
    else
      u8g2.print(F("   "));
    bbc8:	62 ea       	ldi	r22, 0xA2	; 162
    bbca:	77 e0       	ldi	r23, 0x07	; 7
    bbcc:	83 ee       	ldi	r24, 0xE3	; 227
    bbce:	9e e6       	ldi	r25, 0x6E	; 110
    bbd0:	0e 94 1a 2e 	call	0x5c34	; 0x5c34 <Print::print(__FlashStringHelper const*)>
C:\Users\dax\Google Drive\GitLocalRepositories\K197Display/UImanager.cpp:317
    x = u8g2.tx;
    bbd4:	20 91 75 6f 	lds	r18, 0x6F75	; 0x806f75 <u8g2+0x92>
    bbd8:	30 91 76 6f 	lds	r19, 0x6F76	; 0x806f76 <u8g2+0x93>
C:\Users\dax\Google Drive\GitLocalRepositories\K197Display/UImanager.cpp:318
    x += (u8g2.getMaxCharWidth() / 2);
    bbdc:	80 91 5d 6f 	lds	r24, 0x6F5D	; 0x806f5d <u8g2+0x7a>
    bbe0:	87 fd       	sbrc	r24, 7
    bbe2:	8f 5f       	subi	r24, 0xFF	; 255
    bbe4:	85 95       	asr	r24
    bbe6:	28 0f       	add	r18, r24
    bbe8:	31 1d       	adc	r19, r1
    bbea:	87 fd       	sbrc	r24, 7
    bbec:	3a 95       	dec	r19
_ZN4U8G29setCursorEjj():
E:\Users\puzzole\Documents\Arduino\libraries\U8g2\src/U8g2lib.h:386
    bbee:	20 93 75 6f 	sts	0x6F75, r18	; 0x806f75 <u8g2+0x92>
    bbf2:	30 93 76 6f 	sts	0x6F76, r19	; 0x806f76 <u8g2+0x93>
    bbf6:	00 93 77 6f 	sts	0x6F77, r16	; 0x806f77 <u8g2+0x94>
    bbfa:	10 93 78 6f 	sts	0x6F78, r17	; 0x806f78 <u8g2+0x95>
updateNormalScreen():
C:\Users\dax\Google Drive\GitLocalRepositories\K197Display/UImanager.cpp:320
    u8g2.setCursor(x, y);
    if (k197dev.isdB())
    bbfe:	80 91 a4 6f 	lds	r24, 0x6FA4	; 0x806fa4 <k197dev+0xe>
C:\Users\dax\Google Drive\GitLocalRepositories\K197Display/UImanager.cpp:321
      u8g2.print(F("dB"));
    bc02:	6f e9       	ldi	r22, 0x9F	; 159
    bc04:	77 e0       	ldi	r23, 0x07	; 7
C:\Users\dax\Google Drive\GitLocalRepositories\K197Display/UImanager.cpp:320
    else
      u8g2.print(F("   "));
    x = u8g2.tx;
    x += (u8g2.getMaxCharWidth() / 2);
    u8g2.setCursor(x, y);
    if (k197dev.isdB())
    bc06:	83 fd       	sbrc	r24, 3
    bc08:	02 c0       	rjmp	.+4      	; 0xbc0e <main+0x1cd8>
C:\Users\dax\Google Drive\GitLocalRepositories\K197Display/UImanager.cpp:323
      u8g2.print(F("dB"));
    else
      u8g2.print(F("  "));
    bc0a:	6c e9       	ldi	r22, 0x9C	; 156
    bc0c:	77 e0       	ldi	r23, 0x07	; 7
    bc0e:	83 ee       	ldi	r24, 0xE3	; 227
    bc10:	9e e6       	ldi	r25, 0x6E	; 110
    bc12:	0e 94 1a 2e 	call	0x5c34	; 0x5c34 <Print::print(__FlashStringHelper const*)>
C:\Users\dax\Google Drive\GitLocalRepositories\K197Display/UImanager.cpp:325
  }
  y += u8g2.getMaxCharHeight();
    bc16:	80 91 5e 6f 	lds	r24, 0x6F5E	; 0x806f5e <u8g2+0x7b>
    bc1a:	08 0f       	add	r16, r24
    bc1c:	11 1d       	adc	r17, r1
    bc1e:	87 fd       	sbrc	r24, 7
    bc20:	1a 95       	dec	r17
_ZN4U8G29setCursorEjj():
E:\Users\puzzole\Documents\Arduino\libraries\U8g2\src/U8g2lib.h:386
    bc22:	10 92 75 6f 	sts	0x6F75, r1	; 0x806f75 <u8g2+0x92>
    bc26:	10 92 76 6f 	sts	0x6F76, r1	; 0x806f76 <u8g2+0x93>
    bc2a:	00 93 77 6f 	sts	0x6F77, r16	; 0x806f77 <u8g2+0x94>
    bc2e:	10 93 78 6f 	sts	0x6F78, r17	; 0x806f78 <u8g2+0x95>
_ZN10K197device14getDisplayHoldEv():
C:\Users\dax\Google Drive\GitLocalRepositories\K197Display/K197device.h:143
    bc32:	80 91 96 6f 	lds	r24, 0x6F96	; 0x806f96 <k197dev>
updateNormalScreen():
C:\Users\dax\Google Drive\GitLocalRepositories\K197Display/UImanager.cpp:329
  x = 0;
  u8g2.setCursor(x, y);
  if (k197dev.getDisplayHold()) {
    u8g2.print(F("HOLD"));
    bc36:	67 e9       	ldi	r22, 0x97	; 151
    bc38:	77 e0       	ldi	r23, 0x07	; 7
C:\Users\dax\Google Drive\GitLocalRepositories\K197Display/UImanager.cpp:328
      u8g2.print(F("  "));
  }
  y += u8g2.getMaxCharHeight();
  x = 0;
  u8g2.setCursor(x, y);
  if (k197dev.getDisplayHold()) {
    bc3a:	83 fd       	sbrc	r24, 3
    bc3c:	22 c0       	rjmp	.+68     	; 0xbc82 <main+0x1d4c>
C:\Users\dax\Google Drive\GitLocalRepositories\K197Display/UImanager.cpp:331
    u8g2.print(F("HOLD"));
  } else {
    if (k197dev.isSTO())
    bc3e:	80 91 a4 6f 	lds	r24, 0x6FA4	; 0x806fa4 <k197dev+0xe>
C:\Users\dax\Google Drive\GitLocalRepositories\K197Display/UImanager.cpp:332
      u8g2.print(F("STO "));
    bc42:	62 e9       	ldi	r22, 0x92	; 146
    bc44:	77 e0       	ldi	r23, 0x07	; 7
C:\Users\dax\Google Drive\GitLocalRepositories\K197Display/UImanager.cpp:331
  x = 0;
  u8g2.setCursor(x, y);
  if (k197dev.getDisplayHold()) {
    u8g2.print(F("HOLD"));
  } else {
    if (k197dev.isSTO())
    bc46:	82 fd       	sbrc	r24, 2
    bc48:	02 c0       	rjmp	.+4      	; 0xbc4e <main+0x1d18>
C:\Users\dax\Google Drive\GitLocalRepositories\K197Display/UImanager.cpp:334
      u8g2.print(F("STO "));
    else
      u8g2.print(F("    "));
    bc4a:	6d e8       	ldi	r22, 0x8D	; 141
    bc4c:	77 e0       	ldi	r23, 0x07	; 7
    bc4e:	83 ee       	ldi	r24, 0xE3	; 227
    bc50:	9e e6       	ldi	r25, 0x6E	; 110
    bc52:	0e 94 1a 2e 	call	0x5c34	; 0x5c34 <Print::print(__FlashStringHelper const*)>
C:\Users\dax\Google Drive\GitLocalRepositories\K197Display/UImanager.cpp:336

    y += u8g2.getMaxCharHeight();
    bc56:	80 91 5e 6f 	lds	r24, 0x6F5E	; 0x806f5e <u8g2+0x7b>
    bc5a:	08 0f       	add	r16, r24
    bc5c:	11 1d       	adc	r17, r1
    bc5e:	87 fd       	sbrc	r24, 7
    bc60:	1a 95       	dec	r17
_ZN4U8G29setCursorEjj():
E:\Users\puzzole\Documents\Arduino\libraries\U8g2\src/U8g2lib.h:386
    bc62:	10 92 75 6f 	sts	0x6F75, r1	; 0x806f75 <u8g2+0x92>
    bc66:	10 92 76 6f 	sts	0x6F76, r1	; 0x806f76 <u8g2+0x93>
    bc6a:	00 93 77 6f 	sts	0x6F77, r16	; 0x806f77 <u8g2+0x94>
    bc6e:	10 93 78 6f 	sts	0x6F78, r17	; 0x806f78 <u8g2+0x95>
updateNormalScreen():
C:\Users\dax\Google Drive\GitLocalRepositories\K197Display/UImanager.cpp:338
    u8g2.setCursor(x, y);
    if (k197dev.isRCL())
    bc72:	80 91 a4 6f 	lds	r24, 0x6FA4	; 0x806fa4 <k197dev+0xe>
C:\Users\dax\Google Drive\GitLocalRepositories\K197Display/UImanager.cpp:339
      u8g2.print(F("RCL "));
    bc76:	68 e8       	ldi	r22, 0x88	; 136
    bc78:	77 e0       	ldi	r23, 0x07	; 7
C:\Users\dax\Google Drive\GitLocalRepositories\K197Display/UImanager.cpp:338
    else
      u8g2.print(F("    "));

    y += u8g2.getMaxCharHeight();
    u8g2.setCursor(x, y);
    if (k197dev.isRCL())
    bc7a:	85 fd       	sbrc	r24, 5
    bc7c:	02 c0       	rjmp	.+4      	; 0xbc82 <main+0x1d4c>
C:\Users\dax\Google Drive\GitLocalRepositories\K197Display/UImanager.cpp:341
      u8g2.print(F("RCL "));
    else
      u8g2.print(F("    "));
    bc7e:	63 e8       	ldi	r22, 0x83	; 131
    bc80:	77 e0       	ldi	r23, 0x07	; 7
    bc82:	83 ee       	ldi	r24, 0xE3	; 227
    bc84:	9e e6       	ldi	r25, 0x6E	; 110
    bc86:	0e 94 1a 2e 	call	0x5c34	; 0x5c34 <Print::print(__FlashStringHelper const*)>
_ZN4U8G29setCursorEjj():
E:\Users\puzzole\Documents\Arduino\libraries\U8g2\src/U8g2lib.h:386
    bc8a:	e5 ee       	ldi	r30, 0xE5	; 229
    bc8c:	f0 e0       	ldi	r31, 0x00	; 0
    bc8e:	e0 93 75 6f 	sts	0x6F75, r30	; 0x806f75 <u8g2+0x92>
    bc92:	f0 93 76 6f 	sts	0x6F76, r31	; 0x806f76 <u8g2+0x93>
    bc96:	10 92 77 6f 	sts	0x6F77, r1	; 0x806f77 <u8g2+0x94>
    bc9a:	10 92 78 6f 	sts	0x6F78, r1	; 0x806f78 <u8g2+0x95>
_ZN10K197device5isCalEv():
C:\Users\dax\Google Drive\GitLocalRepositories\K197Display/K197device.h:355
  /*!
      @brief  test if CAL is on
      @return returns true if on, false otherwise
  */
  inline bool isCal() {
    if ((annunciators8 & K197_Cal_bm) != 0)
    bc9e:	80 91 a6 6f 	lds	r24, 0x6FA6	; 0x806fa6 <k197dev+0x10>
updateNormalScreen():
C:\Users\dax\Google Drive\GitLocalRepositories\K197Display/UImanager.cpp:347
  }
  x = 229;
  y = 0;
  u8g2.setCursor(x, y);
  if (k197dev.isCal())
    u8g2.print(F("Cal"));
    bca2:	6f e7       	ldi	r22, 0x7F	; 127
    bca4:	77 e0       	ldi	r23, 0x07	; 7
_ZN10K197device5isCalEv():
C:\Users\dax\Google Drive\GitLocalRepositories\K197Display/K197device.h:355
    bca6:	80 fd       	sbrc	r24, 0
    bca8:	02 c0       	rjmp	.+4      	; 0xbcae <main+0x1d78>
updateNormalScreen():
C:\Users\dax\Google Drive\GitLocalRepositories\K197Display/UImanager.cpp:349
  else
    u8g2.print(F("   "));
    bcaa:	6b e7       	ldi	r22, 0x7B	; 123
    bcac:	77 e0       	ldi	r23, 0x07	; 7
    bcae:	83 ee       	ldi	r24, 0xE3	; 227
    bcb0:	9e e6       	ldi	r25, 0x6E	; 110
    bcb2:	0e 94 1a 2e 	call	0x5c34	; 0x5c34 <Print::print(__FlashStringHelper const*)>
C:\Users\dax\Google Drive\GitLocalRepositories\K197Display/UImanager.cpp:351

  y += u8g2.getMaxCharHeight() * 3;
    bcb6:	80 91 5e 6f 	lds	r24, 0x6F5E	; 0x806f5e <u8g2+0x7b>
    bcba:	f3 e0       	ldi	r31, 0x03	; 3
    bcbc:	8f 02       	muls	r24, r31
    bcbe:	c0 01       	movw	r24, r0
    bcc0:	11 24       	eor	r1, r1
_ZN4U8G29setCursorEjj():
E:\Users\puzzole\Documents\Arduino\libraries\U8g2\src/U8g2lib.h:386
    bcc2:	05 ee       	ldi	r16, 0xE5	; 229
    bcc4:	10 e0       	ldi	r17, 0x00	; 0
    bcc6:	00 93 75 6f 	sts	0x6F75, r16	; 0x806f75 <u8g2+0x92>
    bcca:	10 93 76 6f 	sts	0x6F76, r17	; 0x806f76 <u8g2+0x93>
    bcce:	80 93 77 6f 	sts	0x6F77, r24	; 0x806f77 <u8g2+0x94>
    bcd2:	90 93 78 6f 	sts	0x6F78, r25	; 0x806f78 <u8g2+0x95>
updateNormalScreen():
C:\Users\dax\Google Drive\GitLocalRepositories\K197Display/UImanager.cpp:353
  u8g2.setCursor(x, y);
  if (k197dev.isRMT())
    bcd6:	80 91 a6 6f 	lds	r24, 0x6FA6	; 0x806fa6 <k197dev+0x10>
C:\Users\dax\Google Drive\GitLocalRepositories\K197Display/UImanager.cpp:354
    u8g2.print(F("RMT"));
    bcda:	67 e7       	ldi	r22, 0x77	; 119
    bcdc:	77 e0       	ldi	r23, 0x07	; 7
C:\Users\dax\Google Drive\GitLocalRepositories\K197Display/UImanager.cpp:353
  else
    u8g2.print(F("   "));

  y += u8g2.getMaxCharHeight() * 3;
  u8g2.setCursor(x, y);
  if (k197dev.isRMT())
    bcde:	85 fd       	sbrc	r24, 5
    bce0:	02 c0       	rjmp	.+4      	; 0xbce6 <main+0x1db0>
C:\Users\dax\Google Drive\GitLocalRepositories\K197Display/UImanager.cpp:356
    u8g2.print(F("RMT"));
  else
    u8g2.print(F("   "));
    bce2:	63 e7       	ldi	r22, 0x73	; 115
    bce4:	77 e0       	ldi	r23, 0x07	; 7
    bce6:	83 ee       	ldi	r24, 0xE3	; 227
    bce8:	9e e6       	ldi	r25, 0x6E	; 110
    bcea:	0e 94 1a 2e 	call	0x5c34	; 0x5c34 <Print::print(__FlashStringHelper const*)>
_ZN4U8G29setCursorEjj():
E:\Users\puzzole\Documents\Arduino\libraries\U8g2\src/U8g2lib.h:386
    bcee:	2c e8       	ldi	r18, 0x8C	; 140
    bcf0:	30 e0       	ldi	r19, 0x00	; 0
    bcf2:	20 93 75 6f 	sts	0x6F75, r18	; 0x806f75 <u8g2+0x92>
    bcf6:	30 93 76 6f 	sts	0x6F76, r19	; 0x806f76 <u8g2+0x93>
    bcfa:	42 e0       	ldi	r20, 0x02	; 2
    bcfc:	50 e0       	ldi	r21, 0x00	; 0
    bcfe:	40 93 77 6f 	sts	0x6F77, r20	; 0x806f77 <u8g2+0x94>
    bd02:	50 93 78 6f 	sts	0x6F78, r21	; 0x806f78 <u8g2+0x95>
_ZN4U8G27setFontEPKh():
E:\Users\puzzole\Documents\Arduino\libraries\U8g2\src/U8g2lib.h:266
    /* u8log_u8g2.c */
    void drawLog(u8g2_uint_t x, u8g2_uint_t y, class U8G2LOG &u8g2log);
    
    /* u8g2_font.c */

    void setFont(const uint8_t  *font) {u8g2_SetFont(&u8g2, font); }
    bd06:	65 e2       	ldi	r22, 0x25	; 37
    bd08:	73 e5       	ldi	r23, 0x53	; 83
    bd0a:	87 ee       	ldi	r24, 0xE7	; 231
    bd0c:	9e e6       	ldi	r25, 0x6E	; 110
    bd0e:	0e 94 57 38 	call	0x70ae	; 0x70ae <u8g2_SetFont>
updateNormalScreen():
C:\Users\dax\Google Drive\GitLocalRepositories\K197Display/UImanager.cpp:362

  x = 140;
  y = 2;
  u8g2.setCursor(x, y);
  u8g2.setFont(u8g2_font_5x7_mr);
  if (k197dev.isTKModeActive() &&
    bd12:	0e 94 e1 2d 	call	0x5bc2	; 0x5bc2 <K197device::isTKModeActive() [clone .constprop.82]>
    bd16:	90 91 96 6f 	lds	r25, 0x6F96	; 0x806f96 <k197dev>
    bd1a:	88 23       	and	r24, r24
    bd1c:	11 f0       	breq	.+4      	; 0xbd22 <main+0x1dec>
    bd1e:	93 ff       	sbrs	r25, 3
    bd20:	05 c0       	rjmp	.+10     	; 0xbd2c <main+0x1df6>
C:\Users\dax\Google Drive\GitLocalRepositories\K197Display/UImanager.cpp:368
      !k197dev.getDisplayHold()) { // Display local temperature
    char buf[K197_RAW_MSG_SIZE + 1];
    dtostrf(k197dev.getTColdJunction(), K197_RAW_MSG_SIZE, 2, buf);
    u8g2.print(buf);
    u8g2.print(k197dev.getUnit());
  } else if (!k197dev.getDisplayHold()) {
    bd22:	93 fd       	sbrc	r25, 3
    bd24:	08 cb       	rjmp	.-2544   	; 0xb336 <main+0x1400>
C:\Users\dax\Google Drive\GitLocalRepositories\K197Display/UImanager.cpp:369
    u8g2.print(F("          "));
    bd26:	68 e6       	ldi	r22, 0x68	; 104
    bd28:	77 e0       	ldi	r23, 0x07	; 7
    bd2a:	72 ce       	rjmp	.-796    	; 0xba10 <main+0x1ada>
getTColdJunction():
C:\Users\dax\Google Drive\GitLocalRepositories\K197Display/K197device.h:407
  /*!
      @brief  returns the temperature used for cold junction compensation
      @return temperature in celsius
  */
  float getTColdJunction() {
    return abs(tcold) < 999.99 ? tcold : 999.99; // Keep it in the display range
    bd2c:	c0 90 a7 6f 	lds	r12, 0x6FA7	; 0x806fa7 <k197dev+0x11>
    bd30:	d0 90 a8 6f 	lds	r13, 0x6FA8	; 0x806fa8 <k197dev+0x12>
    bd34:	e0 90 a9 6f 	lds	r14, 0x6FA9	; 0x806fa9 <k197dev+0x13>
    bd38:	f0 90 aa 6f 	lds	r15, 0x6FAA	; 0x806faa <k197dev+0x14>
    bd3c:	c7 01       	movw	r24, r14
    bd3e:	b6 01       	movw	r22, r12
    bd40:	0e 94 dd 66 	call	0xcdba	; 0xcdba <__fixsfsi>
    bd44:	9b 01       	movw	r18, r22
    bd46:	77 ff       	sbrs	r23, 7
    bd48:	04 c0       	rjmp	.+8      	; 0xbd52 <main+0x1e1c>
    bd4a:	22 27       	eor	r18, r18
    bd4c:	33 27       	eor	r19, r19
    bd4e:	26 1b       	sub	r18, r22
    bd50:	37 0b       	sbc	r19, r23
    bd52:	b9 01       	movw	r22, r18
    bd54:	33 0f       	add	r19, r19
    bd56:	88 0b       	sbc	r24, r24
    bd58:	99 0b       	sbc	r25, r25
    bd5a:	33 d6       	rcall	.+3174   	; 0xc9c2 <__floatsisf>
    bd5c:	2c e5       	ldi	r18, 0x5C	; 92
    bd5e:	3f ef       	ldi	r19, 0xFF	; 255
    bd60:	49 e7       	ldi	r20, 0x79	; 121
    bd62:	54 e4       	ldi	r21, 0x44	; 68
    bd64:	28 d6       	rcall	.+3152   	; 0xc9b6 <__cmpsf2>
    bd66:	87 fd       	sbrc	r24, 7
    bd68:	08 c0       	rjmp	.+16     	; 0xbd7a <main+0x1e44>
main():
    bd6a:	5c e5       	ldi	r21, 0x5C	; 92
    bd6c:	c5 2e       	mov	r12, r21
    bd6e:	dd 24       	eor	r13, r13
    bd70:	da 94       	dec	r13
    bd72:	59 e7       	ldi	r21, 0x79	; 121
    bd74:	e5 2e       	mov	r14, r21
    bd76:	54 e4       	ldi	r21, 0x44	; 68
    bd78:	f5 2e       	mov	r15, r21
updateNormalScreen():
C:\Users\dax\Google Drive\GitLocalRepositories\K197Display/UImanager.cpp:365
  u8g2.setCursor(x, y);
  u8g2.setFont(u8g2_font_5x7_mr);
  if (k197dev.isTKModeActive() &&
      !k197dev.getDisplayHold()) { // Display local temperature
    char buf[K197_RAW_MSG_SIZE + 1];
    dtostrf(k197dev.getTColdJunction(), K197_RAW_MSG_SIZE, 2, buf);
    bd7a:	8e 01       	movw	r16, r28
    bd7c:	0f 5f       	subi	r16, 0xFF	; 255
    bd7e:	1f 4f       	sbci	r17, 0xFF	; 255
    bd80:	22 e0       	ldi	r18, 0x02	; 2
    bd82:	48 e0       	ldi	r20, 0x08	; 8
    bd84:	c7 01       	movw	r24, r14
    bd86:	b6 01       	movw	r22, r12
    bd88:	7e d1       	rcall	.+764    	; 0xc086 <dtostrf>
C:\Users\dax\Google Drive\GitLocalRepositories\K197Display/UImanager.cpp:366
    u8g2.print(buf);
    bd8a:	b8 01       	movw	r22, r16
    bd8c:	83 ee       	ldi	r24, 0xE3	; 227
    bd8e:	9e e6       	ldi	r25, 0x6E	; 110
    bd90:	0e 94 b8 48 	call	0x9170	; 0x9170 <Print::print(char const*)>
C:\Users\dax\Google Drive\GitLocalRepositories\K197Display/UImanager.cpp:367
    u8g2.print(k197dev.getUnit());
    bd94:	80 e0       	ldi	r24, 0x00	; 0
    bd96:	0e 94 9b 2d 	call	0x5b36	; 0x5b36 <K197device::getUnit(bool) [clone .constprop.83]>
    bd9a:	bc 01       	movw	r22, r24
    bd9c:	39 ce       	rjmp	.-910    	; 0xba10 <main+0x1ada>
logData():
C:\Users\dax\Google Drive\GitLocalRepositories\K197Display/UImanager.cpp:784
   datalogging is disabled or in no connection has been detected
*/
void UImanager::logData() {
  if (k197dev.isCal()) // No logging while in Cal mode
    return;
  if ((!logEnable.getValue()) || (!BTman.validconnection()))
    bd9e:	80 91 81 6e 	lds	r24, 0x6E81	; 0x806e81 <logEnable+0x6>
    bda2:	88 23       	and	r24, r24
    bda4:	09 f4       	brne	.+2      	; 0xbda8 <main+0x1e72>
    bda6:	d1 ca       	rjmp	.-2654   	; 0xb34a <main+0x1414>
validconnection():
C:\Users\dax\Google Drive\GitLocalRepositories\K197Display/BTmanager.h:74
   @details in normal operation validconnection() and is connected should return
   the same result, but due to timing of the check in rare occasions they may
   differ.
   @return true if both isPresent() and isConnected() return true
  */
  bool validconnection() { return bt_module_present && bt_module_connected; };
    bda8:	80 91 c0 6f 	lds	r24, 0x6FC0	; 0x806fc0 <BTman>
    bdac:	88 23       	and	r24, r24
    bdae:	09 f4       	brne	.+2      	; 0xbdb2 <main+0x1e7c>
    bdb0:	cc ca       	rjmp	.-2664   	; 0xb34a <main+0x1414>
    bdb2:	80 91 c1 6f 	lds	r24, 0x6FC1	; 0x806fc1 <BTman+0x1>
    bdb6:	88 23       	and	r24, r24
    bdb8:	09 f4       	brne	.+2      	; 0xbdbc <main+0x1e86>
    bdba:	c7 ca       	rjmp	.-2674   	; 0xb34a <main+0x1414>
logData():
C:\Users\dax\Google Drive\GitLocalRepositories\K197Display/UImanager.cpp:786
    return;
  if (logskip_counter < logSkip.getValue()) {
    bdbc:	80 91 81 6f 	lds	r24, 0x6F81	; 0x806f81 <uiman+0x8>
    bdc0:	90 91 7a 6e 	lds	r25, 0x6E7A	; 0x806e7a <logSkip+0x6>
    bdc4:	89 17       	cp	r24, r25
    bdc6:	20 f4       	brcc	.+8      	; 0xbdd0 <main+0x1e9a>
C:\Users\dax\Google Drive\GitLocalRepositories\K197Display/UImanager.cpp:787
    logskip_counter++;
    bdc8:	8f 5f       	subi	r24, 0xFF	; 255
    bdca:	80 93 81 6f 	sts	0x6F81, r24	; 0x806f81 <uiman+0x8>
    bdce:	bd ca       	rjmp	.-2694   	; 0xb34a <main+0x1414>
C:\Users\dax\Google Drive\GitLocalRepositories\K197Display/UImanager.cpp:790
    return;
  }
  logskip_counter = 0;
    bdd0:	10 92 81 6f 	sts	0x6F81, r1	; 0x806f81 <uiman+0x8>
C:\Users\dax\Google Drive\GitLocalRepositories\K197Display/UImanager.cpp:791
  if (logTimestamp.getValue()) {
    bdd4:	80 91 6c 6e 	lds	r24, 0x6E6C	; 0x806e6c <logTimestamp+0x6>
    bdd8:	88 23       	and	r24, r24
    bdda:	c1 f0       	breq	.+48     	; 0xbe0c <main+0x1ed6>
millis():
C:\Users\dax\AppData\Local\Arduino15\packages\DxCore\hardware\megaavr\1.4.10\cores\dxcore/wiring.c:181
  unsigned long millis()
  {
    unsigned long m;
    // disable interrupts while we read timer_millis or we might get an
    // inconsistent value (e.g. in the middle of a write to timer_millis)
    uint8_t oldSREG = SREG;
    bddc:	8f b7       	in	r24, 0x3f	; 63
C:\Users\dax\AppData\Local\Arduino15\packages\DxCore\hardware\megaavr\1.4.10\cores\dxcore/wiring.c:182
    cli();
    bdde:	f8 94       	cli
C:\Users\dax\AppData\Local\Arduino15\packages\DxCore\hardware\megaavr\1.4.10\cores\dxcore/wiring.c:194
      m = (m << 16);
      m += RTC.CNT;
      // now correct for there being 1000ms to the second instead of 1024
      m = m - (m >> 5) - (m >> 6);
    #else
      m = timer_millis;
    bde0:	40 91 35 64 	lds	r20, 0x6435	; 0x806435 <timer_millis>
    bde4:	50 91 36 64 	lds	r21, 0x6436	; 0x806436 <timer_millis+0x1>
    bde8:	60 91 37 64 	lds	r22, 0x6437	; 0x806437 <timer_millis+0x2>
    bdec:	70 91 38 64 	lds	r23, 0x6438	; 0x806438 <timer_millis+0x3>
C:\Users\dax\AppData\Local\Arduino15\packages\DxCore\hardware\megaavr\1.4.10\cores\dxcore/wiring.c:195
      SREG = oldSREG;
    bdf0:	8f bf       	out	0x3f, r24	; 63
print():
C:\Users\dax\AppData\Local\Arduino15\packages\DxCore\hardware\megaavr\1.4.10\cores\dxcore\api/Print.cpp:105
}

size_t Print::print(unsigned long n, int base)
{
  if (base == 0) return write(n);
  else return printNumber(n, base);
    bdf2:	2a e0       	ldi	r18, 0x0A	; 10
    bdf4:	81 e4       	ldi	r24, 0x41	; 65
    bdf6:	94 e6       	ldi	r25, 0x64	; 100
    bdf8:	0e 94 09 44 	call	0x8812	; 0x8812 <Print::printNumber(unsigned long, unsigned char)>
logData():
C:\Users\dax\Google Drive\GitLocalRepositories\K197Display/UImanager.cpp:793
    Serial.print(millis());
    logU2U();
    bdfc:	0e 94 04 3e 	call	0x7c08	; 0x7c08 <logU2U()>
C:\Users\dax\Google Drive\GitLocalRepositories\K197Display/UImanager.cpp:794
    Serial.print(F(" ms; "));
    be00:	62 e6       	ldi	r22, 0x62	; 98
    be02:	78 e0       	ldi	r23, 0x08	; 8
    be04:	81 e4       	ldi	r24, 0x41	; 65
    be06:	94 e6       	ldi	r25, 0x64	; 100
    be08:	0e 94 1a 2e 	call	0x5c34	; 0x5c34 <Print::print(__FlashStringHelper const*)>
_ZN10K197device9isNumericEv():
C:\Users\dax\Google Drive\GitLocalRepositories\K197Display/K197device.h:200
  /*!
      @brief  check if message is a number
      @return true if message is a number (false means something else, like
     "Err", "0L", etc.)
  */
  bool isNumeric() { return flags.msg_is_num; };
    be0c:	80 91 96 6f 	lds	r24, 0x6F96	; 0x806f96 <k197dev>
logData():
C:\Users\dax\Google Drive\GitLocalRepositories\K197Display/UImanager.cpp:800
  }
  if (k197dev.isNumeric()) {
    char buf[K197_RAW_MSG_SIZE + 1];
    Serial.print(formatNumber(buf, k197dev.getValue()));
  } else
    Serial.print(k197dev.getRawMessage());
    be10:	67 e9       	ldi	r22, 0x97	; 151
    be12:	7f e6       	ldi	r23, 0x6F	; 111
C:\Users\dax\Google Drive\GitLocalRepositories\K197Display/UImanager.cpp:796
  if (logTimestamp.getValue()) {
    Serial.print(millis());
    logU2U();
    Serial.print(F(" ms; "));
  }
  if (k197dev.isNumeric()) {
    be14:	81 ff       	sbrs	r24, 1
    be16:	0d c0       	rjmp	.+26     	; 0xbe32 <main+0x1efc>
C:\Users\dax\Google Drive\GitLocalRepositories\K197Display/UImanager.cpp:798
    char buf[K197_RAW_MSG_SIZE + 1];
    Serial.print(formatNumber(buf, k197dev.getValue()));
    be18:	40 91 a0 6f 	lds	r20, 0x6FA0	; 0x806fa0 <k197dev+0xa>
    be1c:	50 91 a1 6f 	lds	r21, 0x6FA1	; 0x806fa1 <k197dev+0xb>
    be20:	60 91 a2 6f 	lds	r22, 0x6FA2	; 0x806fa2 <k197dev+0xc>
    be24:	70 91 a3 6f 	lds	r23, 0x6FA3	; 0x806fa3 <k197dev+0xd>
    be28:	ce 01       	movw	r24, r28
    be2a:	01 96       	adiw	r24, 0x01	; 1
    be2c:	0e 94 c2 41 	call	0x8384	; 0x8384 <UImanager::formatNumber(char*, float)>
    be30:	bc 01       	movw	r22, r24
C:\Users\dax\Google Drive\GitLocalRepositories\K197Display/UImanager.cpp:800
  } else
    Serial.print(k197dev.getRawMessage());
    be32:	81 e4       	ldi	r24, 0x41	; 65
    be34:	94 e6       	ldi	r25, 0x64	; 100
    be36:	0e 94 b8 48 	call	0x9170	; 0x9170 <Print::print(char const*)>
C:\Users\dax\Google Drive\GitLocalRepositories\K197Display/UImanager.cpp:801
  logU2U();
    be3a:	0e 94 04 3e 	call	0x7c08	; 0x7c08 <logU2U()>
C:\Users\dax\Google Drive\GitLocalRepositories\K197Display/UImanager.cpp:802
  const __FlashStringHelper *unit = k197dev.getUnit(true);
    be3e:	81 e0       	ldi	r24, 0x01	; 1
    be40:	0e 94 9b 2d 	call	0x5b36	; 0x5b36 <K197device::getUnit(bool) [clone .constprop.83]>
    be44:	8c 01       	movw	r16, r24
C:\Users\dax\Google Drive\GitLocalRepositories\K197Display/UImanager.cpp:803
  Serial.print(unit);
    be46:	bc 01       	movw	r22, r24
    be48:	81 e4       	ldi	r24, 0x41	; 65
    be4a:	94 e6       	ldi	r25, 0x64	; 100
    be4c:	0e 94 1a 2e 	call	0x5c34	; 0x5c34 <Print::print(__FlashStringHelper const*)>
C:\Users\dax\Google Drive\GitLocalRepositories\K197Display/UImanager.cpp:804
  if (k197dev.isAC())
    be50:	80 91 a4 6f 	lds	r24, 0x6FA4	; 0x806fa4 <k197dev+0xe>
    be54:	84 ff       	sbrs	r24, 4
    be56:	06 c0       	rjmp	.+12     	; 0xbe64 <main+0x1f2e>
C:\Users\dax\Google Drive\GitLocalRepositories\K197Display/UImanager.cpp:805
    Serial.print(F(" AC"));
    be58:	6e e5       	ldi	r22, 0x5E	; 94
    be5a:	78 e0       	ldi	r23, 0x08	; 8
    be5c:	81 e4       	ldi	r24, 0x41	; 65
    be5e:	94 e6       	ldi	r25, 0x64	; 100
    be60:	0e 94 1a 2e 	call	0x5c34	; 0x5c34 <Print::print(__FlashStringHelper const*)>
C:\Users\dax\Google Drive\GitLocalRepositories\K197Display/UImanager.cpp:806
  if (k197dev.isTKModeActive() && logTamb.getValue()) {
    be64:	0e 94 e1 2d 	call	0x5bc2	; 0x5bc2 <K197device::isTKModeActive() [clone .constprop.82]>
    be68:	88 23       	and	r24, r24
    be6a:	09 f4       	brne	.+2      	; 0xbe6e <main+0x1f38>
    be6c:	3e c0       	rjmp	.+124    	; 0xbeea <main+0x1fb4>
    be6e:	80 91 65 6e 	lds	r24, 0x6E65	; 0x806e65 <logTamb+0x6>
    be72:	88 23       	and	r24, r24
    be74:	d1 f1       	breq	.+116    	; 0xbeea <main+0x1fb4>
C:\Users\dax\Google Drive\GitLocalRepositories\K197Display/UImanager.cpp:807
    Serial.print(F("; "));
    be76:	6b e5       	ldi	r22, 0x5B	; 91
    be78:	78 e0       	ldi	r23, 0x08	; 8
    be7a:	81 e4       	ldi	r24, 0x41	; 65
    be7c:	94 e6       	ldi	r25, 0x64	; 100
    be7e:	0e 94 1a 2e 	call	0x5c34	; 0x5c34 <Print::print(__FlashStringHelper const*)>
getTColdJunction():
C:\Users\dax\Google Drive\GitLocalRepositories\K197Display/K197device.h:407
  /*!
      @brief  returns the temperature used for cold junction compensation
      @return temperature in celsius
  */
  float getTColdJunction() {
    return abs(tcold) < 999.99 ? tcold : 999.99; // Keep it in the display range
    be82:	c0 90 a7 6f 	lds	r12, 0x6FA7	; 0x806fa7 <k197dev+0x11>
    be86:	d0 90 a8 6f 	lds	r13, 0x6FA8	; 0x806fa8 <k197dev+0x12>
    be8a:	e0 90 a9 6f 	lds	r14, 0x6FA9	; 0x806fa9 <k197dev+0x13>
    be8e:	f0 90 aa 6f 	lds	r15, 0x6FAA	; 0x806faa <k197dev+0x14>
    be92:	c7 01       	movw	r24, r14
    be94:	b6 01       	movw	r22, r12
    be96:	91 d7       	rcall	.+3874   	; 0xcdba <__fixsfsi>
    be98:	9b 01       	movw	r18, r22
    be9a:	77 ff       	sbrs	r23, 7
    be9c:	04 c0       	rjmp	.+8      	; 0xbea6 <main+0x1f70>
    be9e:	22 27       	eor	r18, r18
    bea0:	33 27       	eor	r19, r19
    bea2:	26 1b       	sub	r18, r22
    bea4:	37 0b       	sbc	r19, r23
    bea6:	b9 01       	movw	r22, r18
    bea8:	33 0f       	add	r19, r19
    beaa:	88 0b       	sbc	r24, r24
    beac:	99 0b       	sbc	r25, r25
    beae:	89 d5       	rcall	.+2834   	; 0xc9c2 <__floatsisf>
    beb0:	2c e5       	ldi	r18, 0x5C	; 92
    beb2:	3f ef       	ldi	r19, 0xFF	; 255
    beb4:	49 e7       	ldi	r20, 0x79	; 121
    beb6:	54 e4       	ldi	r21, 0x44	; 68
    beb8:	7e d5       	rcall	.+2812   	; 0xc9b6 <__cmpsf2>
    beba:	87 fd       	sbrc	r24, 7
    bebc:	08 c0       	rjmp	.+16     	; 0xbece <main+0x1f98>
main():
    bebe:	4c e5       	ldi	r20, 0x5C	; 92
    bec0:	c4 2e       	mov	r12, r20
    bec2:	dd 24       	eor	r13, r13
    bec4:	da 94       	dec	r13
    bec6:	49 e7       	ldi	r20, 0x79	; 121
    bec8:	e4 2e       	mov	r14, r20
    beca:	44 e4       	ldi	r20, 0x44	; 68
    becc:	f4 2e       	mov	r15, r20
print():
C:\Users\dax\AppData\Local\Arduino15\packages\DxCore\hardware\megaavr\1.4.10\cores\dxcore\api/Print.cpp:110
}

size_t Print::print(double n, int digits)
{
  return printFloat(n, digits);
    bece:	22 e0       	ldi	r18, 0x02	; 2
    bed0:	b7 01       	movw	r22, r14
    bed2:	a6 01       	movw	r20, r12
    bed4:	81 e4       	ldi	r24, 0x41	; 65
    bed6:	94 e6       	ldi	r25, 0x64	; 100
    bed8:	0e 94 a6 44 	call	0x894c	; 0x894c <Print::printFloat(double, unsigned char)>
logData():
C:\Users\dax\Google Drive\GitLocalRepositories\K197Display/UImanager.cpp:809
    Serial.print(k197dev.getTColdJunction());
    logU2U();
    bedc:	0e 94 04 3e 	call	0x7c08	; 0x7c08 <logU2U()>
C:\Users\dax\Google Drive\GitLocalRepositories\K197Display/UImanager.cpp:810
    Serial.print(unit);
    bee0:	b8 01       	movw	r22, r16
    bee2:	81 e4       	ldi	r24, 0x41	; 65
    bee4:	94 e6       	ldi	r25, 0x64	; 100
    bee6:	0e 94 1a 2e 	call	0x5c34	; 0x5c34 <Print::print(__FlashStringHelper const*)>
C:\Users\dax\Google Drive\GitLocalRepositories\K197Display/UImanager.cpp:812
  }
  if (logStat.getValue()) {
    beea:	80 91 5e 6e 	lds	r24, 0x6E5E	; 0x806e5e <logStat+0x6>
    beee:	88 23       	and	r24, r24
    bef0:	09 f4       	brne	.+2      	; 0xbef4 <main+0x1fbe>
    bef2:	5a c0       	rjmp	.+180    	; 0xbfa8 <main+0x2072>
C:\Users\dax\Google Drive\GitLocalRepositories\K197Display/UImanager.cpp:814
    char buf[K197_RAW_MSG_SIZE + 1];
    Serial.print(F("; "));
    bef4:	68 e5       	ldi	r22, 0x58	; 88
    bef6:	78 e0       	ldi	r23, 0x08	; 8
    bef8:	81 e4       	ldi	r24, 0x41	; 65
    befa:	94 e6       	ldi	r25, 0x64	; 100
    befc:	0e 94 1a 2e 	call	0x5c34	; 0x5c34 <Print::print(__FlashStringHelper const*)>
C:\Users\dax\Google Drive\GitLocalRepositories\K197Display/UImanager.cpp:815
    Serial.print(formatNumber(buf, k197dev.getMin()));
    bf00:	40 91 b8 6f 	lds	r20, 0x6FB8	; 0x806fb8 <k197dev+0x22>
    bf04:	50 91 b9 6f 	lds	r21, 0x6FB9	; 0x806fb9 <k197dev+0x23>
    bf08:	60 91 ba 6f 	lds	r22, 0x6FBA	; 0x806fba <k197dev+0x24>
    bf0c:	70 91 bb 6f 	lds	r23, 0x6FBB	; 0x806fbb <k197dev+0x25>
    bf10:	ce 01       	movw	r24, r28
    bf12:	01 96       	adiw	r24, 0x01	; 1
    bf14:	0e 94 c2 41 	call	0x8384	; 0x8384 <UImanager::formatNumber(char*, float)>
    bf18:	bc 01       	movw	r22, r24
    bf1a:	81 e4       	ldi	r24, 0x41	; 65
    bf1c:	94 e6       	ldi	r25, 0x64	; 100
    bf1e:	0e 94 b8 48 	call	0x9170	; 0x9170 <Print::print(char const*)>
C:\Users\dax\Google Drive\GitLocalRepositories\K197Display/UImanager.cpp:816
    logU2U();
    bf22:	0e 94 04 3e 	call	0x7c08	; 0x7c08 <logU2U()>
C:\Users\dax\Google Drive\GitLocalRepositories\K197Display/UImanager.cpp:817
    Serial.print(unit);
    bf26:	b8 01       	movw	r22, r16
    bf28:	81 e4       	ldi	r24, 0x41	; 65
    bf2a:	94 e6       	ldi	r25, 0x64	; 100
    bf2c:	0e 94 1a 2e 	call	0x5c34	; 0x5c34 <Print::print(__FlashStringHelper const*)>
C:\Users\dax\Google Drive\GitLocalRepositories\K197Display/UImanager.cpp:818
    Serial.print(F("; "));
    bf30:	65 e5       	ldi	r22, 0x55	; 85
    bf32:	78 e0       	ldi	r23, 0x08	; 8
    bf34:	81 e4       	ldi	r24, 0x41	; 65
    bf36:	94 e6       	ldi	r25, 0x64	; 100
    bf38:	0e 94 1a 2e 	call	0x5c34	; 0x5c34 <Print::print(__FlashStringHelper const*)>
C:\Users\dax\Google Drive\GitLocalRepositories\K197Display/UImanager.cpp:819
    Serial.print(formatNumber(buf, k197dev.getAverage()));
    bf3c:	40 91 b4 6f 	lds	r20, 0x6FB4	; 0x806fb4 <k197dev+0x1e>
    bf40:	50 91 b5 6f 	lds	r21, 0x6FB5	; 0x806fb5 <k197dev+0x1f>
    bf44:	60 91 b6 6f 	lds	r22, 0x6FB6	; 0x806fb6 <k197dev+0x20>
    bf48:	70 91 b7 6f 	lds	r23, 0x6FB7	; 0x806fb7 <k197dev+0x21>
    bf4c:	ce 01       	movw	r24, r28
    bf4e:	01 96       	adiw	r24, 0x01	; 1
    bf50:	0e 94 c2 41 	call	0x8384	; 0x8384 <UImanager::formatNumber(char*, float)>
    bf54:	bc 01       	movw	r22, r24
    bf56:	81 e4       	ldi	r24, 0x41	; 65
    bf58:	94 e6       	ldi	r25, 0x64	; 100
    bf5a:	0e 94 b8 48 	call	0x9170	; 0x9170 <Print::print(char const*)>
C:\Users\dax\Google Drive\GitLocalRepositories\K197Display/UImanager.cpp:820
    logU2U();
    bf5e:	0e 94 04 3e 	call	0x7c08	; 0x7c08 <logU2U()>
C:\Users\dax\Google Drive\GitLocalRepositories\K197Display/UImanager.cpp:821
    Serial.print(unit);
    bf62:	b8 01       	movw	r22, r16
    bf64:	81 e4       	ldi	r24, 0x41	; 65
    bf66:	94 e6       	ldi	r25, 0x64	; 100
    bf68:	0e 94 1a 2e 	call	0x5c34	; 0x5c34 <Print::print(__FlashStringHelper const*)>
C:\Users\dax\Google Drive\GitLocalRepositories\K197Display/UImanager.cpp:822
    Serial.print(F("; "));
    bf6c:	62 e5       	ldi	r22, 0x52	; 82
    bf6e:	78 e0       	ldi	r23, 0x08	; 8
    bf70:	81 e4       	ldi	r24, 0x41	; 65
    bf72:	94 e6       	ldi	r25, 0x64	; 100
    bf74:	0e 94 1a 2e 	call	0x5c34	; 0x5c34 <Print::print(__FlashStringHelper const*)>
C:\Users\dax\Google Drive\GitLocalRepositories\K197Display/UImanager.cpp:823
    Serial.print(formatNumber(buf, k197dev.getMax()));
    bf78:	40 91 bc 6f 	lds	r20, 0x6FBC	; 0x806fbc <k197dev+0x26>
    bf7c:	50 91 bd 6f 	lds	r21, 0x6FBD	; 0x806fbd <k197dev+0x27>
    bf80:	60 91 be 6f 	lds	r22, 0x6FBE	; 0x806fbe <k197dev+0x28>
    bf84:	70 91 bf 6f 	lds	r23, 0x6FBF	; 0x806fbf <k197dev+0x29>
    bf88:	ce 01       	movw	r24, r28
    bf8a:	01 96       	adiw	r24, 0x01	; 1
    bf8c:	0e 94 c2 41 	call	0x8384	; 0x8384 <UImanager::formatNumber(char*, float)>
    bf90:	bc 01       	movw	r22, r24
    bf92:	81 e4       	ldi	r24, 0x41	; 65
    bf94:	94 e6       	ldi	r25, 0x64	; 100
    bf96:	0e 94 b8 48 	call	0x9170	; 0x9170 <Print::print(char const*)>
C:\Users\dax\Google Drive\GitLocalRepositories\K197Display/UImanager.cpp:824
    logU2U();
    bf9a:	0e 94 04 3e 	call	0x7c08	; 0x7c08 <logU2U()>
C:\Users\dax\Google Drive\GitLocalRepositories\K197Display/UImanager.cpp:825
    Serial.print(unit);
    bf9e:	b8 01       	movw	r22, r16
    bfa0:	81 e4       	ldi	r24, 0x41	; 65
    bfa2:	94 e6       	ldi	r25, 0x64	; 100
    bfa4:	0e 94 1a 2e 	call	0x5c34	; 0x5c34 <Print::print(__FlashStringHelper const*)>
C:\Users\dax\Google Drive\GitLocalRepositories\K197Display/UImanager.cpp:827
  }
  Serial.println();
    bfa8:	81 e4       	ldi	r24, 0x41	; 65
    bfaa:	94 e6       	ldi	r25, 0x64	; 100
    bfac:	0e 94 f5 43 	call	0x87ea	; 0x87ea <Print::println()>
C:\Users\dax\Google Drive\GitLocalRepositories\K197Display/UImanager.cpp:828
  dxUtil.checkFreeStack();
    bfb0:	0e 94 12 2c 	call	0x5824	; 0x5824 <dxUtilClass::checkFreeStack() [clone .constprop.157]>
    bfb4:	ca c9       	rjmp	.-3180   	; 0xb34a <main+0x1414>
checkPresence():
C:\Users\dax\Google Drive\GitLocalRepositories\K197Display/BTmanager.cpp:134
                 // bug in Serial may hang the SW, and cause a WDT reset
    DebugOut.useSerial(true);
    DebugOut.println(F("BT turned on"));
    return BTmoduleTurnedOn;
  } else { // Module was turned off
    Serial.end();
    bfb6:	81 e4       	ldi	r24, 0x41	; 65
    bfb8:	94 e6       	ldi	r25, 0x64	; 100
    bfba:	0e 94 fd 2e 	call	0x5dfa	; 0x5dfa <UartClass::end()>
C:\Users\dax\Google Drive\GitLocalRepositories\K197Display/BTmanager.cpp:135
    BT_USART.CTRLB &= (~(USART_RXEN_bm |
    bfbe:	80 91 06 08 	lds	r24, 0x0806	; 0x800806 <__TEXT_REGION_LENGTH__+0x7f0806>
    bfc2:	8f 73       	andi	r24, 0x3F	; 63
    bfc4:	80 93 06 08 	sts	0x0806, r24	; 0x800806 <__TEXT_REGION_LENGTH__+0x7f0806>
_pinConfigure():
C:\Users\dax\AppData\Local\Arduino15\packages\DxCore\hardware\megaavr\1.4.10\cores\dxcore/wiring_digital.c:120
  }
  volatile uint8_t *portbase = (volatile uint8_t*) digitalPinToPortStruct(pin);
  uint8_t bit_pos = digitalPinToBitPosition(pin);
  uint8_t setting = pinconfig & 0x03; // grab direction bits
  if (setting) {
    *(portbase + setting) = bit_mask; // DIR
    bfc8:	81 e0       	ldi	r24, 0x01	; 1
    bfca:	80 93 01 04 	sts	0x0401, r24	; 0x800401 <__TEXT_REGION_LENGTH__+0x7f0401>
C:\Users\dax\AppData\Local\Arduino15\packages\DxCore\hardware\megaavr\1.4.10\cores\dxcore/wiring_digital.c:125
  }
  pinconfig >>= 2;
  setting = pinconfig & 0x03; // as above, only for output
  if (setting) {
    *(portbase + 4 + setting) = bit_mask;  // OUT
    bfce:	80 93 06 04 	sts	0x0406, r24	; 0x800406 <__TEXT_REGION_LENGTH__+0x7f0406>
C:\Users\dax\AppData\Local\Arduino15\packages\DxCore\hardware\megaavr\1.4.10\cores\dxcore/wiring_digital.c:129
  }
  if (!(pinconfig & 0x3FFC)) return; // RETURN if we're done before we start this mess.
  pinconfig >>= 2;
  uint8_t oldSREG = SREG;
    bfd2:	9f b7       	in	r25, 0x3f	; 63
C:\Users\dax\AppData\Local\Arduino15\packages\DxCore\hardware\megaavr\1.4.10\cores\dxcore/wiring_digital.c:130
  cli();
    bfd4:	f8 94       	cli
C:\Users\dax\AppData\Local\Arduino15\packages\DxCore\hardware\megaavr\1.4.10\cores\dxcore/wiring_digital.c:131
  uint8_t pinncfg = *(portbase + 0x10 + bit_pos);
    bfd6:	80 91 10 04 	lds	r24, 0x0410	; 0x800410 <__TEXT_REGION_LENGTH__+0x7f0410>
C:\Users\dax\AppData\Local\Arduino15\packages\DxCore\hardware\megaavr\1.4.10\cores\dxcore/wiring_digital.c:133
  if (pinconfig & 0x08 ) {
    pinncfg = (pinncfg & 0xF8 ) | (pinconfig & 0x07); // INPUT SENSE CONFIG
    bfda:	88 7f       	andi	r24, 0xF8	; 248
C:\Users\dax\AppData\Local\Arduino15\packages\DxCore\hardware\megaavr\1.4.10\cores\dxcore/wiring_digital.c:183
      pinncfg &= ~(0x80); // clear
    } else {
      pinncfg |= 0x80;    // set
    }
  }
  *(portbase + 0x10 + bit_pos) = pinncfg;
    bfdc:	80 93 10 04 	sts	0x0410, r24	; 0x800410 <__TEXT_REGION_LENGTH__+0x7f0410>
C:\Users\dax\AppData\Local\Arduino15\packages\DxCore\hardware\megaavr\1.4.10\cores\dxcore/wiring_digital.c:184
  SREG=oldSREG; // re-enable interrupts
    bfe0:	9f bf       	out	0x3f, r25	; 63
C:\Users\dax\AppData\Local\Arduino15\packages\DxCore\hardware\megaavr\1.4.10\cores\dxcore/wiring_digital.c:120
  }
  volatile uint8_t *portbase = (volatile uint8_t*) digitalPinToPortStruct(pin);
  uint8_t bit_pos = digitalPinToBitPosition(pin);
  uint8_t setting = pinconfig & 0x03; // grab direction bits
  if (setting) {
    *(portbase + setting) = bit_mask; // DIR
    bfe2:	82 e0       	ldi	r24, 0x02	; 2
    bfe4:	80 93 02 04 	sts	0x0402, r24	; 0x800402 <__TEXT_REGION_LENGTH__+0x7f0402>
C:\Users\dax\AppData\Local\Arduino15\packages\DxCore\hardware\megaavr\1.4.10\cores\dxcore/wiring_digital.c:129
  if (setting) {
    *(portbase + 4 + setting) = bit_mask;  // OUT
  }
  if (!(pinconfig & 0x3FFC)) return; // RETURN if we're done before we start this mess.
  pinconfig >>= 2;
  uint8_t oldSREG = SREG;
    bfe8:	9f b7       	in	r25, 0x3f	; 63
C:\Users\dax\AppData\Local\Arduino15\packages\DxCore\hardware\megaavr\1.4.10\cores\dxcore/wiring_digital.c:130
  cli();
    bfea:	f8 94       	cli
C:\Users\dax\AppData\Local\Arduino15\packages\DxCore\hardware\megaavr\1.4.10\cores\dxcore/wiring_digital.c:131
  uint8_t pinncfg = *(portbase + 0x10 + bit_pos);
    bfec:	80 91 11 04 	lds	r24, 0x0411	; 0x800411 <__TEXT_REGION_LENGTH__+0x7f0411>
C:\Users\dax\AppData\Local\Arduino15\packages\DxCore\hardware\megaavr\1.4.10\cores\dxcore/wiring_digital.c:140
  uint8_t temp = pinconfig & 0x30; // PULLUP
  if (temp) {
    if (temp == 0x30) {
      pinncfg ^= 0x08;    // toggle pullup - of dubious utility
    } else if (temp == 0x20) {
      pinncfg &= ~(0x08); // clear
    bff0:	87 7f       	andi	r24, 0xF7	; 247
C:\Users\dax\AppData\Local\Arduino15\packages\DxCore\hardware\megaavr\1.4.10\cores\dxcore/wiring_digital.c:183
      pinncfg &= ~(0x80); // clear
    } else {
      pinncfg |= 0x80;    // set
    }
  }
  *(portbase + 0x10 + bit_pos) = pinncfg;
    bff2:	80 93 11 04 	sts	0x0411, r24	; 0x800411 <__TEXT_REGION_LENGTH__+0x7f0411>
C:\Users\dax\AppData\Local\Arduino15\packages\DxCore\hardware\megaavr\1.4.10\cores\dxcore/wiring_digital.c:184
  SREG=oldSREG; // re-enable interrupts
    bff6:	9f bf       	out	0x3f, r25	; 63
checkPresence():
C:\Users\dax\Google Drive\GitLocalRepositories\K197Display/BTmanager.cpp:139
                         USART_TXEN_bm)); // Disable RX and TX for good measure
    pinConfigure(SERIAL_TX, PIN_DIR_OUTPUT | PIN_OUT_LOW | PIN_INPUT_ENABLE);
    pinConfigure(SERIAL_RX, PIN_DIR_INPUT | PIN_PULLUP_OFF);
    DebugOut.println(F("BT turned off"));
    bff8:	65 e7       	ldi	r22, 0x75	; 117
    bffa:	78 e0       	ldi	r23, 0x08	; 8
    bffc:	c5 c9       	rjmp	.-3190   	; 0xb388 <main+0x1452>
main():
C:\Users\dax\Google Drive\GitLocalRepositories\K197Display/BTmanager.cpp:89
*/
BTmanagerResult BTmanager::checkConnection() {
  dxUtil.checkFreeStack();
  bool bt_module_connected_now;
  if (BT_STATE_VPORT.IN & BT_STATE_bm) { // BT_STATE == HIGH
    bt_module_connected_now = false;     // no connection
    bffe:	80 e0       	ldi	r24, 0x00	; 0
    c000:	cd c9       	rjmp	.-3174   	; 0xb39c <main+0x1466>
checkPressed():
C:\Users\dax\Google Drive\GitLocalRepositories\K197Display/K197PushButtons.cpp:525
  // if the button is already pressed, we handle LongPress & Hold
  if (now - startPressed[i] > longPressTime) {
    if (startPressed[i] == lastHold[i]) { // 1st hold event is a LongPress
      invoke_callback(i, UIeventLongPress);
      lastHold[i] = now;
    } else if (now - lastHold[i] > holdTime) { // hold event
    c002:	a5 01       	movw	r20, r10
    c004:	94 01       	movw	r18, r8
    c006:	28 1b       	sub	r18, r24
    c008:	39 0b       	sbc	r19, r25
    c00a:	4a 0b       	sbc	r20, r26
    c00c:	5b 0b       	sbc	r21, r27
    c00e:	da 01       	movw	r26, r20
    c010:	c9 01       	movw	r24, r18
    c012:	81 34       	cpi	r24, 0x41	; 65
    c014:	9d 40       	sbci	r25, 0x0D	; 13
    c016:	a3 40       	sbci	r26, 0x03	; 3
    c018:	b1 05       	cpc	r27, r1
    c01a:	08 f4       	brcc	.+2      	; 0xc01e <main+0x20e8>
    c01c:	81 ca       	rjmp	.-2814   	; 0xb520 <main+0x15ea>
C:\Users\dax\Google Drive\GitLocalRepositories\K197Display/K197PushButtons.cpp:526
      invoke_callback(i, UIeventHold);
    c01e:	63 e1       	ldi	r22, 0x13	; 19
    c020:	70 e0       	ldi	r23, 0x00	; 0
    c022:	75 ca       	rjmp	.-2838   	; 0xb50e <main+0x15d8>

0000c024 <__prologue_saves__>:
__prologue_saves__():
/home/admin/build/toolchain-avr-special/gcc-build/avr/avrxmega2/libgcc/../../../../gcc/libgcc/config/avr/lib1funcs.S:2169
    c024:	2f 92       	push	r2
/home/admin/build/toolchain-avr-special/gcc-build/avr/avrxmega2/libgcc/../../../../gcc/libgcc/config/avr/lib1funcs.S:2170
    c026:	3f 92       	push	r3
/home/admin/build/toolchain-avr-special/gcc-build/avr/avrxmega2/libgcc/../../../../gcc/libgcc/config/avr/lib1funcs.S:2171
    c028:	4f 92       	push	r4
/home/admin/build/toolchain-avr-special/gcc-build/avr/avrxmega2/libgcc/../../../../gcc/libgcc/config/avr/lib1funcs.S:2172
    c02a:	5f 92       	push	r5
/home/admin/build/toolchain-avr-special/gcc-build/avr/avrxmega2/libgcc/../../../../gcc/libgcc/config/avr/lib1funcs.S:2173
    c02c:	6f 92       	push	r6
/home/admin/build/toolchain-avr-special/gcc-build/avr/avrxmega2/libgcc/../../../../gcc/libgcc/config/avr/lib1funcs.S:2174
    c02e:	7f 92       	push	r7
/home/admin/build/toolchain-avr-special/gcc-build/avr/avrxmega2/libgcc/../../../../gcc/libgcc/config/avr/lib1funcs.S:2175
    c030:	8f 92       	push	r8
/home/admin/build/toolchain-avr-special/gcc-build/avr/avrxmega2/libgcc/../../../../gcc/libgcc/config/avr/lib1funcs.S:2176
    c032:	9f 92       	push	r9
/home/admin/build/toolchain-avr-special/gcc-build/avr/avrxmega2/libgcc/../../../../gcc/libgcc/config/avr/lib1funcs.S:2177
    c034:	af 92       	push	r10
/home/admin/build/toolchain-avr-special/gcc-build/avr/avrxmega2/libgcc/../../../../gcc/libgcc/config/avr/lib1funcs.S:2178
    c036:	bf 92       	push	r11
/home/admin/build/toolchain-avr-special/gcc-build/avr/avrxmega2/libgcc/../../../../gcc/libgcc/config/avr/lib1funcs.S:2179
    c038:	cf 92       	push	r12
/home/admin/build/toolchain-avr-special/gcc-build/avr/avrxmega2/libgcc/../../../../gcc/libgcc/config/avr/lib1funcs.S:2180
    c03a:	df 92       	push	r13
/home/admin/build/toolchain-avr-special/gcc-build/avr/avrxmega2/libgcc/../../../../gcc/libgcc/config/avr/lib1funcs.S:2181
    c03c:	ef 92       	push	r14
/home/admin/build/toolchain-avr-special/gcc-build/avr/avrxmega2/libgcc/../../../../gcc/libgcc/config/avr/lib1funcs.S:2182
    c03e:	ff 92       	push	r15
/home/admin/build/toolchain-avr-special/gcc-build/avr/avrxmega2/libgcc/../../../../gcc/libgcc/config/avr/lib1funcs.S:2183
    c040:	0f 93       	push	r16
/home/admin/build/toolchain-avr-special/gcc-build/avr/avrxmega2/libgcc/../../../../gcc/libgcc/config/avr/lib1funcs.S:2184
    c042:	1f 93       	push	r17
/home/admin/build/toolchain-avr-special/gcc-build/avr/avrxmega2/libgcc/../../../../gcc/libgcc/config/avr/lib1funcs.S:2185
    c044:	cf 93       	push	r28
/home/admin/build/toolchain-avr-special/gcc-build/avr/avrxmega2/libgcc/../../../../gcc/libgcc/config/avr/lib1funcs.S:2186
    c046:	df 93       	push	r29
/home/admin/build/toolchain-avr-special/gcc-build/avr/avrxmega2/libgcc/../../../../gcc/libgcc/config/avr/lib1funcs.S:2193
    c048:	cd b7       	in	r28, 0x3d	; 61
/home/admin/build/toolchain-avr-special/gcc-build/avr/avrxmega2/libgcc/../../../../gcc/libgcc/config/avr/lib1funcs.S:2194
    c04a:	de b7       	in	r29, 0x3e	; 62
/home/admin/build/toolchain-avr-special/gcc-build/avr/avrxmega2/libgcc/../../../../gcc/libgcc/config/avr/lib1funcs.S:2195
    c04c:	ca 1b       	sub	r28, r26
/home/admin/build/toolchain-avr-special/gcc-build/avr/avrxmega2/libgcc/../../../../gcc/libgcc/config/avr/lib1funcs.S:2196
    c04e:	db 0b       	sbc	r29, r27
/home/admin/build/toolchain-avr-special/gcc-build/avr/avrxmega2/libgcc/../../../../gcc/libgcc/config/avr/lib1funcs.S:2197
    c050:	cd bf       	out	0x3d, r28	; 61
/home/admin/build/toolchain-avr-special/gcc-build/avr/avrxmega2/libgcc/../../../../gcc/libgcc/config/avr/lib1funcs.S:2198
    c052:	de bf       	out	0x3e, r29	; 62
/home/admin/build/toolchain-avr-special/gcc-build/avr/avrxmega2/libgcc/../../../../gcc/libgcc/config/avr/lib1funcs.S:2211
    c054:	09 94       	ijmp

0000c056 <__epilogue_restores__>:
__epilogue_restores__():
/home/admin/build/toolchain-avr-special/gcc-build/avr/avrxmega2/libgcc/../../../../gcc/libgcc/config/avr/lib1funcs.S:2222
    c056:	2a 88       	ldd	r2, Y+18	; 0x12
/home/admin/build/toolchain-avr-special/gcc-build/avr/avrxmega2/libgcc/../../../../gcc/libgcc/config/avr/lib1funcs.S:2223
    c058:	39 88       	ldd	r3, Y+17	; 0x11
/home/admin/build/toolchain-avr-special/gcc-build/avr/avrxmega2/libgcc/../../../../gcc/libgcc/config/avr/lib1funcs.S:2224
    c05a:	48 88       	ldd	r4, Y+16	; 0x10
/home/admin/build/toolchain-avr-special/gcc-build/avr/avrxmega2/libgcc/../../../../gcc/libgcc/config/avr/lib1funcs.S:2225
    c05c:	5f 84       	ldd	r5, Y+15	; 0x0f
/home/admin/build/toolchain-avr-special/gcc-build/avr/avrxmega2/libgcc/../../../../gcc/libgcc/config/avr/lib1funcs.S:2226
    c05e:	6e 84       	ldd	r6, Y+14	; 0x0e
/home/admin/build/toolchain-avr-special/gcc-build/avr/avrxmega2/libgcc/../../../../gcc/libgcc/config/avr/lib1funcs.S:2227
    c060:	7d 84       	ldd	r7, Y+13	; 0x0d
/home/admin/build/toolchain-avr-special/gcc-build/avr/avrxmega2/libgcc/../../../../gcc/libgcc/config/avr/lib1funcs.S:2228
    c062:	8c 84       	ldd	r8, Y+12	; 0x0c
/home/admin/build/toolchain-avr-special/gcc-build/avr/avrxmega2/libgcc/../../../../gcc/libgcc/config/avr/lib1funcs.S:2229
    c064:	9b 84       	ldd	r9, Y+11	; 0x0b
/home/admin/build/toolchain-avr-special/gcc-build/avr/avrxmega2/libgcc/../../../../gcc/libgcc/config/avr/lib1funcs.S:2230
    c066:	aa 84       	ldd	r10, Y+10	; 0x0a
/home/admin/build/toolchain-avr-special/gcc-build/avr/avrxmega2/libgcc/../../../../gcc/libgcc/config/avr/lib1funcs.S:2231
    c068:	b9 84       	ldd	r11, Y+9	; 0x09
/home/admin/build/toolchain-avr-special/gcc-build/avr/avrxmega2/libgcc/../../../../gcc/libgcc/config/avr/lib1funcs.S:2232
    c06a:	c8 84       	ldd	r12, Y+8	; 0x08
/home/admin/build/toolchain-avr-special/gcc-build/avr/avrxmega2/libgcc/../../../../gcc/libgcc/config/avr/lib1funcs.S:2233
    c06c:	df 80       	ldd	r13, Y+7	; 0x07
/home/admin/build/toolchain-avr-special/gcc-build/avr/avrxmega2/libgcc/../../../../gcc/libgcc/config/avr/lib1funcs.S:2234
    c06e:	ee 80       	ldd	r14, Y+6	; 0x06
/home/admin/build/toolchain-avr-special/gcc-build/avr/avrxmega2/libgcc/../../../../gcc/libgcc/config/avr/lib1funcs.S:2235
    c070:	fd 80       	ldd	r15, Y+5	; 0x05
/home/admin/build/toolchain-avr-special/gcc-build/avr/avrxmega2/libgcc/../../../../gcc/libgcc/config/avr/lib1funcs.S:2236
    c072:	0c 81       	ldd	r16, Y+4	; 0x04
/home/admin/build/toolchain-avr-special/gcc-build/avr/avrxmega2/libgcc/../../../../gcc/libgcc/config/avr/lib1funcs.S:2237
    c074:	1b 81       	ldd	r17, Y+3	; 0x03
/home/admin/build/toolchain-avr-special/gcc-build/avr/avrxmega2/libgcc/../../../../gcc/libgcc/config/avr/lib1funcs.S:2238
    c076:	aa 81       	ldd	r26, Y+2	; 0x02
/home/admin/build/toolchain-avr-special/gcc-build/avr/avrxmega2/libgcc/../../../../gcc/libgcc/config/avr/lib1funcs.S:2245
    c078:	b9 81       	ldd	r27, Y+1	; 0x01
/home/admin/build/toolchain-avr-special/gcc-build/avr/avrxmega2/libgcc/../../../../gcc/libgcc/config/avr/lib1funcs.S:2246
    c07a:	ce 0f       	add	r28, r30
/home/admin/build/toolchain-avr-special/gcc-build/avr/avrxmega2/libgcc/../../../../gcc/libgcc/config/avr/lib1funcs.S:2247
    c07c:	d1 1d       	adc	r29, r1
/home/admin/build/toolchain-avr-special/gcc-build/avr/avrxmega2/libgcc/../../../../gcc/libgcc/config/avr/lib1funcs.S:2248
    c07e:	cd bf       	out	0x3d, r28	; 61
/home/admin/build/toolchain-avr-special/gcc-build/avr/avrxmega2/libgcc/../../../../gcc/libgcc/config/avr/lib1funcs.S:2249
    c080:	de bf       	out	0x3e, r29	; 62
/home/admin/build/toolchain-avr-special/gcc-build/avr/avrxmega2/libgcc/../../../../gcc/libgcc/config/avr/lib1funcs.S:2250
    c082:	ed 01       	movw	r28, r26
/home/admin/build/toolchain-avr-special/gcc-build/avr/avrxmega2/libgcc/../../../../gcc/libgcc/config/avr/lib1funcs.S:2263
    c084:	08 95       	ret

0000c086 <dtostrf>:
dtostrf():
    c086:	ef 92       	push	r14
    c088:	0f 93       	push	r16
    c08a:	1f 93       	push	r17
    c08c:	cf 93       	push	r28
    c08e:	df 93       	push	r29
    c090:	e8 01       	movw	r28, r16
    c092:	34 e0       	ldi	r19, 0x04	; 4
    c094:	47 fd       	sbrc	r20, 7
    c096:	34 e1       	ldi	r19, 0x14	; 20
    c098:	04 2e       	mov	r0, r20
    c09a:	00 0c       	add	r0, r0
    c09c:	55 0b       	sbc	r21, r21
    c09e:	57 ff       	sbrs	r21, 7
    c0a0:	03 c0       	rjmp	.+6      	; 0xc0a8 <dtostrf+0x22>
    c0a2:	51 95       	neg	r21
    c0a4:	41 95       	neg	r20
    c0a6:	51 09       	sbc	r21, r1
    c0a8:	e3 2e       	mov	r14, r19
    c0aa:	02 2f       	mov	r16, r18
    c0ac:	24 2f       	mov	r18, r20
    c0ae:	ae 01       	movw	r20, r28
    c0b0:	e9 d0       	rcall	.+466    	; 0xc284 <dtoa_prf>
    c0b2:	ce 01       	movw	r24, r28
    c0b4:	df 91       	pop	r29
    c0b6:	cf 91       	pop	r28
    c0b8:	1f 91       	pop	r17
    c0ba:	0f 91       	pop	r16
    c0bc:	ef 90       	pop	r14
    c0be:	08 95       	ret

0000c0c0 <atof>:
atof():
    c0c0:	66 27       	eor	r22, r22
    c0c2:	77 27       	eor	r23, r23
    c0c4:	3b c2       	rjmp	.+1142   	; 0xc53c <strtod>

0000c0c6 <atoi>:
atoi():
    c0c6:	fc 01       	movw	r30, r24
    c0c8:	88 27       	eor	r24, r24
    c0ca:	99 27       	eor	r25, r25
    c0cc:	e8 94       	clt
    c0ce:	21 91       	ld	r18, Z+
    c0d0:	20 32       	cpi	r18, 0x20	; 32
    c0d2:	e9 f3       	breq	.-6      	; 0xc0ce <atoi+0x8>
    c0d4:	29 30       	cpi	r18, 0x09	; 9
    c0d6:	10 f0       	brcs	.+4      	; 0xc0dc <atoi+0x16>
    c0d8:	2e 30       	cpi	r18, 0x0E	; 14
    c0da:	c8 f3       	brcs	.-14     	; 0xc0ce <atoi+0x8>
    c0dc:	2b 32       	cpi	r18, 0x2B	; 43
    c0de:	39 f0       	breq	.+14     	; 0xc0ee <atoi+0x28>
    c0e0:	2d 32       	cpi	r18, 0x2D	; 45
    c0e2:	31 f4       	brne	.+12     	; 0xc0f0 <atoi+0x2a>
    c0e4:	68 94       	set
    c0e6:	03 c0       	rjmp	.+6      	; 0xc0ee <atoi+0x28>
    c0e8:	37 d0       	rcall	.+110    	; 0xc158 <__mulhi_const_10>
    c0ea:	82 0f       	add	r24, r18
    c0ec:	91 1d       	adc	r25, r1
    c0ee:	21 91       	ld	r18, Z+
    c0f0:	20 53       	subi	r18, 0x30	; 48
    c0f2:	2a 30       	cpi	r18, 0x0A	; 10
    c0f4:	c8 f3       	brcs	.-14     	; 0xc0e8 <atoi+0x22>
    c0f6:	1e f4       	brtc	.+6      	; 0xc0fe <atoi+0x38>
    c0f8:	90 95       	com	r25
    c0fa:	81 95       	neg	r24
    c0fc:	9f 4f       	sbci	r25, 0xFF	; 255
    c0fe:	08 95       	ret

0000c100 <strcasecmp_P>:
strcasecmp_P():
    c100:	fb 01       	movw	r30, r22
    c102:	dc 01       	movw	r26, r24
    c104:	8d 91       	ld	r24, X+
    c106:	81 34       	cpi	r24, 0x41	; 65
    c108:	1c f0       	brlt	.+6      	; 0xc110 <strcasecmp_P+0x10>
    c10a:	8b 35       	cpi	r24, 0x5B	; 91
    c10c:	0c f4       	brge	.+2      	; 0xc110 <strcasecmp_P+0x10>
    c10e:	80 5e       	subi	r24, 0xE0	; 224
    c110:	65 91       	lpm	r22, Z+
    c112:	61 34       	cpi	r22, 0x41	; 65
    c114:	1c f0       	brlt	.+6      	; 0xc11c <strcasecmp_P+0x1c>
    c116:	6b 35       	cpi	r22, 0x5B	; 91
    c118:	0c f4       	brge	.+2      	; 0xc11c <strcasecmp_P+0x1c>
    c11a:	60 5e       	subi	r22, 0xE0	; 224
    c11c:	86 1b       	sub	r24, r22
    c11e:	61 11       	cpse	r22, r1
    c120:	89 f3       	breq	.-30     	; 0xc104 <strcasecmp_P+0x4>
    c122:	99 0b       	sbc	r25, r25
    c124:	08 95       	ret

0000c126 <strchr_P>:
strchr_P():
    c126:	fc 01       	movw	r30, r24
    c128:	05 90       	lpm	r0, Z+
    c12a:	06 16       	cp	r0, r22
    c12c:	21 f0       	breq	.+8      	; 0xc136 <strchr_P+0x10>
    c12e:	00 20       	and	r0, r0
    c130:	d9 f7       	brne	.-10     	; 0xc128 <strchr_P+0x2>
    c132:	c0 01       	movw	r24, r0
    c134:	08 95       	ret
    c136:	31 97       	sbiw	r30, 0x01	; 1
    c138:	cf 01       	movw	r24, r30
    c13a:	08 95       	ret

0000c13c <strncmp_P>:
strncmp_P():
    c13c:	fb 01       	movw	r30, r22
    c13e:	dc 01       	movw	r26, r24
    c140:	41 50       	subi	r20, 0x01	; 1
    c142:	50 40       	sbci	r21, 0x00	; 0
    c144:	30 f0       	brcs	.+12     	; 0xc152 <strncmp_P+0x16>
    c146:	8d 91       	ld	r24, X+
    c148:	05 90       	lpm	r0, Z+
    c14a:	80 19       	sub	r24, r0
    c14c:	19 f4       	brne	.+6      	; 0xc154 <strncmp_P+0x18>
    c14e:	00 20       	and	r0, r0
    c150:	b9 f7       	brne	.-18     	; 0xc140 <strncmp_P+0x4>
    c152:	88 1b       	sub	r24, r24
    c154:	99 0b       	sbc	r25, r25
    c156:	08 95       	ret

0000c158 <__mulhi_const_10>:
__mulhi_const_10():
    c158:	7a e0       	ldi	r23, 0x0A	; 10
    c15a:	97 9f       	mul	r25, r23
    c15c:	90 2d       	mov	r25, r0
    c15e:	87 9f       	mul	r24, r23
    c160:	80 2d       	mov	r24, r0
    c162:	91 0d       	add	r25, r1
    c164:	11 24       	eor	r1, r1
    c166:	08 95       	ret

0000c168 <fputc>:
fputc():
    c168:	0f 93       	push	r16
    c16a:	1f 93       	push	r17
    c16c:	cf 93       	push	r28
    c16e:	df 93       	push	r29
    c170:	18 2f       	mov	r17, r24
    c172:	09 2f       	mov	r16, r25
    c174:	eb 01       	movw	r28, r22
    c176:	8b 81       	ldd	r24, Y+3	; 0x03
    c178:	81 fd       	sbrc	r24, 1
    c17a:	09 c0       	rjmp	.+18     	; 0xc18e <fputc+0x26>
    c17c:	1f ef       	ldi	r17, 0xFF	; 255
    c17e:	0f ef       	ldi	r16, 0xFF	; 255
    c180:	81 2f       	mov	r24, r17
    c182:	90 2f       	mov	r25, r16
    c184:	df 91       	pop	r29
    c186:	cf 91       	pop	r28
    c188:	1f 91       	pop	r17
    c18a:	0f 91       	pop	r16
    c18c:	08 95       	ret
    c18e:	82 ff       	sbrs	r24, 2
    c190:	14 c0       	rjmp	.+40     	; 0xc1ba <fputc+0x52>
    c192:	2e 81       	ldd	r18, Y+6	; 0x06
    c194:	3f 81       	ldd	r19, Y+7	; 0x07
    c196:	8c 81       	ldd	r24, Y+4	; 0x04
    c198:	9d 81       	ldd	r25, Y+5	; 0x05
    c19a:	28 17       	cp	r18, r24
    c19c:	39 07       	cpc	r19, r25
    c19e:	3c f4       	brge	.+14     	; 0xc1ae <fputc+0x46>
    c1a0:	e8 81       	ld	r30, Y
    c1a2:	f9 81       	ldd	r31, Y+1	; 0x01
    c1a4:	cf 01       	movw	r24, r30
    c1a6:	01 96       	adiw	r24, 0x01	; 1
    c1a8:	88 83       	st	Y, r24
    c1aa:	99 83       	std	Y+1, r25	; 0x01
    c1ac:	10 83       	st	Z, r17
    c1ae:	8e 81       	ldd	r24, Y+6	; 0x06
    c1b0:	9f 81       	ldd	r25, Y+7	; 0x07
    c1b2:	01 96       	adiw	r24, 0x01	; 1
    c1b4:	8e 83       	std	Y+6, r24	; 0x06
    c1b6:	9f 83       	std	Y+7, r25	; 0x07
    c1b8:	e3 cf       	rjmp	.-58     	; 0xc180 <fputc+0x18>
    c1ba:	e8 85       	ldd	r30, Y+8	; 0x08
    c1bc:	f9 85       	ldd	r31, Y+9	; 0x09
    c1be:	81 2f       	mov	r24, r17
    c1c0:	09 95       	icall
    c1c2:	89 2b       	or	r24, r25
    c1c4:	a1 f3       	breq	.-24     	; 0xc1ae <fputc+0x46>
    c1c6:	da cf       	rjmp	.-76     	; 0xc17c <fputc+0x14>

0000c1c8 <__ultoa_invert>:
__ultoa_invert():
    c1c8:	fa 01       	movw	r30, r20
    c1ca:	aa 27       	eor	r26, r26
    c1cc:	28 30       	cpi	r18, 0x08	; 8
    c1ce:	51 f1       	breq	.+84     	; 0xc224 <__ultoa_invert+0x5c>
    c1d0:	20 31       	cpi	r18, 0x10	; 16
    c1d2:	81 f1       	breq	.+96     	; 0xc234 <__ultoa_invert+0x6c>
    c1d4:	e8 94       	clt
    c1d6:	6f 93       	push	r22
    c1d8:	6e 7f       	andi	r22, 0xFE	; 254
    c1da:	6e 5f       	subi	r22, 0xFE	; 254
    c1dc:	7f 4f       	sbci	r23, 0xFF	; 255
    c1de:	8f 4f       	sbci	r24, 0xFF	; 255
    c1e0:	9f 4f       	sbci	r25, 0xFF	; 255
    c1e2:	af 4f       	sbci	r26, 0xFF	; 255
    c1e4:	b1 e0       	ldi	r27, 0x01	; 1
    c1e6:	3e d0       	rcall	.+124    	; 0xc264 <__ultoa_invert+0x9c>
    c1e8:	b4 e0       	ldi	r27, 0x04	; 4
    c1ea:	3c d0       	rcall	.+120    	; 0xc264 <__ultoa_invert+0x9c>
    c1ec:	67 0f       	add	r22, r23
    c1ee:	78 1f       	adc	r23, r24
    c1f0:	89 1f       	adc	r24, r25
    c1f2:	9a 1f       	adc	r25, r26
    c1f4:	a1 1d       	adc	r26, r1
    c1f6:	68 0f       	add	r22, r24
    c1f8:	79 1f       	adc	r23, r25
    c1fa:	8a 1f       	adc	r24, r26
    c1fc:	91 1d       	adc	r25, r1
    c1fe:	a1 1d       	adc	r26, r1
    c200:	6a 0f       	add	r22, r26
    c202:	71 1d       	adc	r23, r1
    c204:	81 1d       	adc	r24, r1
    c206:	91 1d       	adc	r25, r1
    c208:	a1 1d       	adc	r26, r1
    c20a:	20 d0       	rcall	.+64     	; 0xc24c <__ultoa_invert+0x84>
    c20c:	09 f4       	brne	.+2      	; 0xc210 <__ultoa_invert+0x48>
    c20e:	68 94       	set
    c210:	3f 91       	pop	r19
    c212:	2a e0       	ldi	r18, 0x0A	; 10
    c214:	26 9f       	mul	r18, r22
    c216:	11 24       	eor	r1, r1
    c218:	30 19       	sub	r19, r0
    c21a:	30 5d       	subi	r19, 0xD0	; 208
    c21c:	31 93       	st	Z+, r19
    c21e:	de f6       	brtc	.-74     	; 0xc1d6 <__ultoa_invert+0xe>
    c220:	cf 01       	movw	r24, r30
    c222:	08 95       	ret
    c224:	46 2f       	mov	r20, r22
    c226:	47 70       	andi	r20, 0x07	; 7
    c228:	40 5d       	subi	r20, 0xD0	; 208
    c22a:	41 93       	st	Z+, r20
    c22c:	b3 e0       	ldi	r27, 0x03	; 3
    c22e:	0f d0       	rcall	.+30     	; 0xc24e <__ultoa_invert+0x86>
    c230:	c9 f7       	brne	.-14     	; 0xc224 <__ultoa_invert+0x5c>
    c232:	f6 cf       	rjmp	.-20     	; 0xc220 <__ultoa_invert+0x58>
    c234:	46 2f       	mov	r20, r22
    c236:	4f 70       	andi	r20, 0x0F	; 15
    c238:	40 5d       	subi	r20, 0xD0	; 208
    c23a:	4a 33       	cpi	r20, 0x3A	; 58
    c23c:	18 f0       	brcs	.+6      	; 0xc244 <__ultoa_invert+0x7c>
    c23e:	49 5d       	subi	r20, 0xD9	; 217
    c240:	31 fd       	sbrc	r19, 1
    c242:	40 52       	subi	r20, 0x20	; 32
    c244:	41 93       	st	Z+, r20
    c246:	02 d0       	rcall	.+4      	; 0xc24c <__ultoa_invert+0x84>
    c248:	a9 f7       	brne	.-22     	; 0xc234 <__ultoa_invert+0x6c>
    c24a:	ea cf       	rjmp	.-44     	; 0xc220 <__ultoa_invert+0x58>
    c24c:	b4 e0       	ldi	r27, 0x04	; 4
    c24e:	a6 95       	lsr	r26
    c250:	97 95       	ror	r25
    c252:	87 95       	ror	r24
    c254:	77 95       	ror	r23
    c256:	67 95       	ror	r22
    c258:	ba 95       	dec	r27
    c25a:	c9 f7       	brne	.-14     	; 0xc24e <__ultoa_invert+0x86>
    c25c:	00 97       	sbiw	r24, 0x00	; 0
    c25e:	61 05       	cpc	r22, r1
    c260:	71 05       	cpc	r23, r1
    c262:	08 95       	ret
    c264:	9b 01       	movw	r18, r22
    c266:	ac 01       	movw	r20, r24
    c268:	0a 2e       	mov	r0, r26
    c26a:	06 94       	lsr	r0
    c26c:	57 95       	ror	r21
    c26e:	47 95       	ror	r20
    c270:	37 95       	ror	r19
    c272:	27 95       	ror	r18
    c274:	ba 95       	dec	r27
    c276:	c9 f7       	brne	.-14     	; 0xc26a <__ultoa_invert+0xa2>
    c278:	62 0f       	add	r22, r18
    c27a:	73 1f       	adc	r23, r19
    c27c:	84 1f       	adc	r24, r20
    c27e:	95 1f       	adc	r25, r21
    c280:	a0 1d       	adc	r26, r0
    c282:	08 95       	ret

0000c284 <dtoa_prf>:
dtoa_prf():
    c284:	a9 e0       	ldi	r26, 0x09	; 9
    c286:	b0 e0       	ldi	r27, 0x00	; 0
    c288:	e7 e4       	ldi	r30, 0x47	; 71
    c28a:	f1 e6       	ldi	r31, 0x61	; 97
    c28c:	d1 ce       	rjmp	.-606    	; 0xc030 <__prologue_saves__+0xc>
    c28e:	6a 01       	movw	r12, r20
    c290:	f2 2e       	mov	r15, r18
    c292:	b0 2e       	mov	r11, r16
    c294:	10 2f       	mov	r17, r16
    c296:	fb e3       	ldi	r31, 0x3B	; 59
    c298:	af 2e       	mov	r10, r31
    c29a:	a0 16       	cp	r10, r16
    c29c:	08 f4       	brcc	.+2      	; 0xc2a0 <dtoa_prf+0x1c>
    c29e:	1b e3       	ldi	r17, 0x3B	; 59
    c2a0:	1f 5f       	subi	r17, 0xFF	; 255
    c2a2:	01 2f       	mov	r16, r17
    c2a4:	27 e0       	ldi	r18, 0x07	; 7
    c2a6:	ae 01       	movw	r20, r28
    c2a8:	4f 5f       	subi	r20, 0xFF	; 255
    c2aa:	5f 4f       	sbci	r21, 0xFF	; 255
    c2ac:	8c d2       	rcall	.+1304   	; 0xc7c6 <__ftoa_engine>
    c2ae:	bc 01       	movw	r22, r24
    c2b0:	89 81       	ldd	r24, Y+1	; 0x01
    c2b2:	98 2f       	mov	r25, r24
    c2b4:	99 70       	andi	r25, 0x09	; 9
    c2b6:	91 30       	cpi	r25, 0x01	; 1
    c2b8:	09 f4       	brne	.+2      	; 0xc2bc <dtoa_prf+0x38>
    c2ba:	3e c0       	rjmp	.+124    	; 0xc338 <dtoa_prf+0xb4>
    c2bc:	9b e2       	ldi	r25, 0x2B	; 43
    c2be:	e1 fc       	sbrc	r14, 1
    c2c0:	04 c0       	rjmp	.+8      	; 0xc2ca <dtoa_prf+0x46>
    c2c2:	9e 2d       	mov	r25, r14
    c2c4:	91 70       	andi	r25, 0x01	; 1
    c2c6:	e0 fc       	sbrc	r14, 0
    c2c8:	39 c0       	rjmp	.+114    	; 0xc33c <dtoa_prf+0xb8>
    c2ca:	5e 2d       	mov	r21, r14
    c2cc:	50 71       	andi	r21, 0x10	; 16
    c2ce:	e8 2f       	mov	r30, r24
    c2d0:	e8 70       	andi	r30, 0x08	; 8
    c2d2:	83 ff       	sbrs	r24, 3
    c2d4:	45 c0       	rjmp	.+138    	; 0xc360 <dtoa_prf+0xdc>
    c2d6:	84 e0       	ldi	r24, 0x04	; 4
    c2d8:	91 11       	cpse	r25, r1
    c2da:	01 c0       	rjmp	.+2      	; 0xc2de <dtoa_prf+0x5a>
    c2dc:	83 e0       	ldi	r24, 0x03	; 3
    c2de:	ef 2d       	mov	r30, r15
    c2e0:	e8 1b       	sub	r30, r24
    c2e2:	8f 15       	cp	r24, r15
    c2e4:	08 f0       	brcs	.+2      	; 0xc2e8 <dtoa_prf+0x64>
    c2e6:	e0 e0       	ldi	r30, 0x00	; 0
    c2e8:	d6 01       	movw	r26, r12
    c2ea:	8e 2f       	mov	r24, r30
    c2ec:	20 e2       	ldi	r18, 0x20	; 32
    c2ee:	55 23       	and	r21, r21
    c2f0:	49 f1       	breq	.+82     	; 0xc344 <dtoa_prf+0xc0>
    c2f2:	99 23       	and	r25, r25
    c2f4:	29 f0       	breq	.+10     	; 0xc300 <dtoa_prf+0x7c>
    c2f6:	d6 01       	movw	r26, r12
    c2f8:	9c 93       	st	X, r25
    c2fa:	c6 01       	movw	r24, r12
    c2fc:	01 96       	adiw	r24, 0x01	; 1
    c2fe:	6c 01       	movw	r12, r24
    c300:	96 01       	movw	r18, r12
    c302:	2d 5f       	subi	r18, 0xFD	; 253
    c304:	3f 4f       	sbci	r19, 0xFF	; 255
    c306:	e2 fe       	sbrs	r14, 2
    c308:	23 c0       	rjmp	.+70     	; 0xc350 <dtoa_prf+0xcc>
    c30a:	8e e4       	ldi	r24, 0x4E	; 78
    c30c:	d6 01       	movw	r26, r12
    c30e:	8c 93       	st	X, r24
    c310:	91 e4       	ldi	r25, 0x41	; 65
    c312:	11 96       	adiw	r26, 0x01	; 1
    c314:	9c 93       	st	X, r25
    c316:	11 97       	sbiw	r26, 0x01	; 1
    c318:	12 96       	adiw	r26, 0x02	; 2
    c31a:	8c 93       	st	X, r24
    c31c:	d9 01       	movw	r26, r18
    c31e:	8e 2f       	mov	r24, r30
    c320:	90 e2       	ldi	r25, 0x20	; 32
    c322:	81 11       	cpse	r24, r1
    c324:	1a c0       	rjmp	.+52     	; 0xc35a <dtoa_prf+0xd6>
    c326:	e2 0f       	add	r30, r18
    c328:	f3 2f       	mov	r31, r19
    c32a:	f1 1d       	adc	r31, r1
    c32c:	10 82       	st	Z, r1
    c32e:	8e ef       	ldi	r24, 0xFE	; 254
    c330:	9f ef       	ldi	r25, 0xFF	; 255
    c332:	29 96       	adiw	r28, 0x09	; 9
    c334:	ec e0       	ldi	r30, 0x0C	; 12
    c336:	95 ce       	rjmp	.-726    	; 0xc062 <__epilogue_restores__+0xc>
    c338:	9d e2       	ldi	r25, 0x2D	; 45
    c33a:	c7 cf       	rjmp	.-114    	; 0xc2ca <dtoa_prf+0x46>
    c33c:	90 e2       	ldi	r25, 0x20	; 32
    c33e:	c5 cf       	rjmp	.-118    	; 0xc2ca <dtoa_prf+0x46>
    c340:	2d 93       	st	X+, r18
    c342:	81 50       	subi	r24, 0x01	; 1
    c344:	81 11       	cpse	r24, r1
    c346:	fc cf       	rjmp	.-8      	; 0xc340 <dtoa_prf+0xbc>
    c348:	ce 0e       	add	r12, r30
    c34a:	d1 1c       	adc	r13, r1
    c34c:	e0 e0       	ldi	r30, 0x00	; 0
    c34e:	d1 cf       	rjmp	.-94     	; 0xc2f2 <dtoa_prf+0x6e>
    c350:	8e e6       	ldi	r24, 0x6E	; 110
    c352:	d6 01       	movw	r26, r12
    c354:	8c 93       	st	X, r24
    c356:	91 e6       	ldi	r25, 0x61	; 97
    c358:	dc cf       	rjmp	.-72     	; 0xc312 <dtoa_prf+0x8e>
    c35a:	9d 93       	st	X+, r25
    c35c:	81 50       	subi	r24, 0x01	; 1
    c35e:	e1 cf       	rjmp	.-62     	; 0xc322 <dtoa_prf+0x9e>
    c360:	48 2f       	mov	r20, r24
    c362:	44 70       	andi	r20, 0x04	; 4
    c364:	82 ff       	sbrs	r24, 2
    c366:	3d c0       	rjmp	.+122    	; 0xc3e2 <dtoa_prf+0x15e>
    c368:	84 e0       	ldi	r24, 0x04	; 4
    c36a:	91 11       	cpse	r25, r1
    c36c:	01 c0       	rjmp	.+2      	; 0xc370 <dtoa_prf+0xec>
    c36e:	83 e0       	ldi	r24, 0x03	; 3
    c370:	8f 15       	cp	r24, r15
    c372:	10 f4       	brcc	.+4      	; 0xc378 <dtoa_prf+0xf4>
    c374:	ef 2d       	mov	r30, r15
    c376:	e8 1b       	sub	r30, r24
    c378:	d6 01       	movw	r26, r12
    c37a:	8e 2f       	mov	r24, r30
    c37c:	20 e2       	ldi	r18, 0x20	; 32
    c37e:	55 23       	and	r21, r21
    c380:	09 f1       	breq	.+66     	; 0xc3c4 <dtoa_prf+0x140>
    c382:	99 23       	and	r25, r25
    c384:	29 f0       	breq	.+10     	; 0xc390 <dtoa_prf+0x10c>
    c386:	d6 01       	movw	r26, r12
    c388:	9c 93       	st	X, r25
    c38a:	c6 01       	movw	r24, r12
    c38c:	01 96       	adiw	r24, 0x01	; 1
    c38e:	6c 01       	movw	r12, r24
    c390:	96 01       	movw	r18, r12
    c392:	2d 5f       	subi	r18, 0xFD	; 253
    c394:	3f 4f       	sbci	r19, 0xFF	; 255
    c396:	e2 fe       	sbrs	r14, 2
    c398:	1b c0       	rjmp	.+54     	; 0xc3d0 <dtoa_prf+0x14c>
    c39a:	89 e4       	ldi	r24, 0x49	; 73
    c39c:	d6 01       	movw	r26, r12
    c39e:	8c 93       	st	X, r24
    c3a0:	8e e4       	ldi	r24, 0x4E	; 78
    c3a2:	11 96       	adiw	r26, 0x01	; 1
    c3a4:	8c 93       	st	X, r24
    c3a6:	11 97       	sbiw	r26, 0x01	; 1
    c3a8:	86 e4       	ldi	r24, 0x46	; 70
    c3aa:	12 96       	adiw	r26, 0x02	; 2
    c3ac:	8c 93       	st	X, r24
    c3ae:	d9 01       	movw	r26, r18
    c3b0:	8e 2f       	mov	r24, r30
    c3b2:	90 e2       	ldi	r25, 0x20	; 32
    c3b4:	88 23       	and	r24, r24
    c3b6:	09 f4       	brne	.+2      	; 0xc3ba <dtoa_prf+0x136>
    c3b8:	b6 cf       	rjmp	.-148    	; 0xc326 <dtoa_prf+0xa2>
    c3ba:	9d 93       	st	X+, r25
    c3bc:	81 50       	subi	r24, 0x01	; 1
    c3be:	fa cf       	rjmp	.-12     	; 0xc3b4 <dtoa_prf+0x130>
    c3c0:	2d 93       	st	X+, r18
    c3c2:	81 50       	subi	r24, 0x01	; 1
    c3c4:	81 11       	cpse	r24, r1
    c3c6:	fc cf       	rjmp	.-8      	; 0xc3c0 <dtoa_prf+0x13c>
    c3c8:	ce 0e       	add	r12, r30
    c3ca:	d1 1c       	adc	r13, r1
    c3cc:	e0 e0       	ldi	r30, 0x00	; 0
    c3ce:	d9 cf       	rjmp	.-78     	; 0xc382 <dtoa_prf+0xfe>
    c3d0:	89 e6       	ldi	r24, 0x69	; 105
    c3d2:	d6 01       	movw	r26, r12
    c3d4:	8c 93       	st	X, r24
    c3d6:	8e e6       	ldi	r24, 0x6E	; 110
    c3d8:	11 96       	adiw	r26, 0x01	; 1
    c3da:	8c 93       	st	X, r24
    c3dc:	11 97       	sbiw	r26, 0x01	; 1
    c3de:	86 e6       	ldi	r24, 0x66	; 102
    c3e0:	e4 cf       	rjmp	.-56     	; 0xc3aa <dtoa_prf+0x126>
    c3e2:	9b 01       	movw	r18, r22
    c3e4:	77 ff       	sbrs	r23, 7
    c3e6:	02 c0       	rjmp	.+4      	; 0xc3ec <dtoa_prf+0x168>
    c3e8:	30 e0       	ldi	r19, 0x00	; 0
    c3ea:	20 e0       	ldi	r18, 0x00	; 0
    c3ec:	a1 e0       	ldi	r26, 0x01	; 1
    c3ee:	b0 e0       	ldi	r27, 0x00	; 0
    c3f0:	91 11       	cpse	r25, r1
    c3f2:	02 c0       	rjmp	.+4      	; 0xc3f8 <dtoa_prf+0x174>
    c3f4:	b0 e0       	ldi	r27, 0x00	; 0
    c3f6:	a0 e0       	ldi	r26, 0x00	; 0
    c3f8:	f9 01       	movw	r30, r18
    c3fa:	31 96       	adiw	r30, 0x01	; 1
    c3fc:	ae 0f       	add	r26, r30
    c3fe:	bf 1f       	adc	r27, r31
    c400:	8b 2c       	mov	r8, r11
    c402:	91 2c       	mov	r9, r1
    c404:	bb 20       	and	r11, r11
    c406:	09 f4       	brne	.+2      	; 0xc40a <dtoa_prf+0x186>
    c408:	61 c0       	rjmp	.+194    	; 0xc4cc <dtoa_prf+0x248>
    c40a:	54 01       	movw	r10, r8
    c40c:	ef ef       	ldi	r30, 0xFF	; 255
    c40e:	ae 1a       	sub	r10, r30
    c410:	be 0a       	sbc	r11, r30
    c412:	aa 0d       	add	r26, r10
    c414:	bb 1d       	adc	r27, r11
    c416:	fa 16       	cp	r15, r26
    c418:	1b 06       	cpc	r1, r27
    c41a:	19 f0       	breq	.+6      	; 0xc422 <dtoa_prf+0x19e>
    c41c:	14 f0       	brlt	.+4      	; 0xc422 <dtoa_prf+0x19e>
    c41e:	4f 2d       	mov	r20, r15
    c420:	4a 1b       	sub	r20, r26
    c422:	51 11       	cpse	r21, r1
    c424:	88 c0       	rjmp	.+272    	; 0xc536 <dtoa_prf+0x2b2>
    c426:	e3 fc       	sbrc	r14, 3
    c428:	59 c0       	rjmp	.+178    	; 0xc4dc <dtoa_prf+0x258>
    c42a:	76 01       	movw	r14, r12
    c42c:	a4 2f       	mov	r26, r20
    c42e:	b0 e2       	ldi	r27, 0x20	; 32
    c430:	a1 11       	cpse	r26, r1
    c432:	4f c0       	rjmp	.+158    	; 0xc4d2 <dtoa_prf+0x24e>
    c434:	c4 0e       	add	r12, r20
    c436:	d1 1c       	adc	r13, r1
    c438:	99 23       	and	r25, r25
    c43a:	09 f4       	brne	.+2      	; 0xc43e <dtoa_prf+0x1ba>
    c43c:	5b c0       	rjmp	.+182    	; 0xc4f4 <dtoa_prf+0x270>
    c43e:	40 e0       	ldi	r20, 0x00	; 0
    c440:	d6 01       	movw	r26, r12
    c442:	11 96       	adiw	r26, 0x01	; 1
    c444:	f6 01       	movw	r30, r12
    c446:	90 83       	st	Z, r25
    c448:	6d 01       	movw	r12, r26
    c44a:	55 23       	and	r21, r21
    c44c:	09 f4       	brne	.+2      	; 0xc450 <dtoa_prf+0x1cc>
    c44e:	48 c0       	rjmp	.+144    	; 0xc4e0 <dtoa_prf+0x25c>
    c450:	01 2f       	mov	r16, r17
    c452:	06 0f       	add	r16, r22
    c454:	9a 81       	ldd	r25, Y+2	; 0x02
    c456:	58 2f       	mov	r21, r24
    c458:	50 71       	andi	r21, 0x10	; 16
    c45a:	84 ff       	sbrs	r24, 4
    c45c:	03 c0       	rjmp	.+6      	; 0xc464 <dtoa_prf+0x1e0>
    c45e:	91 33       	cpi	r25, 0x31	; 49
    c460:	09 f4       	brne	.+2      	; 0xc464 <dtoa_prf+0x1e0>
    c462:	01 50       	subi	r16, 0x01	; 1
    c464:	10 16       	cp	r1, r16
    c466:	0c f0       	brlt	.+2      	; 0xc46a <dtoa_prf+0x1e6>
    c468:	47 c0       	rjmp	.+142    	; 0xc4f8 <dtoa_prf+0x274>
    c46a:	09 30       	cpi	r16, 0x09	; 9
    c46c:	08 f0       	brcs	.+2      	; 0xc470 <dtoa_prf+0x1ec>
    c46e:	08 e0       	ldi	r16, 0x08	; 8
    c470:	ee e2       	ldi	r30, 0x2E	; 46
    c472:	fe 2e       	mov	r15, r30
    c474:	5b 01       	movw	r10, r22
    c476:	a0 1a       	sub	r10, r16
    c478:	b1 08       	sbc	r11, r1
    c47a:	85 01       	movw	r16, r10
    c47c:	91 94       	neg	r9
    c47e:	81 94       	neg	r8
    c480:	91 08       	sbc	r9, r1
    c482:	2f 3f       	cpi	r18, 0xFF	; 255
    c484:	32 07       	cpc	r19, r18
    c486:	29 f4       	brne	.+10     	; 0xc492 <dtoa_prf+0x20e>
    c488:	d6 01       	movw	r26, r12
    c48a:	fc 92       	st	X, r15
    c48c:	f6 01       	movw	r30, r12
    c48e:	31 96       	adiw	r30, 0x01	; 1
    c490:	6f 01       	movw	r12, r30
    c492:	62 17       	cp	r22, r18
    c494:	73 07       	cpc	r23, r19
    c496:	94 f1       	brlt	.+100    	; 0xc4fc <dtoa_prf+0x278>
    c498:	02 17       	cp	r16, r18
    c49a:	13 07       	cpc	r17, r19
    c49c:	7c f5       	brge	.+94     	; 0xc4fc <dtoa_prf+0x278>
    c49e:	db 01       	movw	r26, r22
    c4a0:	a2 1b       	sub	r26, r18
    c4a2:	b3 0b       	sbc	r27, r19
    c4a4:	aa 24       	eor	r10, r10
    c4a6:	a3 94       	inc	r10
    c4a8:	b1 2c       	mov	r11, r1
    c4aa:	ac 0e       	add	r10, r28
    c4ac:	bd 1e       	adc	r11, r29
    c4ae:	aa 0d       	add	r26, r10
    c4b0:	bb 1d       	adc	r27, r11
    c4b2:	11 96       	adiw	r26, 0x01	; 1
    c4b4:	8c 91       	ld	r24, X
    c4b6:	21 50       	subi	r18, 0x01	; 1
    c4b8:	31 09       	sbc	r19, r1
    c4ba:	d6 01       	movw	r26, r12
    c4bc:	11 96       	adiw	r26, 0x01	; 1
    c4be:	28 15       	cp	r18, r8
    c4c0:	39 05       	cpc	r19, r9
    c4c2:	f4 f0       	brlt	.+60     	; 0xc500 <dtoa_prf+0x27c>
    c4c4:	f6 01       	movw	r30, r12
    c4c6:	80 83       	st	Z, r24
    c4c8:	6d 01       	movw	r12, r26
    c4ca:	db cf       	rjmp	.-74     	; 0xc482 <dtoa_prf+0x1fe>
    c4cc:	b1 2c       	mov	r11, r1
    c4ce:	a1 2c       	mov	r10, r1
    c4d0:	a0 cf       	rjmp	.-192    	; 0xc412 <dtoa_prf+0x18e>
    c4d2:	f7 01       	movw	r30, r14
    c4d4:	b1 93       	st	Z+, r27
    c4d6:	7f 01       	movw	r14, r30
    c4d8:	a1 50       	subi	r26, 0x01	; 1
    c4da:	aa cf       	rjmp	.-172    	; 0xc430 <dtoa_prf+0x1ac>
    c4dc:	91 11       	cpse	r25, r1
    c4de:	b0 cf       	rjmp	.-160    	; 0xc440 <dtoa_prf+0x1bc>
    c4e0:	d6 01       	movw	r26, r12
    c4e2:	94 2f       	mov	r25, r20
    c4e4:	50 e3       	ldi	r21, 0x30	; 48
    c4e6:	02 c0       	rjmp	.+4      	; 0xc4ec <dtoa_prf+0x268>
    c4e8:	5d 93       	st	X+, r21
    c4ea:	91 50       	subi	r25, 0x01	; 1
    c4ec:	91 11       	cpse	r25, r1
    c4ee:	fc cf       	rjmp	.-8      	; 0xc4e8 <dtoa_prf+0x264>
    c4f0:	c4 0e       	add	r12, r20
    c4f2:	d1 1c       	adc	r13, r1
    c4f4:	40 e0       	ldi	r20, 0x00	; 0
    c4f6:	ac cf       	rjmp	.-168    	; 0xc450 <dtoa_prf+0x1cc>
    c4f8:	01 e0       	ldi	r16, 0x01	; 1
    c4fa:	ba cf       	rjmp	.-140    	; 0xc470 <dtoa_prf+0x1ec>
    c4fc:	80 e3       	ldi	r24, 0x30	; 48
    c4fe:	db cf       	rjmp	.-74     	; 0xc4b6 <dtoa_prf+0x232>
    c500:	62 17       	cp	r22, r18
    c502:	73 07       	cpc	r23, r19
    c504:	31 f4       	brne	.+12     	; 0xc512 <dtoa_prf+0x28e>
    c506:	96 33       	cpi	r25, 0x36	; 54
    c508:	88 f4       	brcc	.+34     	; 0xc52c <dtoa_prf+0x2a8>
    c50a:	95 33       	cpi	r25, 0x35	; 53
    c50c:	11 f4       	brne	.+4      	; 0xc512 <dtoa_prf+0x28e>
    c50e:	55 23       	and	r21, r21
    c510:	69 f0       	breq	.+26     	; 0xc52c <dtoa_prf+0x2a8>
    c512:	f6 01       	movw	r30, r12
    c514:	80 83       	st	Z, r24
    c516:	fd 01       	movw	r30, r26
    c518:	84 2f       	mov	r24, r20
    c51a:	90 e2       	ldi	r25, 0x20	; 32
    c51c:	81 11       	cpse	r24, r1
    c51e:	08 c0       	rjmp	.+16     	; 0xc530 <dtoa_prf+0x2ac>
    c520:	a4 0f       	add	r26, r20
    c522:	b1 1d       	adc	r27, r1
    c524:	1c 92       	st	X, r1
    c526:	90 e0       	ldi	r25, 0x00	; 0
    c528:	80 e0       	ldi	r24, 0x00	; 0
    c52a:	03 cf       	rjmp	.-506    	; 0xc332 <dtoa_prf+0xae>
    c52c:	81 e3       	ldi	r24, 0x31	; 49
    c52e:	f1 cf       	rjmp	.-30     	; 0xc512 <dtoa_prf+0x28e>
    c530:	91 93       	st	Z+, r25
    c532:	81 50       	subi	r24, 0x01	; 1
    c534:	f3 cf       	rjmp	.-26     	; 0xc51c <dtoa_prf+0x298>
    c536:	91 11       	cpse	r25, r1
    c538:	83 cf       	rjmp	.-250    	; 0xc440 <dtoa_prf+0x1bc>
    c53a:	8a cf       	rjmp	.-236    	; 0xc450 <dtoa_prf+0x1cc>

0000c53c <strtod>:
strtod():
    c53c:	b0 e0       	ldi	r27, 0x00	; 0
    c53e:	a0 e0       	ldi	r26, 0x00	; 0
    c540:	e3 ea       	ldi	r30, 0xA3	; 163
    c542:	f2 e6       	ldi	r31, 0x62	; 98
    c544:	75 cd       	rjmp	.-1302   	; 0xc030 <__prologue_saves__+0xc>
    c546:	5c 01       	movw	r10, r24
    c548:	7b 01       	movw	r14, r22
    c54a:	61 15       	cp	r22, r1
    c54c:	71 05       	cpc	r23, r1
    c54e:	19 f0       	breq	.+6      	; 0xc556 <strtod+0x1a>
    c550:	db 01       	movw	r26, r22
    c552:	8d 93       	st	X+, r24
    c554:	9c 93       	st	X, r25
    c556:	85 01       	movw	r16, r10
    c558:	0f 5f       	subi	r16, 0xFF	; 255
    c55a:	1f 4f       	sbci	r17, 0xFF	; 255
    c55c:	f5 01       	movw	r30, r10
    c55e:	d0 81       	ld	r29, Z
    c560:	8d 2f       	mov	r24, r29
    c562:	90 e0       	ldi	r25, 0x00	; 0
    c564:	08 d2       	rcall	.+1040   	; 0xc976 <isspace>
    c566:	6c 01       	movw	r12, r24
    c568:	89 2b       	or	r24, r25
    c56a:	a9 f5       	brne	.+106    	; 0xc5d6 <strtod+0x9a>
    c56c:	dd 32       	cpi	r29, 0x2D	; 45
    c56e:	a9 f5       	brne	.+106    	; 0xc5da <strtod+0x9e>
    c570:	0f 5f       	subi	r16, 0xFF	; 255
    c572:	1f 4f       	sbci	r17, 0xFF	; 255
    c574:	d5 01       	movw	r26, r10
    c576:	11 96       	adiw	r26, 0x01	; 1
    c578:	dc 91       	ld	r29, X
    c57a:	c1 e0       	ldi	r28, 0x01	; 1
    c57c:	58 01       	movw	r10, r16
    c57e:	f1 e0       	ldi	r31, 0x01	; 1
    c580:	af 1a       	sub	r10, r31
    c582:	b1 08       	sbc	r11, r1
    c584:	43 e0       	ldi	r20, 0x03	; 3
    c586:	50 e0       	ldi	r21, 0x00	; 0
    c588:	60 eb       	ldi	r22, 0xB0	; 176
    c58a:	72 e0       	ldi	r23, 0x02	; 2
    c58c:	c5 01       	movw	r24, r10
    c58e:	fb d1       	rcall	.+1014   	; 0xc986 <strncasecmp_P>
    c590:	89 2b       	or	r24, r25
    c592:	61 f5       	brne	.+88     	; 0xc5ec <strtod+0xb0>
    c594:	68 01       	movw	r12, r16
    c596:	82 e0       	ldi	r24, 0x02	; 2
    c598:	c8 0e       	add	r12, r24
    c59a:	d1 1c       	adc	r13, r1
    c59c:	45 e0       	ldi	r20, 0x05	; 5
    c59e:	50 e0       	ldi	r21, 0x00	; 0
    c5a0:	6b ea       	ldi	r22, 0xAB	; 171
    c5a2:	72 e0       	ldi	r23, 0x02	; 2
    c5a4:	c6 01       	movw	r24, r12
    c5a6:	ef d1       	rcall	.+990    	; 0xc986 <strncasecmp_P>
    c5a8:	89 2b       	or	r24, r25
    c5aa:	21 f4       	brne	.+8      	; 0xc5b4 <strtod+0x78>
    c5ac:	68 01       	movw	r12, r16
    c5ae:	97 e0       	ldi	r25, 0x07	; 7
    c5b0:	c9 0e       	add	r12, r25
    c5b2:	d1 1c       	adc	r13, r1
    c5b4:	e1 14       	cp	r14, r1
    c5b6:	f1 04       	cpc	r15, r1
    c5b8:	19 f0       	breq	.+6      	; 0xc5c0 <strtod+0x84>
    c5ba:	d7 01       	movw	r26, r14
    c5bc:	cd 92       	st	X+, r12
    c5be:	dc 92       	st	X, r13
    c5c0:	60 e0       	ldi	r22, 0x00	; 0
    c5c2:	70 e0       	ldi	r23, 0x00	; 0
    c5c4:	80 e8       	ldi	r24, 0x80	; 128
    c5c6:	9f ef       	ldi	r25, 0xFF	; 255
    c5c8:	c1 11       	cpse	r28, r1
    c5ca:	f9 c0       	rjmp	.+498    	; 0xc7be <strtod+0x282>
    c5cc:	60 e0       	ldi	r22, 0x00	; 0
    c5ce:	70 e0       	ldi	r23, 0x00	; 0
    c5d0:	80 e8       	ldi	r24, 0x80	; 128
    c5d2:	9f e7       	ldi	r25, 0x7F	; 127
    c5d4:	f4 c0       	rjmp	.+488    	; 0xc7be <strtod+0x282>
    c5d6:	58 01       	movw	r10, r16
    c5d8:	be cf       	rjmp	.-132    	; 0xc556 <strtod+0x1a>
    c5da:	db 32       	cpi	r29, 0x2B	; 43
    c5dc:	29 f4       	brne	.+10     	; 0xc5e8 <strtod+0xac>
    c5de:	85 01       	movw	r16, r10
    c5e0:	0e 5f       	subi	r16, 0xFE	; 254
    c5e2:	1f 4f       	sbci	r17, 0xFF	; 255
    c5e4:	f5 01       	movw	r30, r10
    c5e6:	d1 81       	ldd	r29, Z+1	; 0x01
    c5e8:	c0 e0       	ldi	r28, 0x00	; 0
    c5ea:	c8 cf       	rjmp	.-112    	; 0xc57c <strtod+0x40>
    c5ec:	43 e0       	ldi	r20, 0x03	; 3
    c5ee:	50 e0       	ldi	r21, 0x00	; 0
    c5f0:	68 ea       	ldi	r22, 0xA8	; 168
    c5f2:	72 e0       	ldi	r23, 0x02	; 2
    c5f4:	c5 01       	movw	r24, r10
    c5f6:	c7 d1       	rcall	.+910    	; 0xc986 <strncasecmp_P>
    c5f8:	89 2b       	or	r24, r25
    c5fa:	e9 f0       	breq	.+58     	; 0xc636 <strtod+0xfa>
    c5fc:	f8 01       	movw	r30, r16
    c5fe:	10 e0       	ldi	r17, 0x00	; 0
    c600:	00 e0       	ldi	r16, 0x00	; 0
    c602:	20 e0       	ldi	r18, 0x00	; 0
    c604:	30 e0       	ldi	r19, 0x00	; 0
    c606:	a9 01       	movw	r20, r18
    c608:	5f 01       	movw	r10, r30
    c60a:	b0 ed       	ldi	r27, 0xD0	; 208
    c60c:	8b 2e       	mov	r8, r27
    c60e:	8d 0e       	add	r8, r29
    c610:	89 e0       	ldi	r24, 0x09	; 9
    c612:	88 15       	cp	r24, r8
    c614:	c0 f1       	brcs	.+112    	; 0xc686 <strtod+0x14a>
    c616:	9c 2e       	mov	r9, r28
    c618:	68 94       	set
    c61a:	91 f8       	bld	r9, 1
    c61c:	8c 2f       	mov	r24, r28
    c61e:	88 70       	andi	r24, 0x08	; 8
    c620:	c2 ff       	sbrs	r28, 2
    c622:	16 c0       	rjmp	.+44     	; 0xc650 <strtod+0x114>
    c624:	81 11       	cpse	r24, r1
    c626:	02 c0       	rjmp	.+4      	; 0xc62c <strtod+0xf0>
    c628:	0f 5f       	subi	r16, 0xFF	; 255
    c62a:	1f 4f       	sbci	r17, 0xFF	; 255
    c62c:	31 96       	adiw	r30, 0x01	; 1
    c62e:	d5 01       	movw	r26, r10
    c630:	dc 91       	ld	r29, X
    c632:	c9 2d       	mov	r28, r9
    c634:	e9 cf       	rjmp	.-46     	; 0xc608 <strtod+0xcc>
    c636:	e1 14       	cp	r14, r1
    c638:	f1 04       	cpc	r15, r1
    c63a:	29 f0       	breq	.+10     	; 0xc646 <strtod+0x10a>
    c63c:	0e 5f       	subi	r16, 0xFE	; 254
    c63e:	1f 4f       	sbci	r17, 0xFF	; 255
    c640:	f7 01       	movw	r30, r14
    c642:	00 83       	st	Z, r16
    c644:	11 83       	std	Z+1, r17	; 0x01
    c646:	60 e0       	ldi	r22, 0x00	; 0
    c648:	70 e0       	ldi	r23, 0x00	; 0
    c64a:	80 ec       	ldi	r24, 0xC0	; 192
    c64c:	9f e7       	ldi	r25, 0x7F	; 127
    c64e:	b7 c0       	rjmp	.+366    	; 0xc7be <strtod+0x282>
    c650:	88 23       	and	r24, r24
    c652:	11 f0       	breq	.+4      	; 0xc658 <strtod+0x11c>
    c654:	01 50       	subi	r16, 0x01	; 1
    c656:	11 09       	sbc	r17, r1
    c658:	a5 e0       	ldi	r26, 0x05	; 5
    c65a:	b0 e0       	ldi	r27, 0x00	; 0
    c65c:	c8 d2       	rcall	.+1424   	; 0xcbee <__muluhisi3>
    c65e:	9b 01       	movw	r18, r22
    c660:	ac 01       	movw	r20, r24
    c662:	22 0f       	add	r18, r18
    c664:	33 1f       	adc	r19, r19
    c666:	44 1f       	adc	r20, r20
    c668:	55 1f       	adc	r21, r21
    c66a:	28 0d       	add	r18, r8
    c66c:	31 1d       	adc	r19, r1
    c66e:	41 1d       	adc	r20, r1
    c670:	51 1d       	adc	r21, r1
    c672:	28 39       	cpi	r18, 0x98	; 152
    c674:	99 e9       	ldi	r25, 0x99	; 153
    c676:	39 07       	cpc	r19, r25
    c678:	49 07       	cpc	r20, r25
    c67a:	99 e1       	ldi	r25, 0x19	; 25
    c67c:	59 07       	cpc	r21, r25
    c67e:	b0 f2       	brcs	.-84     	; 0xc62c <strtod+0xf0>
    c680:	c6 60       	ori	r28, 0x06	; 6
    c682:	9c 2e       	mov	r9, r28
    c684:	d3 cf       	rjmp	.-90     	; 0xc62c <strtod+0xf0>
    c686:	ae ef       	ldi	r26, 0xFE	; 254
    c688:	8a 12       	cpse	r8, r26
    c68a:	06 c0       	rjmp	.+12     	; 0xc698 <strtod+0x15c>
    c68c:	c3 fd       	sbrc	r28, 3
    c68e:	3c c0       	rjmp	.+120    	; 0xc708 <strtod+0x1cc>
    c690:	9c 2e       	mov	r9, r28
    c692:	68 94       	set
    c694:	93 f8       	bld	r9, 3
    c696:	ca cf       	rjmp	.-108    	; 0xc62c <strtod+0xf0>
    c698:	df 7d       	andi	r29, 0xDF	; 223
    c69a:	d5 34       	cpi	r29, 0x45	; 69
    c69c:	a9 f5       	brne	.+106    	; 0xc708 <strtod+0x1cc>
    c69e:	80 81       	ld	r24, Z
    c6a0:	8d 32       	cpi	r24, 0x2D	; 45
    c6a2:	39 f4       	brne	.+14     	; 0xc6b2 <strtod+0x176>
    c6a4:	c0 61       	ori	r28, 0x10	; 16
    c6a6:	df 01       	movw	r26, r30
    c6a8:	12 96       	adiw	r26, 0x02	; 2
    c6aa:	81 81       	ldd	r24, Z+1	; 0x01
    c6ac:	62 e0       	ldi	r22, 0x02	; 2
    c6ae:	70 e0       	ldi	r23, 0x00	; 0
    c6b0:	06 c0       	rjmp	.+12     	; 0xc6be <strtod+0x182>
    c6b2:	df 01       	movw	r26, r30
    c6b4:	8b 32       	cpi	r24, 0x2B	; 43
    c6b6:	c1 f3       	breq	.-16     	; 0xc6a8 <strtod+0x16c>
    c6b8:	11 96       	adiw	r26, 0x01	; 1
    c6ba:	61 e0       	ldi	r22, 0x01	; 1
    c6bc:	70 e0       	ldi	r23, 0x00	; 0
    c6be:	80 53       	subi	r24, 0x30	; 48
    c6c0:	5d 01       	movw	r10, r26
    c6c2:	a6 1a       	sub	r10, r22
    c6c4:	b7 0a       	sbc	r11, r23
    c6c6:	8a 30       	cpi	r24, 0x0A	; 10
    c6c8:	f8 f4       	brcc	.+62     	; 0xc708 <strtod+0x1cc>
    c6ca:	e0 e8       	ldi	r30, 0x80	; 128
    c6cc:	ce 16       	cp	r12, r30
    c6ce:	ec e0       	ldi	r30, 0x0C	; 12
    c6d0:	de 06       	cpc	r13, r30
    c6d2:	5c f4       	brge	.+22     	; 0xc6ea <strtod+0x1ae>
    c6d4:	b6 01       	movw	r22, r12
    c6d6:	66 0f       	add	r22, r22
    c6d8:	77 1f       	adc	r23, r23
    c6da:	66 0f       	add	r22, r22
    c6dc:	77 1f       	adc	r23, r23
    c6de:	c6 0e       	add	r12, r22
    c6e0:	d7 1e       	adc	r13, r23
    c6e2:	cc 0c       	add	r12, r12
    c6e4:	dd 1c       	adc	r13, r13
    c6e6:	c8 0e       	add	r12, r24
    c6e8:	d1 1c       	adc	r13, r1
    c6ea:	5d 01       	movw	r10, r26
    c6ec:	ff ef       	ldi	r31, 0xFF	; 255
    c6ee:	af 1a       	sub	r10, r31
    c6f0:	bf 0a       	sbc	r11, r31
    c6f2:	8c 91       	ld	r24, X
    c6f4:	80 53       	subi	r24, 0x30	; 48
    c6f6:	8a 30       	cpi	r24, 0x0A	; 10
    c6f8:	98 f1       	brcs	.+102    	; 0xc760 <strtod+0x224>
    c6fa:	c4 ff       	sbrs	r28, 4
    c6fc:	03 c0       	rjmp	.+6      	; 0xc704 <strtod+0x1c8>
    c6fe:	d1 94       	neg	r13
    c700:	c1 94       	neg	r12
    c702:	d1 08       	sbc	r13, r1
    c704:	0c 0d       	add	r16, r12
    c706:	1d 1d       	adc	r17, r13
    c708:	c1 ff       	sbrs	r28, 1
    c70a:	09 c0       	rjmp	.+18     	; 0xc71e <strtod+0x1e2>
    c70c:	e1 14       	cp	r14, r1
    c70e:	f1 04       	cpc	r15, r1
    c710:	31 f0       	breq	.+12     	; 0xc71e <strtod+0x1e2>
    c712:	81 e0       	ldi	r24, 0x01	; 1
    c714:	a8 1a       	sub	r10, r24
    c716:	b1 08       	sbc	r11, r1
    c718:	d7 01       	movw	r26, r14
    c71a:	ad 92       	st	X+, r10
    c71c:	bc 92       	st	X, r11
    c71e:	ca 01       	movw	r24, r20
    c720:	b9 01       	movw	r22, r18
    c722:	4d d1       	rcall	.+666    	; 0xc9be <__floatunsisf>
    c724:	c3 70       	andi	r28, 0x03	; 3
    c726:	c3 30       	cpi	r28, 0x03	; 3
    c728:	09 f4       	brne	.+2      	; 0xc72c <strtod+0x1f0>
    c72a:	90 58       	subi	r25, 0x80	; 128
    c72c:	4b 01       	movw	r8, r22
    c72e:	5c 01       	movw	r10, r24
    c730:	20 e0       	ldi	r18, 0x00	; 0
    c732:	30 e0       	ldi	r19, 0x00	; 0
    c734:	a9 01       	movw	r20, r18
    c736:	3f d1       	rcall	.+638    	; 0xc9b6 <__cmpsf2>
    c738:	88 23       	and	r24, r24
    c73a:	09 f4       	brne	.+2      	; 0xc73e <strtod+0x202>
    c73c:	3e c0       	rjmp	.+124    	; 0xc7ba <strtod+0x27e>
    c73e:	cf ed       	ldi	r28, 0xDF	; 223
    c740:	d2 e0       	ldi	r29, 0x02	; 2
    c742:	17 ff       	sbrs	r17, 7
    c744:	05 c0       	rjmp	.+10     	; 0xc750 <strtod+0x214>
    c746:	11 95       	neg	r17
    c748:	01 95       	neg	r16
    c74a:	11 09       	sbc	r17, r1
    c74c:	c7 ec       	ldi	r28, 0xC7	; 199
    c74e:	d2 e0       	ldi	r29, 0x02	; 2
    c750:	6e 01       	movw	r12, r28
    c752:	b8 e1       	ldi	r27, 0x18	; 24
    c754:	cb 1a       	sub	r12, r27
    c756:	d1 08       	sbc	r13, r1
    c758:	80 e2       	ldi	r24, 0x20	; 32
    c75a:	e8 2e       	mov	r14, r24
    c75c:	f1 2c       	mov	r15, r1
    c75e:	0e c0       	rjmp	.+28     	; 0xc77c <strtod+0x240>
    c760:	d5 01       	movw	r26, r10
    c762:	b3 cf       	rjmp	.-154    	; 0xc6ca <strtod+0x18e>
    c764:	fe 01       	movw	r30, r28
    c766:	25 91       	lpm	r18, Z+
    c768:	35 91       	lpm	r19, Z+
    c76a:	45 91       	lpm	r20, Z+
    c76c:	54 91       	lpm	r21, Z
    c76e:	0e 19       	sub	r16, r14
    c770:	1f 09       	sbc	r17, r15
    c772:	c5 01       	movw	r24, r10
    c774:	b4 01       	movw	r22, r8
    c776:	84 d1       	rcall	.+776    	; 0xca80 <__mulsf3>
    c778:	4b 01       	movw	r8, r22
    c77a:	5c 01       	movw	r10, r24
    c77c:	d5 01       	movw	r26, r10
    c77e:	c4 01       	movw	r24, r8
    c780:	0e 15       	cp	r16, r14
    c782:	1f 05       	cpc	r17, r15
    c784:	7c f7       	brge	.-34     	; 0xc764 <strtod+0x228>
    c786:	24 97       	sbiw	r28, 0x04	; 4
    c788:	f5 94       	asr	r15
    c78a:	e7 94       	ror	r14
    c78c:	cc 16       	cp	r12, r28
    c78e:	dd 06       	cpc	r13, r29
    c790:	a9 f7       	brne	.-22     	; 0xc77c <strtod+0x240>
    c792:	8a 2f       	mov	r24, r26
    c794:	88 0f       	add	r24, r24
    c796:	8b 2f       	mov	r24, r27
    c798:	88 1f       	adc	r24, r24
    c79a:	8f 3f       	cpi	r24, 0xFF	; 255
    c79c:	41 f0       	breq	.+16     	; 0xc7ae <strtod+0x272>
    c79e:	20 e0       	ldi	r18, 0x00	; 0
    c7a0:	30 e0       	ldi	r19, 0x00	; 0
    c7a2:	a9 01       	movw	r20, r18
    c7a4:	c5 01       	movw	r24, r10
    c7a6:	b4 01       	movw	r22, r8
    c7a8:	06 d1       	rcall	.+524    	; 0xc9b6 <__cmpsf2>
    c7aa:	81 11       	cpse	r24, r1
    c7ac:	06 c0       	rjmp	.+12     	; 0xc7ba <strtod+0x27e>
    c7ae:	82 e2       	ldi	r24, 0x22	; 34
    c7b0:	90 e0       	ldi	r25, 0x00	; 0
    c7b2:	80 93 c6 6f 	sts	0x6FC6, r24	; 0x806fc6 <errno>
    c7b6:	90 93 c7 6f 	sts	0x6FC7, r25	; 0x806fc7 <errno+0x1>
    c7ba:	c5 01       	movw	r24, r10
    c7bc:	b4 01       	movw	r22, r8
    c7be:	cd b7       	in	r28, 0x3d	; 61
    c7c0:	de b7       	in	r29, 0x3e	; 62
    c7c2:	ec e0       	ldi	r30, 0x0C	; 12
    c7c4:	4e cc       	rjmp	.-1892   	; 0xc062 <__epilogue_restores__+0xc>

0000c7c6 <__ftoa_engine>:
__ftoa_engine():
    c7c6:	28 30       	cpi	r18, 0x08	; 8
    c7c8:	08 f0       	brcs	.+2      	; 0xc7cc <__ftoa_engine+0x6>
    c7ca:	27 e0       	ldi	r18, 0x07	; 7
    c7cc:	33 27       	eor	r19, r19
    c7ce:	da 01       	movw	r26, r20
    c7d0:	99 0f       	add	r25, r25
    c7d2:	31 1d       	adc	r19, r1
    c7d4:	87 fd       	sbrc	r24, 7
    c7d6:	91 60       	ori	r25, 0x01	; 1
    c7d8:	00 96       	adiw	r24, 0x00	; 0
    c7da:	61 05       	cpc	r22, r1
    c7dc:	71 05       	cpc	r23, r1
    c7de:	39 f4       	brne	.+14     	; 0xc7ee <__ftoa_engine+0x28>
    c7e0:	32 60       	ori	r19, 0x02	; 2
    c7e2:	2e 5f       	subi	r18, 0xFE	; 254
    c7e4:	3d 93       	st	X+, r19
    c7e6:	30 e3       	ldi	r19, 0x30	; 48
    c7e8:	2a 95       	dec	r18
    c7ea:	e1 f7       	brne	.-8      	; 0xc7e4 <__ftoa_engine+0x1e>
    c7ec:	08 95       	ret
    c7ee:	9f 3f       	cpi	r25, 0xFF	; 255
    c7f0:	30 f0       	brcs	.+12     	; 0xc7fe <__ftoa_engine+0x38>
    c7f2:	80 38       	cpi	r24, 0x80	; 128
    c7f4:	71 05       	cpc	r23, r1
    c7f6:	61 05       	cpc	r22, r1
    c7f8:	09 f0       	breq	.+2      	; 0xc7fc <__ftoa_engine+0x36>
    c7fa:	3c 5f       	subi	r19, 0xFC	; 252
    c7fc:	3c 5f       	subi	r19, 0xFC	; 252
    c7fe:	3d 93       	st	X+, r19
    c800:	91 30       	cpi	r25, 0x01	; 1
    c802:	08 f0       	brcs	.+2      	; 0xc806 <__ftoa_engine+0x40>
    c804:	80 68       	ori	r24, 0x80	; 128
    c806:	91 1d       	adc	r25, r1
    c808:	df 93       	push	r29
    c80a:	cf 93       	push	r28
    c80c:	1f 93       	push	r17
    c80e:	0f 93       	push	r16
    c810:	ff 92       	push	r15
    c812:	ef 92       	push	r14
    c814:	19 2f       	mov	r17, r25
    c816:	98 7f       	andi	r25, 0xF8	; 248
    c818:	96 95       	lsr	r25
    c81a:	e9 2f       	mov	r30, r25
    c81c:	96 95       	lsr	r25
    c81e:	96 95       	lsr	r25
    c820:	e9 0f       	add	r30, r25
    c822:	ff 27       	eor	r31, r31
    c824:	e3 5c       	subi	r30, 0xC3	; 195
    c826:	fc 4f       	sbci	r31, 0xFC	; 252
    c828:	99 27       	eor	r25, r25
    c82a:	33 27       	eor	r19, r19
    c82c:	ee 24       	eor	r14, r14
    c82e:	ff 24       	eor	r15, r15
    c830:	a7 01       	movw	r20, r14
    c832:	e7 01       	movw	r28, r14
    c834:	05 90       	lpm	r0, Z+
    c836:	08 94       	sec
    c838:	07 94       	ror	r0
    c83a:	28 f4       	brcc	.+10     	; 0xc846 <__ftoa_engine+0x80>
    c83c:	36 0f       	add	r19, r22
    c83e:	e7 1e       	adc	r14, r23
    c840:	f8 1e       	adc	r15, r24
    c842:	49 1f       	adc	r20, r25
    c844:	51 1d       	adc	r21, r1
    c846:	66 0f       	add	r22, r22
    c848:	77 1f       	adc	r23, r23
    c84a:	88 1f       	adc	r24, r24
    c84c:	99 1f       	adc	r25, r25
    c84e:	06 94       	lsr	r0
    c850:	a1 f7       	brne	.-24     	; 0xc83a <__ftoa_engine+0x74>
    c852:	05 90       	lpm	r0, Z+
    c854:	07 94       	ror	r0
    c856:	28 f4       	brcc	.+10     	; 0xc862 <__ftoa_engine+0x9c>
    c858:	e7 0e       	add	r14, r23
    c85a:	f8 1e       	adc	r15, r24
    c85c:	49 1f       	adc	r20, r25
    c85e:	56 1f       	adc	r21, r22
    c860:	c1 1d       	adc	r28, r1
    c862:	77 0f       	add	r23, r23
    c864:	88 1f       	adc	r24, r24
    c866:	99 1f       	adc	r25, r25
    c868:	66 1f       	adc	r22, r22
    c86a:	06 94       	lsr	r0
    c86c:	a1 f7       	brne	.-24     	; 0xc856 <__ftoa_engine+0x90>
    c86e:	05 90       	lpm	r0, Z+
    c870:	07 94       	ror	r0
    c872:	28 f4       	brcc	.+10     	; 0xc87e <__ftoa_engine+0xb8>
    c874:	f8 0e       	add	r15, r24
    c876:	49 1f       	adc	r20, r25
    c878:	56 1f       	adc	r21, r22
    c87a:	c7 1f       	adc	r28, r23
    c87c:	d1 1d       	adc	r29, r1
    c87e:	88 0f       	add	r24, r24
    c880:	99 1f       	adc	r25, r25
    c882:	66 1f       	adc	r22, r22
    c884:	77 1f       	adc	r23, r23
    c886:	06 94       	lsr	r0
    c888:	a1 f7       	brne	.-24     	; 0xc872 <__ftoa_engine+0xac>
    c88a:	05 90       	lpm	r0, Z+
    c88c:	07 94       	ror	r0
    c88e:	20 f4       	brcc	.+8      	; 0xc898 <__ftoa_engine+0xd2>
    c890:	49 0f       	add	r20, r25
    c892:	56 1f       	adc	r21, r22
    c894:	c7 1f       	adc	r28, r23
    c896:	d8 1f       	adc	r29, r24
    c898:	99 0f       	add	r25, r25
    c89a:	66 1f       	adc	r22, r22
    c89c:	77 1f       	adc	r23, r23
    c89e:	88 1f       	adc	r24, r24
    c8a0:	06 94       	lsr	r0
    c8a2:	a9 f7       	brne	.-22     	; 0xc88e <__ftoa_engine+0xc8>
    c8a4:	84 91       	lpm	r24, Z
    c8a6:	10 95       	com	r17
    c8a8:	17 70       	andi	r17, 0x07	; 7
    c8aa:	41 f0       	breq	.+16     	; 0xc8bc <__ftoa_engine+0xf6>
    c8ac:	d6 95       	lsr	r29
    c8ae:	c7 95       	ror	r28
    c8b0:	57 95       	ror	r21
    c8b2:	47 95       	ror	r20
    c8b4:	f7 94       	ror	r15
    c8b6:	e7 94       	ror	r14
    c8b8:	1a 95       	dec	r17
    c8ba:	c1 f7       	brne	.-16     	; 0xc8ac <__ftoa_engine+0xe6>
    c8bc:	e3 ee       	ldi	r30, 0xE3	; 227
    c8be:	f2 e0       	ldi	r31, 0x02	; 2
    c8c0:	68 94       	set
    c8c2:	15 90       	lpm	r1, Z+
    c8c4:	15 91       	lpm	r17, Z+
    c8c6:	35 91       	lpm	r19, Z+
    c8c8:	65 91       	lpm	r22, Z+
    c8ca:	95 91       	lpm	r25, Z+
    c8cc:	05 90       	lpm	r0, Z+
    c8ce:	7f e2       	ldi	r23, 0x2F	; 47
    c8d0:	73 95       	inc	r23
    c8d2:	e1 18       	sub	r14, r1
    c8d4:	f1 0a       	sbc	r15, r17
    c8d6:	43 0b       	sbc	r20, r19
    c8d8:	56 0b       	sbc	r21, r22
    c8da:	c9 0b       	sbc	r28, r25
    c8dc:	d0 09       	sbc	r29, r0
    c8de:	c0 f7       	brcc	.-16     	; 0xc8d0 <__ftoa_engine+0x10a>
    c8e0:	e1 0c       	add	r14, r1
    c8e2:	f1 1e       	adc	r15, r17
    c8e4:	43 1f       	adc	r20, r19
    c8e6:	56 1f       	adc	r21, r22
    c8e8:	c9 1f       	adc	r28, r25
    c8ea:	d0 1d       	adc	r29, r0
    c8ec:	7e f4       	brtc	.+30     	; 0xc90c <__ftoa_engine+0x146>
    c8ee:	70 33       	cpi	r23, 0x30	; 48
    c8f0:	11 f4       	brne	.+4      	; 0xc8f6 <__ftoa_engine+0x130>
    c8f2:	8a 95       	dec	r24
    c8f4:	e6 cf       	rjmp	.-52     	; 0xc8c2 <__ftoa_engine+0xfc>
    c8f6:	e8 94       	clt
    c8f8:	01 50       	subi	r16, 0x01	; 1
    c8fa:	30 f0       	brcs	.+12     	; 0xc908 <__ftoa_engine+0x142>
    c8fc:	08 0f       	add	r16, r24
    c8fe:	0a f4       	brpl	.+2      	; 0xc902 <__ftoa_engine+0x13c>
    c900:	00 27       	eor	r16, r16
    c902:	02 17       	cp	r16, r18
    c904:	08 f4       	brcc	.+2      	; 0xc908 <__ftoa_engine+0x142>
    c906:	20 2f       	mov	r18, r16
    c908:	23 95       	inc	r18
    c90a:	02 2f       	mov	r16, r18
    c90c:	7a 33       	cpi	r23, 0x3A	; 58
    c90e:	28 f0       	brcs	.+10     	; 0xc91a <__ftoa_engine+0x154>
    c910:	79 e3       	ldi	r23, 0x39	; 57
    c912:	7d 93       	st	X+, r23
    c914:	2a 95       	dec	r18
    c916:	e9 f7       	brne	.-6      	; 0xc912 <__ftoa_engine+0x14c>
    c918:	10 c0       	rjmp	.+32     	; 0xc93a <__ftoa_engine+0x174>
    c91a:	7d 93       	st	X+, r23
    c91c:	2a 95       	dec	r18
    c91e:	89 f6       	brne	.-94     	; 0xc8c2 <__ftoa_engine+0xfc>
    c920:	06 94       	lsr	r0
    c922:	97 95       	ror	r25
    c924:	67 95       	ror	r22
    c926:	37 95       	ror	r19
    c928:	17 95       	ror	r17
    c92a:	17 94       	ror	r1
    c92c:	e1 18       	sub	r14, r1
    c92e:	f1 0a       	sbc	r15, r17
    c930:	43 0b       	sbc	r20, r19
    c932:	56 0b       	sbc	r21, r22
    c934:	c9 0b       	sbc	r28, r25
    c936:	d0 09       	sbc	r29, r0
    c938:	98 f0       	brcs	.+38     	; 0xc960 <__ftoa_engine+0x19a>
    c93a:	23 95       	inc	r18
    c93c:	7e 91       	ld	r23, -X
    c93e:	73 95       	inc	r23
    c940:	7a 33       	cpi	r23, 0x3A	; 58
    c942:	08 f0       	brcs	.+2      	; 0xc946 <__ftoa_engine+0x180>
    c944:	70 e3       	ldi	r23, 0x30	; 48
    c946:	7c 93       	st	X, r23
    c948:	20 13       	cpse	r18, r16
    c94a:	b8 f7       	brcc	.-18     	; 0xc93a <__ftoa_engine+0x174>
    c94c:	7e 91       	ld	r23, -X
    c94e:	70 61       	ori	r23, 0x10	; 16
    c950:	7d 93       	st	X+, r23
    c952:	30 f0       	brcs	.+12     	; 0xc960 <__ftoa_engine+0x19a>
    c954:	83 95       	inc	r24
    c956:	71 e3       	ldi	r23, 0x31	; 49
    c958:	7d 93       	st	X+, r23
    c95a:	70 e3       	ldi	r23, 0x30	; 48
    c95c:	2a 95       	dec	r18
    c95e:	e1 f7       	brne	.-8      	; 0xc958 <__ftoa_engine+0x192>
    c960:	11 24       	eor	r1, r1
    c962:	ef 90       	pop	r14
    c964:	ff 90       	pop	r15
    c966:	0f 91       	pop	r16
    c968:	1f 91       	pop	r17
    c96a:	cf 91       	pop	r28
    c96c:	df 91       	pop	r29
    c96e:	99 27       	eor	r25, r25
    c970:	87 fd       	sbrc	r24, 7
    c972:	90 95       	com	r25
    c974:	08 95       	ret

0000c976 <isspace>:
isspace():
    c976:	91 11       	cpse	r25, r1
    c978:	e6 c0       	rjmp	.+460    	; 0xcb46 <__ctype_isfalse>
    c97a:	80 32       	cpi	r24, 0x20	; 32
    c97c:	19 f0       	breq	.+6      	; 0xc984 <isspace+0xe>
    c97e:	89 50       	subi	r24, 0x09	; 9
    c980:	85 50       	subi	r24, 0x05	; 5
    c982:	d0 f7       	brcc	.-12     	; 0xc978 <isspace+0x2>
    c984:	08 95       	ret

0000c986 <strncasecmp_P>:
strncasecmp_P():
    c986:	fb 01       	movw	r30, r22
    c988:	dc 01       	movw	r26, r24
    c98a:	41 50       	subi	r20, 0x01	; 1
    c98c:	50 40       	sbci	r21, 0x00	; 0
    c98e:	88 f0       	brcs	.+34     	; 0xc9b2 <strncasecmp_P+0x2c>
    c990:	8d 91       	ld	r24, X+
    c992:	81 34       	cpi	r24, 0x41	; 65
    c994:	1c f0       	brlt	.+6      	; 0xc99c <strncasecmp_P+0x16>
    c996:	8b 35       	cpi	r24, 0x5B	; 91
    c998:	0c f4       	brge	.+2      	; 0xc99c <strncasecmp_P+0x16>
    c99a:	80 5e       	subi	r24, 0xE0	; 224
    c99c:	65 91       	lpm	r22, Z+
    c99e:	61 34       	cpi	r22, 0x41	; 65
    c9a0:	1c f0       	brlt	.+6      	; 0xc9a8 <strncasecmp_P+0x22>
    c9a2:	6b 35       	cpi	r22, 0x5B	; 91
    c9a4:	0c f4       	brge	.+2      	; 0xc9a8 <strncasecmp_P+0x22>
    c9a6:	60 5e       	subi	r22, 0xE0	; 224
    c9a8:	86 1b       	sub	r24, r22
    c9aa:	61 11       	cpse	r22, r1
    c9ac:	71 f3       	breq	.-36     	; 0xc98a <strncasecmp_P+0x4>
    c9ae:	99 0b       	sbc	r25, r25
    c9b0:	08 95       	ret
    c9b2:	88 1b       	sub	r24, r24
    c9b4:	fc cf       	rjmp	.-8      	; 0xc9ae <strncasecmp_P+0x28>

0000c9b6 <__cmpsf2>:
__cmpsf2():
    c9b6:	40 d0       	rcall	.+128    	; 0xca38 <__fp_cmp>
    c9b8:	08 f4       	brcc	.+2      	; 0xc9bc <__cmpsf2+0x6>
    c9ba:	81 e0       	ldi	r24, 0x01	; 1
    c9bc:	08 95       	ret

0000c9be <__floatunsisf>:
__floatunsisf():
    c9be:	e8 94       	clt
    c9c0:	09 c0       	rjmp	.+18     	; 0xc9d4 <__floatsisf+0x12>

0000c9c2 <__floatsisf>:
    c9c2:	97 fb       	bst	r25, 7
    c9c4:	3e f4       	brtc	.+14     	; 0xc9d4 <__floatsisf+0x12>
    c9c6:	90 95       	com	r25
    c9c8:	80 95       	com	r24
    c9ca:	70 95       	com	r23
    c9cc:	61 95       	neg	r22
    c9ce:	7f 4f       	sbci	r23, 0xFF	; 255
    c9d0:	8f 4f       	sbci	r24, 0xFF	; 255
    c9d2:	9f 4f       	sbci	r25, 0xFF	; 255
    c9d4:	99 23       	and	r25, r25
    c9d6:	a9 f0       	breq	.+42     	; 0xca02 <__floatsisf+0x40>
    c9d8:	f9 2f       	mov	r31, r25
    c9da:	96 e9       	ldi	r25, 0x96	; 150
    c9dc:	bb 27       	eor	r27, r27
    c9de:	93 95       	inc	r25
    c9e0:	f6 95       	lsr	r31
    c9e2:	87 95       	ror	r24
    c9e4:	77 95       	ror	r23
    c9e6:	67 95       	ror	r22
    c9e8:	b7 95       	ror	r27
    c9ea:	f1 11       	cpse	r31, r1
    c9ec:	f8 cf       	rjmp	.-16     	; 0xc9de <__floatsisf+0x1c>
    c9ee:	fa f4       	brpl	.+62     	; 0xca2e <__floatsisf+0x6c>
    c9f0:	bb 0f       	add	r27, r27
    c9f2:	11 f4       	brne	.+4      	; 0xc9f8 <__floatsisf+0x36>
    c9f4:	60 ff       	sbrs	r22, 0
    c9f6:	1b c0       	rjmp	.+54     	; 0xca2e <__floatsisf+0x6c>
    c9f8:	6f 5f       	subi	r22, 0xFF	; 255
    c9fa:	7f 4f       	sbci	r23, 0xFF	; 255
    c9fc:	8f 4f       	sbci	r24, 0xFF	; 255
    c9fe:	9f 4f       	sbci	r25, 0xFF	; 255
    ca00:	16 c0       	rjmp	.+44     	; 0xca2e <__floatsisf+0x6c>
    ca02:	88 23       	and	r24, r24
    ca04:	11 f0       	breq	.+4      	; 0xca0a <__floatsisf+0x48>
    ca06:	96 e9       	ldi	r25, 0x96	; 150
    ca08:	11 c0       	rjmp	.+34     	; 0xca2c <__floatsisf+0x6a>
    ca0a:	77 23       	and	r23, r23
    ca0c:	21 f0       	breq	.+8      	; 0xca16 <__floatsisf+0x54>
    ca0e:	9e e8       	ldi	r25, 0x8E	; 142
    ca10:	87 2f       	mov	r24, r23
    ca12:	76 2f       	mov	r23, r22
    ca14:	05 c0       	rjmp	.+10     	; 0xca20 <__floatsisf+0x5e>
    ca16:	66 23       	and	r22, r22
    ca18:	71 f0       	breq	.+28     	; 0xca36 <__floatsisf+0x74>
    ca1a:	96 e8       	ldi	r25, 0x86	; 134
    ca1c:	86 2f       	mov	r24, r22
    ca1e:	70 e0       	ldi	r23, 0x00	; 0
    ca20:	60 e0       	ldi	r22, 0x00	; 0
    ca22:	2a f0       	brmi	.+10     	; 0xca2e <__floatsisf+0x6c>
    ca24:	9a 95       	dec	r25
    ca26:	66 0f       	add	r22, r22
    ca28:	77 1f       	adc	r23, r23
    ca2a:	88 1f       	adc	r24, r24
    ca2c:	da f7       	brpl	.-10     	; 0xca24 <__floatsisf+0x62>
    ca2e:	88 0f       	add	r24, r24
    ca30:	96 95       	lsr	r25
    ca32:	87 95       	ror	r24
    ca34:	97 f9       	bld	r25, 7
    ca36:	08 95       	ret

0000ca38 <__fp_cmp>:
__fp_cmp():
    ca38:	99 0f       	add	r25, r25
    ca3a:	00 08       	sbc	r0, r0
    ca3c:	55 0f       	add	r21, r21
    ca3e:	aa 0b       	sbc	r26, r26
    ca40:	e0 e8       	ldi	r30, 0x80	; 128
    ca42:	fe ef       	ldi	r31, 0xFE	; 254
    ca44:	16 16       	cp	r1, r22
    ca46:	17 06       	cpc	r1, r23
    ca48:	e8 07       	cpc	r30, r24
    ca4a:	f9 07       	cpc	r31, r25
    ca4c:	c0 f0       	brcs	.+48     	; 0xca7e <__fp_cmp+0x46>
    ca4e:	12 16       	cp	r1, r18
    ca50:	13 06       	cpc	r1, r19
    ca52:	e4 07       	cpc	r30, r20
    ca54:	f5 07       	cpc	r31, r21
    ca56:	98 f0       	brcs	.+38     	; 0xca7e <__fp_cmp+0x46>
    ca58:	62 1b       	sub	r22, r18
    ca5a:	73 0b       	sbc	r23, r19
    ca5c:	84 0b       	sbc	r24, r20
    ca5e:	95 0b       	sbc	r25, r21
    ca60:	39 f4       	brne	.+14     	; 0xca70 <__fp_cmp+0x38>
    ca62:	0a 26       	eor	r0, r26
    ca64:	61 f0       	breq	.+24     	; 0xca7e <__fp_cmp+0x46>
    ca66:	23 2b       	or	r18, r19
    ca68:	24 2b       	or	r18, r20
    ca6a:	25 2b       	or	r18, r21
    ca6c:	21 f4       	brne	.+8      	; 0xca76 <__fp_cmp+0x3e>
    ca6e:	08 95       	ret
    ca70:	0a 26       	eor	r0, r26
    ca72:	09 f4       	brne	.+2      	; 0xca76 <__fp_cmp+0x3e>
    ca74:	a1 40       	sbci	r26, 0x01	; 1
    ca76:	a6 95       	lsr	r26
    ca78:	8f ef       	ldi	r24, 0xFF	; 255
    ca7a:	81 1d       	adc	r24, r1
    ca7c:	81 1d       	adc	r24, r1
    ca7e:	08 95       	ret

0000ca80 <__mulsf3>:
__mulsf3():
    ca80:	0b d0       	rcall	.+22     	; 0xca98 <__mulsf3x>
    ca82:	7b c0       	rjmp	.+246    	; 0xcb7a <__fp_round>
    ca84:	6c d0       	rcall	.+216    	; 0xcb5e <__fp_pscA>
    ca86:	28 f0       	brcs	.+10     	; 0xca92 <__mulsf3+0x12>
    ca88:	71 d0       	rcall	.+226    	; 0xcb6c <__fp_pscB>
    ca8a:	18 f0       	brcs	.+6      	; 0xca92 <__mulsf3+0x12>
    ca8c:	95 23       	and	r25, r21
    ca8e:	09 f0       	breq	.+2      	; 0xca92 <__mulsf3+0x12>
    ca90:	5d c0       	rjmp	.+186    	; 0xcb4c <__fp_inf>
    ca92:	62 c0       	rjmp	.+196    	; 0xcb58 <__fp_nan>
    ca94:	11 24       	eor	r1, r1
    ca96:	a5 c0       	rjmp	.+330    	; 0xcbe2 <__fp_szero>

0000ca98 <__mulsf3x>:
__mulsf3x():
    ca98:	81 d0       	rcall	.+258    	; 0xcb9c <__fp_split3>
    ca9a:	a0 f3       	brcs	.-24     	; 0xca84 <__mulsf3+0x4>

0000ca9c <__mulsf3_pse>:
    ca9c:	95 9f       	mul	r25, r21
    ca9e:	d1 f3       	breq	.-12     	; 0xca94 <__mulsf3+0x14>
    caa0:	95 0f       	add	r25, r21
    caa2:	50 e0       	ldi	r21, 0x00	; 0
    caa4:	55 1f       	adc	r21, r21
    caa6:	62 9f       	mul	r22, r18
    caa8:	f0 01       	movw	r30, r0
    caaa:	72 9f       	mul	r23, r18
    caac:	bb 27       	eor	r27, r27
    caae:	f0 0d       	add	r31, r0
    cab0:	b1 1d       	adc	r27, r1
    cab2:	63 9f       	mul	r22, r19
    cab4:	aa 27       	eor	r26, r26
    cab6:	f0 0d       	add	r31, r0
    cab8:	b1 1d       	adc	r27, r1
    caba:	aa 1f       	adc	r26, r26
    cabc:	64 9f       	mul	r22, r20
    cabe:	66 27       	eor	r22, r22
    cac0:	b0 0d       	add	r27, r0
    cac2:	a1 1d       	adc	r26, r1
    cac4:	66 1f       	adc	r22, r22
    cac6:	82 9f       	mul	r24, r18
    cac8:	22 27       	eor	r18, r18
    caca:	b0 0d       	add	r27, r0
    cacc:	a1 1d       	adc	r26, r1
    cace:	62 1f       	adc	r22, r18
    cad0:	73 9f       	mul	r23, r19
    cad2:	b0 0d       	add	r27, r0
    cad4:	a1 1d       	adc	r26, r1
    cad6:	62 1f       	adc	r22, r18
    cad8:	83 9f       	mul	r24, r19
    cada:	a0 0d       	add	r26, r0
    cadc:	61 1d       	adc	r22, r1
    cade:	22 1f       	adc	r18, r18
    cae0:	74 9f       	mul	r23, r20
    cae2:	33 27       	eor	r19, r19
    cae4:	a0 0d       	add	r26, r0
    cae6:	61 1d       	adc	r22, r1
    cae8:	23 1f       	adc	r18, r19
    caea:	84 9f       	mul	r24, r20
    caec:	60 0d       	add	r22, r0
    caee:	21 1d       	adc	r18, r1
    caf0:	82 2f       	mov	r24, r18
    caf2:	76 2f       	mov	r23, r22
    caf4:	6a 2f       	mov	r22, r26
    caf6:	11 24       	eor	r1, r1
    caf8:	9f 57       	subi	r25, 0x7F	; 127
    cafa:	50 40       	sbci	r21, 0x00	; 0
    cafc:	8a f0       	brmi	.+34     	; 0xcb20 <__mulsf3_pse+0x84>
    cafe:	e1 f0       	breq	.+56     	; 0xcb38 <__mulsf3_pse+0x9c>
    cb00:	88 23       	and	r24, r24
    cb02:	4a f0       	brmi	.+18     	; 0xcb16 <__mulsf3_pse+0x7a>
    cb04:	ee 0f       	add	r30, r30
    cb06:	ff 1f       	adc	r31, r31
    cb08:	bb 1f       	adc	r27, r27
    cb0a:	66 1f       	adc	r22, r22
    cb0c:	77 1f       	adc	r23, r23
    cb0e:	88 1f       	adc	r24, r24
    cb10:	91 50       	subi	r25, 0x01	; 1
    cb12:	50 40       	sbci	r21, 0x00	; 0
    cb14:	a9 f7       	brne	.-22     	; 0xcb00 <__mulsf3_pse+0x64>
    cb16:	9e 3f       	cpi	r25, 0xFE	; 254
    cb18:	51 05       	cpc	r21, r1
    cb1a:	70 f0       	brcs	.+28     	; 0xcb38 <__mulsf3_pse+0x9c>
    cb1c:	17 c0       	rjmp	.+46     	; 0xcb4c <__fp_inf>
    cb1e:	61 c0       	rjmp	.+194    	; 0xcbe2 <__fp_szero>
    cb20:	5f 3f       	cpi	r21, 0xFF	; 255
    cb22:	ec f3       	brlt	.-6      	; 0xcb1e <__mulsf3_pse+0x82>
    cb24:	98 3e       	cpi	r25, 0xE8	; 232
    cb26:	dc f3       	brlt	.-10     	; 0xcb1e <__mulsf3_pse+0x82>
    cb28:	86 95       	lsr	r24
    cb2a:	77 95       	ror	r23
    cb2c:	67 95       	ror	r22
    cb2e:	b7 95       	ror	r27
    cb30:	f7 95       	ror	r31
    cb32:	e7 95       	ror	r30
    cb34:	9f 5f       	subi	r25, 0xFF	; 255
    cb36:	c1 f7       	brne	.-16     	; 0xcb28 <__mulsf3_pse+0x8c>
    cb38:	fe 2b       	or	r31, r30
    cb3a:	88 0f       	add	r24, r24
    cb3c:	91 1d       	adc	r25, r1
    cb3e:	96 95       	lsr	r25
    cb40:	87 95       	ror	r24
    cb42:	97 f9       	bld	r25, 7
    cb44:	08 95       	ret

0000cb46 <__ctype_isfalse>:
    cb46:	99 27       	eor	r25, r25
    cb48:	88 27       	eor	r24, r24

0000cb4a <__ctype_istrue>:
    cb4a:	08 95       	ret

0000cb4c <__fp_inf>:
    cb4c:	97 f9       	bld	r25, 7
    cb4e:	9f 67       	ori	r25, 0x7F	; 127
    cb50:	80 e8       	ldi	r24, 0x80	; 128
    cb52:	70 e0       	ldi	r23, 0x00	; 0
    cb54:	60 e0       	ldi	r22, 0x00	; 0
    cb56:	08 95       	ret

0000cb58 <__fp_nan>:
    cb58:	9f ef       	ldi	r25, 0xFF	; 255
    cb5a:	80 ec       	ldi	r24, 0xC0	; 192
    cb5c:	08 95       	ret

0000cb5e <__fp_pscA>:
    cb5e:	00 24       	eor	r0, r0
    cb60:	0a 94       	dec	r0
    cb62:	16 16       	cp	r1, r22
    cb64:	17 06       	cpc	r1, r23
    cb66:	18 06       	cpc	r1, r24
    cb68:	09 06       	cpc	r0, r25
__fp_pscA():
    cb6a:	08 95       	ret

0000cb6c <__fp_pscB>:
__fp_pscB():
    cb6c:	00 24       	eor	r0, r0
    cb6e:	0a 94       	dec	r0
    cb70:	12 16       	cp	r1, r18
    cb72:	13 06       	cpc	r1, r19
    cb74:	14 06       	cpc	r1, r20
    cb76:	05 06       	cpc	r0, r21
    cb78:	08 95       	ret

0000cb7a <__fp_round>:
__fp_round():
    cb7a:	09 2e       	mov	r0, r25
    cb7c:	03 94       	inc	r0
    cb7e:	00 0c       	add	r0, r0
    cb80:	11 f4       	brne	.+4      	; 0xcb86 <__fp_round+0xc>
    cb82:	88 23       	and	r24, r24
    cb84:	52 f0       	brmi	.+20     	; 0xcb9a <__fp_round+0x20>
    cb86:	bb 0f       	add	r27, r27
    cb88:	40 f4       	brcc	.+16     	; 0xcb9a <__fp_round+0x20>
    cb8a:	bf 2b       	or	r27, r31
    cb8c:	11 f4       	brne	.+4      	; 0xcb92 <__fp_round+0x18>
    cb8e:	60 ff       	sbrs	r22, 0
    cb90:	04 c0       	rjmp	.+8      	; 0xcb9a <__fp_round+0x20>
    cb92:	6f 5f       	subi	r22, 0xFF	; 255
    cb94:	7f 4f       	sbci	r23, 0xFF	; 255
    cb96:	8f 4f       	sbci	r24, 0xFF	; 255
    cb98:	9f 4f       	sbci	r25, 0xFF	; 255
    cb9a:	08 95       	ret

0000cb9c <__fp_split3>:
__fp_split3():
    cb9c:	57 fd       	sbrc	r21, 7
    cb9e:	90 58       	subi	r25, 0x80	; 128
    cba0:	44 0f       	add	r20, r20
    cba2:	55 1f       	adc	r21, r21
    cba4:	59 f0       	breq	.+22     	; 0xcbbc <__fp_splitA+0x10>
    cba6:	5f 3f       	cpi	r21, 0xFF	; 255
    cba8:	71 f0       	breq	.+28     	; 0xcbc6 <__fp_splitA+0x1a>
    cbaa:	47 95       	ror	r20

0000cbac <__fp_splitA>:
    cbac:	88 0f       	add	r24, r24
    cbae:	97 fb       	bst	r25, 7
    cbb0:	99 1f       	adc	r25, r25
    cbb2:	61 f0       	breq	.+24     	; 0xcbcc <__fp_splitA+0x20>
    cbb4:	9f 3f       	cpi	r25, 0xFF	; 255
    cbb6:	79 f0       	breq	.+30     	; 0xcbd6 <__fp_splitA+0x2a>
    cbb8:	87 95       	ror	r24
    cbba:	08 95       	ret
    cbbc:	12 16       	cp	r1, r18
    cbbe:	13 06       	cpc	r1, r19
    cbc0:	14 06       	cpc	r1, r20
    cbc2:	55 1f       	adc	r21, r21
    cbc4:	f2 cf       	rjmp	.-28     	; 0xcbaa <__fp_split3+0xe>
    cbc6:	46 95       	lsr	r20
    cbc8:	f1 df       	rcall	.-30     	; 0xcbac <__fp_splitA>
    cbca:	08 c0       	rjmp	.+16     	; 0xcbdc <__fp_splitA+0x30>
    cbcc:	16 16       	cp	r1, r22
    cbce:	17 06       	cpc	r1, r23
    cbd0:	18 06       	cpc	r1, r24
    cbd2:	99 1f       	adc	r25, r25
    cbd4:	f1 cf       	rjmp	.-30     	; 0xcbb8 <__fp_splitA+0xc>
    cbd6:	86 95       	lsr	r24
    cbd8:	71 05       	cpc	r23, r1
    cbda:	61 05       	cpc	r22, r1
    cbdc:	08 94       	sec
    cbde:	08 95       	ret

0000cbe0 <__fp_zero>:
__fp_zero():
    cbe0:	e8 94       	clt

0000cbe2 <__fp_szero>:
    cbe2:	bb 27       	eor	r27, r27
    cbe4:	66 27       	eor	r22, r22
    cbe6:	77 27       	eor	r23, r23
    cbe8:	cb 01       	movw	r24, r22
    cbea:	97 f9       	bld	r25, 7
    cbec:	08 95       	ret

0000cbee <__muluhisi3>:
__muluhisi3():
/home/admin/build/toolchain-avr-special/gcc-build/avr/avrxmega2/libgcc/../../../../gcc/libgcc/config/avr/lib1funcs.S:626
    cbee:	09 d0       	rcall	.+18     	; 0xcc02 <__umulhisi3>
/home/admin/build/toolchain-avr-special/gcc-build/avr/avrxmega2/libgcc/../../../../gcc/libgcc/config/avr/lib1funcs.S:627
    cbf0:	a5 9f       	mul	r26, r21
/home/admin/build/toolchain-avr-special/gcc-build/avr/avrxmega2/libgcc/../../../../gcc/libgcc/config/avr/lib1funcs.S:628
    cbf2:	90 0d       	add	r25, r0
/home/admin/build/toolchain-avr-special/gcc-build/avr/avrxmega2/libgcc/../../../../gcc/libgcc/config/avr/lib1funcs.S:629
    cbf4:	b4 9f       	mul	r27, r20
/home/admin/build/toolchain-avr-special/gcc-build/avr/avrxmega2/libgcc/../../../../gcc/libgcc/config/avr/lib1funcs.S:630
    cbf6:	90 0d       	add	r25, r0
/home/admin/build/toolchain-avr-special/gcc-build/avr/avrxmega2/libgcc/../../../../gcc/libgcc/config/avr/lib1funcs.S:631
    cbf8:	a4 9f       	mul	r26, r20
/home/admin/build/toolchain-avr-special/gcc-build/avr/avrxmega2/libgcc/../../../../gcc/libgcc/config/avr/lib1funcs.S:632
    cbfa:	80 0d       	add	r24, r0
/home/admin/build/toolchain-avr-special/gcc-build/avr/avrxmega2/libgcc/../../../../gcc/libgcc/config/avr/lib1funcs.S:633
    cbfc:	91 1d       	adc	r25, r1
/home/admin/build/toolchain-avr-special/gcc-build/avr/avrxmega2/libgcc/../../../../gcc/libgcc/config/avr/lib1funcs.S:634
    cbfe:	11 24       	eor	r1, r1
/home/admin/build/toolchain-avr-special/gcc-build/avr/avrxmega2/libgcc/../../../../gcc/libgcc/config/avr/lib1funcs.S:635
    cc00:	08 95       	ret

0000cc02 <__umulhisi3>:
__umulhisi3():
/home/admin/build/toolchain-avr-special/gcc-build/avr/avrxmega2/libgcc/../../../../gcc/libgcc/config/avr/lib1funcs.S:564
    cc02:	a2 9f       	mul	r26, r18
/home/admin/build/toolchain-avr-special/gcc-build/avr/avrxmega2/libgcc/../../../../gcc/libgcc/config/avr/lib1funcs.S:565
    cc04:	b0 01       	movw	r22, r0
/home/admin/build/toolchain-avr-special/gcc-build/avr/avrxmega2/libgcc/../../../../gcc/libgcc/config/avr/lib1funcs.S:566
    cc06:	b3 9f       	mul	r27, r19
/home/admin/build/toolchain-avr-special/gcc-build/avr/avrxmega2/libgcc/../../../../gcc/libgcc/config/avr/lib1funcs.S:567
    cc08:	c0 01       	movw	r24, r0
/home/admin/build/toolchain-avr-special/gcc-build/avr/avrxmega2/libgcc/../../../../gcc/libgcc/config/avr/lib1funcs.S:568
    cc0a:	a3 9f       	mul	r26, r19
/home/admin/build/toolchain-avr-special/gcc-build/avr/avrxmega2/libgcc/../../../../gcc/libgcc/config/avr/lib1funcs.S:573
    cc0c:	70 0d       	add	r23, r0
/home/admin/build/toolchain-avr-special/gcc-build/avr/avrxmega2/libgcc/../../../../gcc/libgcc/config/avr/lib1funcs.S:574
    cc0e:	81 1d       	adc	r24, r1
/home/admin/build/toolchain-avr-special/gcc-build/avr/avrxmega2/libgcc/../../../../gcc/libgcc/config/avr/lib1funcs.S:575
    cc10:	11 24       	eor	r1, r1
/home/admin/build/toolchain-avr-special/gcc-build/avr/avrxmega2/libgcc/../../../../gcc/libgcc/config/avr/lib1funcs.S:576
    cc12:	91 1d       	adc	r25, r1
/home/admin/build/toolchain-avr-special/gcc-build/avr/avrxmega2/libgcc/../../../../gcc/libgcc/config/avr/lib1funcs.S:580
    cc14:	b2 9f       	mul	r27, r18
/home/admin/build/toolchain-avr-special/gcc-build/avr/avrxmega2/libgcc/../../../../gcc/libgcc/config/avr/lib1funcs.S:581
    cc16:	70 0d       	add	r23, r0
/home/admin/build/toolchain-avr-special/gcc-build/avr/avrxmega2/libgcc/../../../../gcc/libgcc/config/avr/lib1funcs.S:582
    cc18:	81 1d       	adc	r24, r1
/home/admin/build/toolchain-avr-special/gcc-build/avr/avrxmega2/libgcc/../../../../gcc/libgcc/config/avr/lib1funcs.S:583
    cc1a:	11 24       	eor	r1, r1
/home/admin/build/toolchain-avr-special/gcc-build/avr/avrxmega2/libgcc/../../../../gcc/libgcc/config/avr/lib1funcs.S:584
    cc1c:	91 1d       	adc	r25, r1
/home/admin/build/toolchain-avr-special/gcc-build/avr/avrxmega2/libgcc/../../../../gcc/libgcc/config/avr/lib1funcs.S:585
    cc1e:	08 95       	ret

0000cc20 <__subsf3>:
__subsf3():
    cc20:	50 58       	subi	r21, 0x80	; 128

0000cc22 <__addsf3>:
    cc22:	bb 27       	eor	r27, r27
    cc24:	aa 27       	eor	r26, r26
    cc26:	0e d0       	rcall	.+28     	; 0xcc44 <__addsf3x>
    cc28:	a8 cf       	rjmp	.-176    	; 0xcb7a <__fp_round>
__addsf3():
    cc2a:	99 df       	rcall	.-206    	; 0xcb5e <__fp_pscA>
    cc2c:	30 f0       	brcs	.+12     	; 0xcc3a <__addsf3+0x18>
    cc2e:	9e df       	rcall	.-196    	; 0xcb6c <__fp_pscB>
    cc30:	20 f0       	brcs	.+8      	; 0xcc3a <__addsf3+0x18>
    cc32:	31 f4       	brne	.+12     	; 0xcc40 <__addsf3+0x1e>
    cc34:	9f 3f       	cpi	r25, 0xFF	; 255
    cc36:	11 f4       	brne	.+4      	; 0xcc3c <__addsf3+0x1a>
    cc38:	1e f4       	brtc	.+6      	; 0xcc40 <__addsf3+0x1e>
    cc3a:	8e cf       	rjmp	.-228    	; 0xcb58 <__fp_nan>
    cc3c:	0e f4       	brtc	.+2      	; 0xcc40 <__addsf3+0x1e>
    cc3e:	e0 95       	com	r30
    cc40:	e7 fb       	bst	r30, 7
    cc42:	84 cf       	rjmp	.-248    	; 0xcb4c <__fp_inf>

0000cc44 <__addsf3x>:
__addsf3x():
    cc44:	e9 2f       	mov	r30, r25
    cc46:	aa df       	rcall	.-172    	; 0xcb9c <__fp_split3>
    cc48:	80 f3       	brcs	.-32     	; 0xcc2a <__addsf3+0x8>
    cc4a:	ba 17       	cp	r27, r26
    cc4c:	62 07       	cpc	r22, r18
    cc4e:	73 07       	cpc	r23, r19
    cc50:	84 07       	cpc	r24, r20
    cc52:	95 07       	cpc	r25, r21
    cc54:	18 f0       	brcs	.+6      	; 0xcc5c <__addsf3x+0x18>
    cc56:	71 f4       	brne	.+28     	; 0xcc74 <__addsf3x+0x30>
    cc58:	9e f5       	brtc	.+102    	; 0xccc0 <__addsf3x+0x7c>
    cc5a:	c2 cf       	rjmp	.-124    	; 0xcbe0 <__fp_zero>
    cc5c:	0e f4       	brtc	.+2      	; 0xcc60 <__addsf3x+0x1c>
    cc5e:	e0 95       	com	r30
    cc60:	0b 2e       	mov	r0, r27
    cc62:	ba 2f       	mov	r27, r26
    cc64:	a0 2d       	mov	r26, r0
    cc66:	0b 01       	movw	r0, r22
    cc68:	b9 01       	movw	r22, r18
    cc6a:	90 01       	movw	r18, r0
    cc6c:	0c 01       	movw	r0, r24
    cc6e:	ca 01       	movw	r24, r20
    cc70:	a0 01       	movw	r20, r0
    cc72:	11 24       	eor	r1, r1
    cc74:	ff 27       	eor	r31, r31
    cc76:	59 1b       	sub	r21, r25
    cc78:	99 f0       	breq	.+38     	; 0xcca0 <__addsf3x+0x5c>
    cc7a:	59 3f       	cpi	r21, 0xF9	; 249
    cc7c:	50 f4       	brcc	.+20     	; 0xcc92 <__addsf3x+0x4e>
    cc7e:	50 3e       	cpi	r21, 0xE0	; 224
    cc80:	68 f1       	brcs	.+90     	; 0xccdc <__addsf3x+0x98>
    cc82:	1a 16       	cp	r1, r26
    cc84:	f0 40       	sbci	r31, 0x00	; 0
    cc86:	a2 2f       	mov	r26, r18
    cc88:	23 2f       	mov	r18, r19
    cc8a:	34 2f       	mov	r19, r20
    cc8c:	44 27       	eor	r20, r20
    cc8e:	58 5f       	subi	r21, 0xF8	; 248
    cc90:	f3 cf       	rjmp	.-26     	; 0xcc78 <__addsf3x+0x34>
    cc92:	46 95       	lsr	r20
    cc94:	37 95       	ror	r19
    cc96:	27 95       	ror	r18
    cc98:	a7 95       	ror	r26
    cc9a:	f0 40       	sbci	r31, 0x00	; 0
    cc9c:	53 95       	inc	r21
    cc9e:	c9 f7       	brne	.-14     	; 0xcc92 <__addsf3x+0x4e>
    cca0:	7e f4       	brtc	.+30     	; 0xccc0 <__addsf3x+0x7c>
    cca2:	1f 16       	cp	r1, r31
    cca4:	ba 0b       	sbc	r27, r26
    cca6:	62 0b       	sbc	r22, r18
    cca8:	73 0b       	sbc	r23, r19
    ccaa:	84 0b       	sbc	r24, r20
    ccac:	ba f0       	brmi	.+46     	; 0xccdc <__addsf3x+0x98>
    ccae:	91 50       	subi	r25, 0x01	; 1
    ccb0:	a1 f0       	breq	.+40     	; 0xccda <__addsf3x+0x96>
    ccb2:	ff 0f       	add	r31, r31
    ccb4:	bb 1f       	adc	r27, r27
    ccb6:	66 1f       	adc	r22, r22
    ccb8:	77 1f       	adc	r23, r23
    ccba:	88 1f       	adc	r24, r24
    ccbc:	c2 f7       	brpl	.-16     	; 0xccae <__addsf3x+0x6a>
    ccbe:	0e c0       	rjmp	.+28     	; 0xccdc <__addsf3x+0x98>
    ccc0:	ba 0f       	add	r27, r26
    ccc2:	62 1f       	adc	r22, r18
    ccc4:	73 1f       	adc	r23, r19
    ccc6:	84 1f       	adc	r24, r20
    ccc8:	48 f4       	brcc	.+18     	; 0xccdc <__addsf3x+0x98>
    ccca:	87 95       	ror	r24
    cccc:	77 95       	ror	r23
    ccce:	67 95       	ror	r22
    ccd0:	b7 95       	ror	r27
    ccd2:	f7 95       	ror	r31
    ccd4:	9e 3f       	cpi	r25, 0xFE	; 254
    ccd6:	08 f0       	brcs	.+2      	; 0xccda <__addsf3x+0x96>
    ccd8:	b3 cf       	rjmp	.-154    	; 0xcc40 <__addsf3+0x1e>
    ccda:	93 95       	inc	r25
    ccdc:	88 0f       	add	r24, r24
    ccde:	08 f0       	brcs	.+2      	; 0xcce2 <__addsf3x+0x9e>
    cce0:	99 27       	eor	r25, r25
    cce2:	ee 0f       	add	r30, r30
    cce4:	97 95       	ror	r25
    cce6:	87 95       	ror	r24
    cce8:	08 95       	ret

0000ccea <__divsf3>:
    ccea:	0c d0       	rcall	.+24     	; 0xcd04 <__divsf3x>
    ccec:	46 cf       	rjmp	.-372    	; 0xcb7a <__fp_round>
    ccee:	3e df       	rcall	.-388    	; 0xcb6c <__fp_pscB>
    ccf0:	40 f0       	brcs	.+16     	; 0xcd02 <__divsf3+0x18>
    ccf2:	35 df       	rcall	.-406    	; 0xcb5e <__fp_pscA>
    ccf4:	30 f0       	brcs	.+12     	; 0xcd02 <__divsf3+0x18>
    ccf6:	21 f4       	brne	.+8      	; 0xcd00 <__divsf3+0x16>
    ccf8:	5f 3f       	cpi	r21, 0xFF	; 255
    ccfa:	19 f0       	breq	.+6      	; 0xcd02 <__divsf3+0x18>
    ccfc:	27 cf       	rjmp	.-434    	; 0xcb4c <__fp_inf>
    ccfe:	51 11       	cpse	r21, r1
    cd00:	70 cf       	rjmp	.-288    	; 0xcbe2 <__fp_szero>
    cd02:	2a cf       	rjmp	.-428    	; 0xcb58 <__fp_nan>

0000cd04 <__divsf3x>:
    cd04:	4b df       	rcall	.-362    	; 0xcb9c <__fp_split3>
    cd06:	98 f3       	brcs	.-26     	; 0xccee <__divsf3+0x4>

0000cd08 <__divsf3_pse>:
    cd08:	99 23       	and	r25, r25
    cd0a:	c9 f3       	breq	.-14     	; 0xccfe <__divsf3+0x14>
    cd0c:	55 23       	and	r21, r21
    cd0e:	b1 f3       	breq	.-20     	; 0xccfc <__divsf3+0x12>
__divsf3_pse():
    cd10:	95 1b       	sub	r25, r21
    cd12:	55 0b       	sbc	r21, r21
    cd14:	bb 27       	eor	r27, r27
    cd16:	aa 27       	eor	r26, r26
    cd18:	62 17       	cp	r22, r18
    cd1a:	73 07       	cpc	r23, r19
    cd1c:	84 07       	cpc	r24, r20
    cd1e:	38 f0       	brcs	.+14     	; 0xcd2e <__divsf3_pse+0x26>
    cd20:	9f 5f       	subi	r25, 0xFF	; 255
    cd22:	5f 4f       	sbci	r21, 0xFF	; 255
    cd24:	22 0f       	add	r18, r18
    cd26:	33 1f       	adc	r19, r19
    cd28:	44 1f       	adc	r20, r20
    cd2a:	aa 1f       	adc	r26, r26
    cd2c:	a9 f3       	breq	.-22     	; 0xcd18 <__divsf3_pse+0x10>
    cd2e:	33 d0       	rcall	.+102    	; 0xcd96 <__divsf3_pse+0x8e>
    cd30:	0e 2e       	mov	r0, r30
    cd32:	3a f0       	brmi	.+14     	; 0xcd42 <__divsf3_pse+0x3a>
    cd34:	e0 e8       	ldi	r30, 0x80	; 128
    cd36:	30 d0       	rcall	.+96     	; 0xcd98 <__divsf3_pse+0x90>
    cd38:	91 50       	subi	r25, 0x01	; 1
    cd3a:	50 40       	sbci	r21, 0x00	; 0
    cd3c:	e6 95       	lsr	r30
    cd3e:	00 1c       	adc	r0, r0
    cd40:	ca f7       	brpl	.-14     	; 0xcd34 <__divsf3_pse+0x2c>
    cd42:	29 d0       	rcall	.+82     	; 0xcd96 <__divsf3_pse+0x8e>
    cd44:	fe 2f       	mov	r31, r30
    cd46:	27 d0       	rcall	.+78     	; 0xcd96 <__divsf3_pse+0x8e>
    cd48:	66 0f       	add	r22, r22
    cd4a:	77 1f       	adc	r23, r23
    cd4c:	88 1f       	adc	r24, r24
    cd4e:	bb 1f       	adc	r27, r27
    cd50:	26 17       	cp	r18, r22
    cd52:	37 07       	cpc	r19, r23
    cd54:	48 07       	cpc	r20, r24
    cd56:	ab 07       	cpc	r26, r27
    cd58:	b0 e8       	ldi	r27, 0x80	; 128
    cd5a:	09 f0       	breq	.+2      	; 0xcd5e <__divsf3_pse+0x56>
    cd5c:	bb 0b       	sbc	r27, r27
    cd5e:	80 2d       	mov	r24, r0
    cd60:	bf 01       	movw	r22, r30
    cd62:	ff 27       	eor	r31, r31
    cd64:	93 58       	subi	r25, 0x83	; 131
    cd66:	5f 4f       	sbci	r21, 0xFF	; 255
    cd68:	2a f0       	brmi	.+10     	; 0xcd74 <__divsf3_pse+0x6c>
    cd6a:	9e 3f       	cpi	r25, 0xFE	; 254
    cd6c:	51 05       	cpc	r21, r1
    cd6e:	68 f0       	brcs	.+26     	; 0xcd8a <__divsf3_pse+0x82>
    cd70:	ed ce       	rjmp	.-550    	; 0xcb4c <__fp_inf>
    cd72:	37 cf       	rjmp	.-402    	; 0xcbe2 <__fp_szero>
    cd74:	5f 3f       	cpi	r21, 0xFF	; 255
    cd76:	ec f3       	brlt	.-6      	; 0xcd72 <__divsf3_pse+0x6a>
    cd78:	98 3e       	cpi	r25, 0xE8	; 232
    cd7a:	dc f3       	brlt	.-10     	; 0xcd72 <__divsf3_pse+0x6a>
    cd7c:	86 95       	lsr	r24
    cd7e:	77 95       	ror	r23
    cd80:	67 95       	ror	r22
    cd82:	b7 95       	ror	r27
    cd84:	f7 95       	ror	r31
    cd86:	9f 5f       	subi	r25, 0xFF	; 255
    cd88:	c9 f7       	brne	.-14     	; 0xcd7c <__divsf3_pse+0x74>
    cd8a:	88 0f       	add	r24, r24
    cd8c:	91 1d       	adc	r25, r1
    cd8e:	96 95       	lsr	r25
    cd90:	87 95       	ror	r24
    cd92:	97 f9       	bld	r25, 7
    cd94:	08 95       	ret
    cd96:	e1 e0       	ldi	r30, 0x01	; 1
    cd98:	66 0f       	add	r22, r22
    cd9a:	77 1f       	adc	r23, r23
    cd9c:	88 1f       	adc	r24, r24
    cd9e:	bb 1f       	adc	r27, r27
    cda0:	62 17       	cp	r22, r18
    cda2:	73 07       	cpc	r23, r19
    cda4:	84 07       	cpc	r24, r20
    cda6:	ba 07       	cpc	r27, r26
    cda8:	20 f0       	brcs	.+8      	; 0xcdb2 <__divsf3_pse+0xaa>
    cdaa:	62 1b       	sub	r22, r18
    cdac:	73 0b       	sbc	r23, r19
    cdae:	84 0b       	sbc	r24, r20
    cdb0:	ba 0b       	sbc	r27, r26
    cdb2:	ee 1f       	adc	r30, r30
    cdb4:	88 f7       	brcc	.-30     	; 0xcd98 <__divsf3_pse+0x90>
    cdb6:	e0 95       	com	r30
    cdb8:	08 95       	ret

0000cdba <__fixsfsi>:
__fixsfsi():
    cdba:	04 d0       	rcall	.+8      	; 0xcdc4 <__fixunssfsi>
    cdbc:	68 94       	set
    cdbe:	b1 11       	cpse	r27, r1
    cdc0:	10 cf       	rjmp	.-480    	; 0xcbe2 <__fp_szero>
    cdc2:	08 95       	ret

0000cdc4 <__fixunssfsi>:
__fixunssfsi():
    cdc4:	f3 de       	rcall	.-538    	; 0xcbac <__fp_splitA>
    cdc6:	88 f0       	brcs	.+34     	; 0xcdea <__fixunssfsi+0x26>
    cdc8:	9f 57       	subi	r25, 0x7F	; 127
    cdca:	90 f0       	brcs	.+36     	; 0xcdf0 <__fixunssfsi+0x2c>
    cdcc:	b9 2f       	mov	r27, r25
    cdce:	99 27       	eor	r25, r25
    cdd0:	b7 51       	subi	r27, 0x17	; 23
    cdd2:	a0 f0       	brcs	.+40     	; 0xcdfc <__fixunssfsi+0x38>
    cdd4:	d1 f0       	breq	.+52     	; 0xce0a <__fixunssfsi+0x46>
    cdd6:	66 0f       	add	r22, r22
    cdd8:	77 1f       	adc	r23, r23
    cdda:	88 1f       	adc	r24, r24
    cddc:	99 1f       	adc	r25, r25
    cdde:	1a f0       	brmi	.+6      	; 0xcde6 <__fixunssfsi+0x22>
    cde0:	ba 95       	dec	r27
    cde2:	c9 f7       	brne	.-14     	; 0xcdd6 <__fixunssfsi+0x12>
    cde4:	12 c0       	rjmp	.+36     	; 0xce0a <__fixunssfsi+0x46>
    cde6:	b1 30       	cpi	r27, 0x01	; 1
    cde8:	81 f0       	breq	.+32     	; 0xce0a <__fixunssfsi+0x46>
    cdea:	fa de       	rcall	.-524    	; 0xcbe0 <__fp_zero>
    cdec:	b1 e0       	ldi	r27, 0x01	; 1
    cdee:	08 95       	ret
    cdf0:	f7 ce       	rjmp	.-530    	; 0xcbe0 <__fp_zero>
    cdf2:	67 2f       	mov	r22, r23
    cdf4:	78 2f       	mov	r23, r24
    cdf6:	88 27       	eor	r24, r24
    cdf8:	b8 5f       	subi	r27, 0xF8	; 248
    cdfa:	39 f0       	breq	.+14     	; 0xce0a <__fixunssfsi+0x46>
    cdfc:	b9 3f       	cpi	r27, 0xF9	; 249
    cdfe:	cc f3       	brlt	.-14     	; 0xcdf2 <__fixunssfsi+0x2e>
    ce00:	86 95       	lsr	r24
    ce02:	77 95       	ror	r23
    ce04:	67 95       	ror	r22
    ce06:	b3 95       	inc	r27
    ce08:	d9 f7       	brne	.-10     	; 0xce00 <__fixunssfsi+0x3c>
    ce0a:	3e f4       	brtc	.+14     	; 0xce1a <__fixunssfsi+0x56>
    ce0c:	90 95       	com	r25
    ce0e:	80 95       	com	r24
    ce10:	70 95       	com	r23
    ce12:	61 95       	neg	r22
    ce14:	7f 4f       	sbci	r23, 0xFF	; 255
    ce16:	8f 4f       	sbci	r24, 0xFF	; 255
    ce18:	9f 4f       	sbci	r25, 0xFF	; 255
    ce1a:	08 95       	ret

0000ce1c <__gesf2>:
__gesf2():
    ce1c:	0d de       	rcall	.-998    	; 0xca38 <__fp_cmp>
    ce1e:	08 f4       	brcc	.+2      	; 0xce22 <__gesf2+0x6>
    ce20:	8f ef       	ldi	r24, 0xFF	; 255
    ce22:	08 95       	ret

0000ce24 <__unordsf2>:
__unordsf2():
    ce24:	09 de       	rcall	.-1006   	; 0xca38 <__fp_cmp>
    ce26:	88 0b       	sbc	r24, r24
    ce28:	99 0b       	sbc	r25, r25
    ce2a:	08 95       	ret

0000ce2c <__divmodhi4>:
__divmodhi4():
/home/admin/build/toolchain-avr-special/gcc-build/avr/avrxmega2/libgcc/../../../../gcc/libgcc/config/avr/lib1funcs.S:1440
    ce2c:	97 fb       	bst	r25, 7
/home/admin/build/toolchain-avr-special/gcc-build/avr/avrxmega2/libgcc/../../../../gcc/libgcc/config/avr/lib1funcs.S:1441
    ce2e:	07 2e       	mov	r0, r23
/home/admin/build/toolchain-avr-special/gcc-build/avr/avrxmega2/libgcc/../../../../gcc/libgcc/config/avr/lib1funcs.S:1442
    ce30:	16 f4       	brtc	.+4      	; 0xce36 <__divmodhi4+0xa>
/home/admin/build/toolchain-avr-special/gcc-build/avr/avrxmega2/libgcc/../../../../gcc/libgcc/config/avr/lib1funcs.S:1443
    ce32:	00 94       	com	r0
/home/admin/build/toolchain-avr-special/gcc-build/avr/avrxmega2/libgcc/../../../../gcc/libgcc/config/avr/lib1funcs.S:1444
    ce34:	06 d0       	rcall	.+12     	; 0xce42 <__divmodhi4_neg1>
/home/admin/build/toolchain-avr-special/gcc-build/avr/avrxmega2/libgcc/../../../../gcc/libgcc/config/avr/lib1funcs.S:1446
    ce36:	77 fd       	sbrc	r23, 7
/home/admin/build/toolchain-avr-special/gcc-build/avr/avrxmega2/libgcc/../../../../gcc/libgcc/config/avr/lib1funcs.S:1447
    ce38:	08 d0       	rcall	.+16     	; 0xce4a <__divmodhi4_neg2>
/home/admin/build/toolchain-avr-special/gcc-build/avr/avrxmega2/libgcc/../../../../gcc/libgcc/config/avr/lib1funcs.S:1448
    ce3a:	2d d0       	rcall	.+90     	; 0xce96 <__udivmodhi4>
/home/admin/build/toolchain-avr-special/gcc-build/avr/avrxmega2/libgcc/../../../../gcc/libgcc/config/avr/lib1funcs.S:1449
    ce3c:	07 fc       	sbrc	r0, 7
/home/admin/build/toolchain-avr-special/gcc-build/avr/avrxmega2/libgcc/../../../../gcc/libgcc/config/avr/lib1funcs.S:1450
    ce3e:	05 d0       	rcall	.+10     	; 0xce4a <__divmodhi4_neg2>
/home/admin/build/toolchain-avr-special/gcc-build/avr/avrxmega2/libgcc/../../../../gcc/libgcc/config/avr/lib1funcs.S:1451
    ce40:	3e f4       	brtc	.+14     	; 0xce50 <__divmodhi4_exit>

0000ce42 <__divmodhi4_neg1>:
/home/admin/build/toolchain-avr-special/gcc-build/avr/avrxmega2/libgcc/../../../../gcc/libgcc/config/avr/lib1funcs.S:1454
    ce42:	90 95       	com	r25
/home/admin/build/toolchain-avr-special/gcc-build/avr/avrxmega2/libgcc/../../../../gcc/libgcc/config/avr/lib1funcs.S:1455
    ce44:	81 95       	neg	r24
/home/admin/build/toolchain-avr-special/gcc-build/avr/avrxmega2/libgcc/../../../../gcc/libgcc/config/avr/lib1funcs.S:1456
    ce46:	9f 4f       	sbci	r25, 0xFF	; 255
/home/admin/build/toolchain-avr-special/gcc-build/avr/avrxmega2/libgcc/../../../../gcc/libgcc/config/avr/lib1funcs.S:1457
    ce48:	08 95       	ret

0000ce4a <__divmodhi4_neg2>:
/home/admin/build/toolchain-avr-special/gcc-build/avr/avrxmega2/libgcc/../../../../gcc/libgcc/config/avr/lib1funcs.S:1460
    ce4a:	70 95       	com	r23
/home/admin/build/toolchain-avr-special/gcc-build/avr/avrxmega2/libgcc/../../../../gcc/libgcc/config/avr/lib1funcs.S:1461
    ce4c:	61 95       	neg	r22
/home/admin/build/toolchain-avr-special/gcc-build/avr/avrxmega2/libgcc/../../../../gcc/libgcc/config/avr/lib1funcs.S:1462
    ce4e:	7f 4f       	sbci	r23, 0xFF	; 255

0000ce50 <__divmodhi4_exit>:
/home/admin/build/toolchain-avr-special/gcc-build/avr/avrxmega2/libgcc/../../../../gcc/libgcc/config/avr/lib1funcs.S:1464
    ce50:	08 95       	ret

0000ce52 <__udivmodsi4>:
__udivmodsi4():
/home/admin/build/toolchain-avr-special/gcc-build/avr/avrxmega2/libgcc/../../../../gcc/libgcc/config/avr/lib1funcs.S:1638
    ce52:	a1 e2       	ldi	r26, 0x21	; 33
/home/admin/build/toolchain-avr-special/gcc-build/avr/avrxmega2/libgcc/../../../../gcc/libgcc/config/avr/lib1funcs.S:1639
    ce54:	1a 2e       	mov	r1, r26
/home/admin/build/toolchain-avr-special/gcc-build/avr/avrxmega2/libgcc/../../../../gcc/libgcc/config/avr/lib1funcs.S:1640
    ce56:	aa 1b       	sub	r26, r26
/home/admin/build/toolchain-avr-special/gcc-build/avr/avrxmega2/libgcc/../../../../gcc/libgcc/config/avr/lib1funcs.S:1641
    ce58:	bb 1b       	sub	r27, r27
/home/admin/build/toolchain-avr-special/gcc-build/avr/avrxmega2/libgcc/../../../../gcc/libgcc/config/avr/lib1funcs.S:1642
    ce5a:	fd 01       	movw	r30, r26
/home/admin/build/toolchain-avr-special/gcc-build/avr/avrxmega2/libgcc/../../../../gcc/libgcc/config/avr/lib1funcs.S:1644
    ce5c:	0d c0       	rjmp	.+26     	; 0xce78 <__udivmodsi4_ep>

0000ce5e <__udivmodsi4_loop>:
/home/admin/build/toolchain-avr-special/gcc-build/avr/avrxmega2/libgcc/../../../../gcc/libgcc/config/avr/lib1funcs.S:1646
    ce5e:	aa 1f       	adc	r26, r26
/home/admin/build/toolchain-avr-special/gcc-build/avr/avrxmega2/libgcc/../../../../gcc/libgcc/config/avr/lib1funcs.S:1647
    ce60:	bb 1f       	adc	r27, r27
/home/admin/build/toolchain-avr-special/gcc-build/avr/avrxmega2/libgcc/../../../../gcc/libgcc/config/avr/lib1funcs.S:1648
    ce62:	ee 1f       	adc	r30, r30
/home/admin/build/toolchain-avr-special/gcc-build/avr/avrxmega2/libgcc/../../../../gcc/libgcc/config/avr/lib1funcs.S:1649
    ce64:	ff 1f       	adc	r31, r31
/home/admin/build/toolchain-avr-special/gcc-build/avr/avrxmega2/libgcc/../../../../gcc/libgcc/config/avr/lib1funcs.S:1650
    ce66:	a2 17       	cp	r26, r18
/home/admin/build/toolchain-avr-special/gcc-build/avr/avrxmega2/libgcc/../../../../gcc/libgcc/config/avr/lib1funcs.S:1651
    ce68:	b3 07       	cpc	r27, r19
/home/admin/build/toolchain-avr-special/gcc-build/avr/avrxmega2/libgcc/../../../../gcc/libgcc/config/avr/lib1funcs.S:1652
    ce6a:	e4 07       	cpc	r30, r20
/home/admin/build/toolchain-avr-special/gcc-build/avr/avrxmega2/libgcc/../../../../gcc/libgcc/config/avr/lib1funcs.S:1653
    ce6c:	f5 07       	cpc	r31, r21
/home/admin/build/toolchain-avr-special/gcc-build/avr/avrxmega2/libgcc/../../../../gcc/libgcc/config/avr/lib1funcs.S:1654
    ce6e:	20 f0       	brcs	.+8      	; 0xce78 <__udivmodsi4_ep>
/home/admin/build/toolchain-avr-special/gcc-build/avr/avrxmega2/libgcc/../../../../gcc/libgcc/config/avr/lib1funcs.S:1655
    ce70:	a2 1b       	sub	r26, r18
/home/admin/build/toolchain-avr-special/gcc-build/avr/avrxmega2/libgcc/../../../../gcc/libgcc/config/avr/lib1funcs.S:1656
    ce72:	b3 0b       	sbc	r27, r19
/home/admin/build/toolchain-avr-special/gcc-build/avr/avrxmega2/libgcc/../../../../gcc/libgcc/config/avr/lib1funcs.S:1657
    ce74:	e4 0b       	sbc	r30, r20
/home/admin/build/toolchain-avr-special/gcc-build/avr/avrxmega2/libgcc/../../../../gcc/libgcc/config/avr/lib1funcs.S:1658
    ce76:	f5 0b       	sbc	r31, r21

0000ce78 <__udivmodsi4_ep>:
/home/admin/build/toolchain-avr-special/gcc-build/avr/avrxmega2/libgcc/../../../../gcc/libgcc/config/avr/lib1funcs.S:1660
    ce78:	66 1f       	adc	r22, r22
/home/admin/build/toolchain-avr-special/gcc-build/avr/avrxmega2/libgcc/../../../../gcc/libgcc/config/avr/lib1funcs.S:1661
    ce7a:	77 1f       	adc	r23, r23
/home/admin/build/toolchain-avr-special/gcc-build/avr/avrxmega2/libgcc/../../../../gcc/libgcc/config/avr/lib1funcs.S:1662
    ce7c:	88 1f       	adc	r24, r24
/home/admin/build/toolchain-avr-special/gcc-build/avr/avrxmega2/libgcc/../../../../gcc/libgcc/config/avr/lib1funcs.S:1663
    ce7e:	99 1f       	adc	r25, r25
/home/admin/build/toolchain-avr-special/gcc-build/avr/avrxmega2/libgcc/../../../../gcc/libgcc/config/avr/lib1funcs.S:1664
    ce80:	1a 94       	dec	r1
/home/admin/build/toolchain-avr-special/gcc-build/avr/avrxmega2/libgcc/../../../../gcc/libgcc/config/avr/lib1funcs.S:1665
    ce82:	69 f7       	brne	.-38     	; 0xce5e <__udivmodsi4_loop>
/home/admin/build/toolchain-avr-special/gcc-build/avr/avrxmega2/libgcc/../../../../gcc/libgcc/config/avr/lib1funcs.S:1667
    ce84:	60 95       	com	r22
/home/admin/build/toolchain-avr-special/gcc-build/avr/avrxmega2/libgcc/../../../../gcc/libgcc/config/avr/lib1funcs.S:1668
    ce86:	70 95       	com	r23
/home/admin/build/toolchain-avr-special/gcc-build/avr/avrxmega2/libgcc/../../../../gcc/libgcc/config/avr/lib1funcs.S:1669
    ce88:	80 95       	com	r24
/home/admin/build/toolchain-avr-special/gcc-build/avr/avrxmega2/libgcc/../../../../gcc/libgcc/config/avr/lib1funcs.S:1670
    ce8a:	90 95       	com	r25
/home/admin/build/toolchain-avr-special/gcc-build/avr/avrxmega2/libgcc/../../../../gcc/libgcc/config/avr/lib1funcs.S:1672
    ce8c:	9b 01       	movw	r18, r22
/home/admin/build/toolchain-avr-special/gcc-build/avr/avrxmega2/libgcc/../../../../gcc/libgcc/config/avr/lib1funcs.S:1674
    ce8e:	ac 01       	movw	r20, r24
/home/admin/build/toolchain-avr-special/gcc-build/avr/avrxmega2/libgcc/../../../../gcc/libgcc/config/avr/lib1funcs.S:1676
    ce90:	bd 01       	movw	r22, r26
/home/admin/build/toolchain-avr-special/gcc-build/avr/avrxmega2/libgcc/../../../../gcc/libgcc/config/avr/lib1funcs.S:1678
    ce92:	cf 01       	movw	r24, r30
/home/admin/build/toolchain-avr-special/gcc-build/avr/avrxmega2/libgcc/../../../../gcc/libgcc/config/avr/lib1funcs.S:1680
    ce94:	08 95       	ret

0000ce96 <__udivmodhi4>:
__udivmodhi4():
/home/admin/build/toolchain-avr-special/gcc-build/avr/avrxmega2/libgcc/../../../../gcc/libgcc/config/avr/lib1funcs.S:1408
    ce96:	aa 1b       	sub	r26, r26
/home/admin/build/toolchain-avr-special/gcc-build/avr/avrxmega2/libgcc/../../../../gcc/libgcc/config/avr/lib1funcs.S:1409
    ce98:	bb 1b       	sub	r27, r27
/home/admin/build/toolchain-avr-special/gcc-build/avr/avrxmega2/libgcc/../../../../gcc/libgcc/config/avr/lib1funcs.S:1410
    ce9a:	51 e1       	ldi	r21, 0x11	; 17
/home/admin/build/toolchain-avr-special/gcc-build/avr/avrxmega2/libgcc/../../../../gcc/libgcc/config/avr/lib1funcs.S:1411
    ce9c:	07 c0       	rjmp	.+14     	; 0xceac <__udivmodhi4_ep>

0000ce9e <__udivmodhi4_loop>:
/home/admin/build/toolchain-avr-special/gcc-build/avr/avrxmega2/libgcc/../../../../gcc/libgcc/config/avr/lib1funcs.S:1413
    ce9e:	aa 1f       	adc	r26, r26
/home/admin/build/toolchain-avr-special/gcc-build/avr/avrxmega2/libgcc/../../../../gcc/libgcc/config/avr/lib1funcs.S:1414
    cea0:	bb 1f       	adc	r27, r27
/home/admin/build/toolchain-avr-special/gcc-build/avr/avrxmega2/libgcc/../../../../gcc/libgcc/config/avr/lib1funcs.S:1415
    cea2:	a6 17       	cp	r26, r22
/home/admin/build/toolchain-avr-special/gcc-build/avr/avrxmega2/libgcc/../../../../gcc/libgcc/config/avr/lib1funcs.S:1416
    cea4:	b7 07       	cpc	r27, r23
/home/admin/build/toolchain-avr-special/gcc-build/avr/avrxmega2/libgcc/../../../../gcc/libgcc/config/avr/lib1funcs.S:1417
    cea6:	10 f0       	brcs	.+4      	; 0xceac <__udivmodhi4_ep>
/home/admin/build/toolchain-avr-special/gcc-build/avr/avrxmega2/libgcc/../../../../gcc/libgcc/config/avr/lib1funcs.S:1418
    cea8:	a6 1b       	sub	r26, r22
/home/admin/build/toolchain-avr-special/gcc-build/avr/avrxmega2/libgcc/../../../../gcc/libgcc/config/avr/lib1funcs.S:1419
    ceaa:	b7 0b       	sbc	r27, r23

0000ceac <__udivmodhi4_ep>:
/home/admin/build/toolchain-avr-special/gcc-build/avr/avrxmega2/libgcc/../../../../gcc/libgcc/config/avr/lib1funcs.S:1421
    ceac:	88 1f       	adc	r24, r24
/home/admin/build/toolchain-avr-special/gcc-build/avr/avrxmega2/libgcc/../../../../gcc/libgcc/config/avr/lib1funcs.S:1422
    ceae:	99 1f       	adc	r25, r25
/home/admin/build/toolchain-avr-special/gcc-build/avr/avrxmega2/libgcc/../../../../gcc/libgcc/config/avr/lib1funcs.S:1423
    ceb0:	5a 95       	dec	r21
/home/admin/build/toolchain-avr-special/gcc-build/avr/avrxmega2/libgcc/../../../../gcc/libgcc/config/avr/lib1funcs.S:1424
    ceb2:	a9 f7       	brne	.-22     	; 0xce9e <__udivmodhi4_loop>
/home/admin/build/toolchain-avr-special/gcc-build/avr/avrxmega2/libgcc/../../../../gcc/libgcc/config/avr/lib1funcs.S:1425
    ceb4:	80 95       	com	r24
/home/admin/build/toolchain-avr-special/gcc-build/avr/avrxmega2/libgcc/../../../../gcc/libgcc/config/avr/lib1funcs.S:1426
    ceb6:	90 95       	com	r25
/home/admin/build/toolchain-avr-special/gcc-build/avr/avrxmega2/libgcc/../../../../gcc/libgcc/config/avr/lib1funcs.S:1428
    ceb8:	bc 01       	movw	r22, r24
/home/admin/build/toolchain-avr-special/gcc-build/avr/avrxmega2/libgcc/../../../../gcc/libgcc/config/avr/lib1funcs.S:1430
    ceba:	cd 01       	movw	r24, r26
/home/admin/build/toolchain-avr-special/gcc-build/avr/avrxmega2/libgcc/../../../../gcc/libgcc/config/avr/lib1funcs.S:1432
    cebc:	08 95       	ret

0000cebe <__tablejump2__>:
__tablejump2__():
/home/admin/build/toolchain-avr-special/gcc-build/avr/avrxmega2/libgcc/../../../../gcc/libgcc/config/avr/lib1funcs.S:2296
    cebe:	ee 0f       	add	r30, r30
/home/admin/build/toolchain-avr-special/gcc-build/avr/avrxmega2/libgcc/../../../../gcc/libgcc/config/avr/lib1funcs.S:2297
    cec0:	ff 1f       	adc	r31, r31
/home/admin/build/toolchain-avr-special/gcc-build/avr/avrxmega2/libgcc/../../../../gcc/libgcc/config/avr/lib1funcs.S:2328
    cec2:	05 90       	lpm	r0, Z+
/home/admin/build/toolchain-avr-special/gcc-build/avr/avrxmega2/libgcc/../../../../gcc/libgcc/config/avr/lib1funcs.S:2329
    cec4:	f4 91       	lpm	r31, Z
/home/admin/build/toolchain-avr-special/gcc-build/avr/avrxmega2/libgcc/../../../../gcc/libgcc/config/avr/lib1funcs.S:2330
    cec6:	e0 2d       	mov	r30, r0
/home/admin/build/toolchain-avr-special/gcc-build/avr/avrxmega2/libgcc/../../../../gcc/libgcc/config/avr/lib1funcs.S:2331
    cec8:	09 94       	ijmp

0000ceca <memset>:
memset():
    ceca:	dc 01       	movw	r26, r24
    cecc:	01 c0       	rjmp	.+2      	; 0xced0 <memset+0x6>
    cece:	6d 93       	st	X+, r22
    ced0:	41 50       	subi	r20, 0x01	; 1
    ced2:	50 40       	sbci	r21, 0x00	; 0
    ced4:	e0 f7       	brcc	.-8      	; 0xcece <memset+0x4>
    ced6:	08 95       	ret

0000ced8 <_exit>:
_exit():
/home/admin/build/toolchain-avr-special/gcc-build/avr/avrxmega2/libgcc/../../../../gcc/libgcc/config/avr/lib1funcs.S:2278
    ced8:	f8 94       	cli

0000ceda <__stop_program>:
__stop_program():
/home/admin/build/toolchain-avr-special/gcc-build/avr/avrxmega2/libgcc/../../../../gcc/libgcc/config/avr/lib1funcs.S:2280
    ceda:	ff cf       	rjmp	.-2      	; 0xceda <__stop_program>
